(dp1
S'output'
p2
S'missing "pass" in view'
p3
sS'layer'
p4
S'ParserContainer'
p5
sS'code'
p6
S'response.write(\'<!DOCTYPE html PUBLIC "-//W3C//DTD XHTML 1.0 Transitional//EN" "http://www.w3.org/TR/xhtml1/DTD/xhtml1-transitional.dtd">\\n<html xmlns="http://www.w3.org/1999/xhtml">\\n <head>\\n  <title>\\n   \', escape=False)\nresponse.write(response.title or request.application)\nresponse.write(\'\\n  </title>\\n  \', escape=False)\nresponse.files.append(URL(request.application,\'static\',\'plugin_layouts/layouts/GreenandPlain/style.css\'))\nresponse.write(\'\\n  \', escape=False)\nresponse.files.append(URL(\'static\',\'plugin_layouts/superfish.js\'))\nresponse.write(\'\\n  \', escape=False)\nresponse.write(\'<script type="text/javascript"><!--\\n    // These variables are used by the web2py_ajax_init function in web2py_ajax.js (which is loaded below).\\n    var w2p_ajax_confirm_message = "\', escape=False)\nresponse.write(T(\'Are you sure you want to delete this object?\'))\nresponse.write(\'";\\n    var w2p_ajax_date_format = "\', escape=False)\nresponse.write(T(\'%Y-%m-%d\'))\nresponse.write(\'";\\n    var w2p_ajax_datetime_format = "\', escape=False)\nresponse.write(T(\'%Y-%m-%d %H:%M:%S\'))\nresponse.write(\'";\\n    //--></script>\\n\', escape=False)\nresponse.files.insert(0,URL(\'static\',\'js/jquery.js\'))\nresponse.files.insert(1,URL(\'static\',\'css/calendar.css\'))\nresponse.files.insert(2,URL(\'static\',\'js/calendar.js\'))\nresponse.files.insert(3,URL(\'static\',\'js/web2py.js\'))\nresponse.include_meta()\nresponse.include_files()\nresponse.write(\'\\n\', escape=False)\nresponse.write(\'\\n  <style>\\nul.web2py-menu-vertical { width: 150px; position: relative; top:1em; left:1em;  z-index:30; border:0; margin:0; padding: 0; list-style: none; text-decoration: none;}\\nul.web2py-menu-vertical li { margin:0; padding:0; border:0; width: 150px; background: black; text-align:left;}\\nul.web2py-menu-vertical li a { margin:0; padding: 1px 3px 1px 3px; border:0; width: 144px; color: white; font-size:12px;}\\ndiv.flash { position: fixed; float: right; padding: 10px; top: 10px; right: 30px; opacity: 0.75; margin: 10px 10px 10px 10px; text-align: center; clear: both; color: #fff; font-size: 11pt; text-align: center; vertical-align: middle; cursor: pointer; background: black; border: 2px solid #fff; -moz-border-radius: 5px; -webkit-border-radius: 5px; z-index: 2; }\\ndiv.error { background-color: red; color: white; padding: 3px; }\\n.auth_navbar { text-align:right; z-index:20; position: absolute; top: 2px; right:30px; border:0; padding:0 }\\n  </style>\\n </head>\\n <body>\\n  <!-- start header -->\\n  \', escape=False)\ntry:\n    response.write(auth.navbar(action=URL(\'default\',\'user\')))\nexcept:pass\nresponse.write(\'\\n\\n  <div id="header">\\n   <div id="logo">\\n    <h1>\\n     \', escape=False)\nresponse.write(response.title or request.application)\nresponse.write(\'\\n    </h1>\\n    <p>\\n     Where all your rides come true!\\n    </p>\\n   </div>\\n   <!-- end #logo -->\\n   <div id="menu">\\n    \', escape=False)\nresponse.write(MENU(response.menu,_class=\'web2py-menu\'))\nresponse.write(\'\\n    <script>\\n      jQuery(document).ready(function(){jQuery(\\\'ul.web2py-menu\\\').superfish({delay:400});});\\n    </script>\\n   </div>\\n   <!-- end #menu -->\\n  </div>\\n  <!-- end #header -->\\n  <div id="page">\\n   <div id="content">\\n    <div class="flash">\', escape=False)\nresponse.write(response.flash or \'\')\nresponse.write(\'</div>\\n    \', escape=False)\nresponse.write(\'\\n\', escape=False)\nresponse.write(\'\\r\\n\\r\\n<div class="view_notes">\\r\\n\\t<h3>Notes</h3>\\r\\n\\t\', escape=False)\nresponse.write(ride.comments)\nresponse.write(\'\\r\\n\\t<br>\\r\\n</div>\\r\\n<h3>Ride Details</h3>\\r\\n<font face= "arial" size="4">\\r\\n<ul>\\r\\n    <li>Destination: \', escape=False)\nresponse.write(ride.destination)\nresponse.write(\'</li>\\r\\n    <li>Meeting Location:   \', escape=False)\nresponse.write(ride.meeting_location)\nresponse.write(\'</li>\\r\\n    <li>Date:   \', escape=False)\nresponse.write(ride.departure_date)\nresponse.write(\'</li>\\r\\n    <li>Departure:   \', escape=False)\nresponse.write(ride.departure_time)\nresponse.write(\'</li>\\r\\n    <li>Price:       \', escape=False)\nresponse.write(ride.price)\nresponse.write(\'</li>\\r\\n    <li>Driver:      \', escape=False)\nresponse.write(A(ride.owner.first_name, " ", ride.owner.last_name, _href=URL(\'view_user\', args=[ride.owner.id])))\nresponse.write(\'</li>\\r\\n    <li>Open Seats:       \', escape=False)\nresponse.write(ride.number_of_seats_open)\nresponse.write(\'</li>\\r\\n</ul>\\r\\n<br><br>\\r\\n<h3>People in this ride:</h3>\\r\\n  <ol>\\r\\n  \', escape=False)\nfor user in ride.riders:\n    response.write(\'\\r\\n      \', escape=False)\n    if(user.id == user_id):\n        response.write(\'\\r\\n  \\t\\t\\t<li>\', escape=False)\n        response.write(A(user.first_name, " ", user.last_name, _href=URL(\'view_user\', args=[user.id])))\n        response.write(\' \\r\\n                <font face= "arial" size="2">\\r\\n                (\', escape=False)\n        response.write(A(\'Leave?\', _href=URL(\'leave_ride\', args=[ride.id])))\n        response.write(\')\\r\\n                </font>\\r\\n            </li>\\r\\n      \', escape=False)\n    elif (user_id == ride.owner.id):\n        response.write(\'\\r\\n  \\t\\t\\t<li>\', escape=False)\n        response.write(A(user.first_name, " ", user.last_name, _href=URL(\'view_user\', args=[user.id])))\n        response.write(\' \\r\\n                <font face= "arial" size="2">\\r\\n                (\', escape=False)\n        response.write(A(\'kick\', _href=URL(\'kick_rider\', args=[user.id, ride.id])))\n        response.write(\')\\r\\n                </font>\\r\\n            </li>\\r\\n      \', escape=False)\n    else:\n        response.write(\'\\r\\n      \\t\\t<li>\', escape=False)\n        response.write(A(user.first_name, " ", user.last_name, _href=URL(\'view_user\', args=[user.id])))\n        response.write(\'</li>\\r\\n      \', escape=False)\n        pass\n    response.write(\'\\r\\n   \', escape=False)\n    pass\nresponse.write(\'\\r\\n</ol>\\r\\n</font>\\r\\n\\r\\n\', escape=False)\nfor user in ride.riders:\n    response.write(\'\\r\\n\\t\', escape=False)\n    if (user.id == user_id):\n        response.write(\'\\r\\n\\t\\t<h2>\', escape=False)\n        response.write((A"Add a comment", _href=URL(\'add_comment\', args=[ride.id])))\n        response.write(\'</h2>\\r\\n\\t\\t\\t\', escape=False)\n        break\n    response.write(\'\\r\\n\\r\\n\\r\\n<br>\', escape=False)\n    response.write((A(\'Want to come along? Join this ride!\', _href=URL(\'join_ride\', args=[ride.id]))))\n    response.write(\'<br>\\r\\n\\r\\n\\r\\n<font face= "arial" size="2">\\r\\n\', escape=False)\n    if ride.owner.id == user_id:\n        response.write(\'\\r\\n  \', escape=False)\n        response.write((A(\'Delete this ride\', _href=URL(\'delete\', args=[ride.id]))))\n        response.write(\'\\r\\n  or\\r\\n  \', escape=False)\n        response.write((A(\'Update this ride\', _href=URL(\'update\', args=[ride.id]))))\n        response.write(\'\\r\\n\', escape=False)\n        pass\n    response.write(\'\\r\\n</font>\\r\\n\', escape=False)\n    response.write(\'\\n   </div>\\n   <!-- end #content -->\\n   <div id="sidebar">\\n    <div id="sidebar-bgtop">\\n    </div>\\n    <div id="sidebar-content">\\n\\n    </div>\\n    <div id="sidebar-bgbtm">\\n    </div>\\n   </div>\\n   <!-- end #sidebar -->\\n  </div>\\n  <!-- end #page -->\\n  <div id="footer">\\n   <p>\\n    &copy; 2008. All Rights Reserved. Design by\\n    <a href="http://www.freecsstemplates.org/">\\n     Free CSS Templates\\n    </a>\\n    .\\n   </p>\\n  </div>\\n  <!-- end #footer -->\\n </body>\\n</html>\\n\', escape=False)'
p7
sS'snapshot'
p8
(dp9
S'exception'
p10
(dp11
S'__module__'
p12
S"'gluon.rocket'"
p13
sS'__getslice__'
p14
S"<method-wrapper '__getslice__' of SocketTimeout object>"
p15
sS'__str__'
p16
S"<method-wrapper '__str__' of SocketTimeout object>"
p17
sS'__reduce__'
p18
S'<built-in method __reduce__ of SocketTimeout object>'
p19
sS'__dict__'
p20
S'{}'
p21
sS'__sizeof__'
p22
S'<built-in method __sizeof__ of SocketTimeout object>'
p23
sS'__weakref__'
p24
S'None'
p25
sS'__init__'
p26
S"<method-wrapper '__init__' of SocketTimeout object>"
p27
sS'__setattr__'
p28
S"<method-wrapper '__setattr__' of SocketTimeout object>"
p29
sS'__reduce_ex__'
p30
S'<built-in method __reduce_ex__ of SocketTimeout object>'
p31
sS'__new__'
p32
S'<built-in method __new__ of type object>'
p33
sS'__format__'
p34
S'<built-in method __format__ of SocketTimeout object>'
p35
sS'__class__'
p36
S"<class 'gluon.rocket.SocketTimeout'>"
p37
sS'__doc__'
p38
S"'Exception for when a socket times out between requests.'"
p39
sS'__getitem__'
p40
S"<method-wrapper '__getitem__' of SocketTimeout object>"
p41
sS'__setstate__'
p42
S'<built-in method __setstate__ of SocketTimeout object>'
p43
sS'__getattribute__'
p44
S"<method-wrapper '__getattribute__' of SocketTimeout object>"
p45
sS'args'
p46
S"('Socket timed out before request.',)"
p47
sS'__subclasshook__'
p48
S'<built-in method __subclasshook__ of type object>'
p49
sS'__unicode__'
p50
S'<built-in method __unicode__ of SocketTimeout object>'
p51
sS'__delattr__'
p52
S"<method-wrapper '__delattr__' of SocketTimeout object>"
p53
sS'__repr__'
p54
S"<method-wrapper '__repr__' of SocketTimeout object>"
p55
sS'__hash__'
p56
S"<method-wrapper '__hash__' of SocketTimeout object>"
p57
ssS'evalue'
p58
S'Socket timed out before request.'
p59
sS'frames'
p60
(lp61
(dp62
S'file'
p63
S'C:\\Users\\Owner\\Desktop\\web2py\\gluon\\rocket.py'
p64
sS'dump'
p65
(dp66
sS'lnum'
p67
I1302
sS'lines'
p68
(dp69
sS'call'
p70
S'(self=<WSGIWorker(Thread-11, started daemon 4628)>)'
p71
sS'func'
p72
S'run'
p73
sa(dp74
g63
S'C:\\Users\\Owner\\Desktop\\web2py\\gluon\\rocket.py'
p75
sg65
(dp76
sg67
I1995
sg68
(dp77
sg70
S'(self=<WSGIWorker(Thread-11, started daemon 4628)>, conn=<gluon.rocket.Connection object>)'
p78
sg72
S'run_app'
p79
sa(dp80
g63
S'C:\\Users\\Owner\\Desktop\\web2py\\gluon\\rocket.py'
p81
sg65
(dp82
sg67
I1816
sg68
(dp83
sg70
S'(self=<WSGIWorker(Thread-11, started daemon 4628)>, sock_file=<socket._fileobject object>, conn=<gluon.rocket.Connection object>)'
p84
sg72
S'build_environ'
p85
sa(dp86
g63
S'C:\\Users\\Owner\\Desktop\\web2py\\gluon\\rocket.py'
p87
sg65
(dp88
sg67
I1382
sg68
(dp89
sg70
S'(self=<WSGIWorker(Thread-11, started daemon 4628)>, sock_file=<socket._fileobject object>)'
p90
sg72
S'read_request_line'
p91
sasS'pyver'
p92
S'Python 2.7: C:\\Users\\Owner\\Desktop\\web2py\\web2py.exe'
p93
sS'etype'
p94
S"<class 'gluon.rocket.SocketTimeout'>"
p95
sS'date'
p96
S'Sat Dec 08 13:49:11 2012'
p97
sS'locals'
p98
(dp99
S'sock_file'
p100
S'<socket._fileobject object>'
p101
sS'self'
p102
S'<WSGIWorker(Thread-11, started daemon 4628)>'
p103
sssS'traceback'
p104
S'Traceback (most recent call last):\n  File "gluon/rocket.py", line 1302, in run\n  File "gluon/rocket.py", line 1995, in run_app\n  File "gluon/rocket.py", line 1816, in build_environ\n  File "gluon/rocket.py", line 1382, in read_request_line\nSocketTimeout: Socket timed out before request.\n'
p105
s.