(dp1
S'output'
p2
S"<type 'exceptions.SyntaxError'> No fields to update"
p3
sS'layer'
p4
S'C:\\Users\\Owner\\Desktop\\web2py\\applications\\rideshare\\controllers/default.py'
p5
sS'code'
p6
S'# -*- coding: utf-8 -*-\n# this file is released under public domain and you can use without limitations\n\n#########################################################################\n## This is a samples controller\n## - index is the default action of any application\n## - user is required for authentication and authorization\n## - download is for downloading files uploaded in the db (does streaming)\n## - call exposes all registered services (none by default)\n#########################################################################\n\ndef index():\n    if not request.args:\n        rides = db().select(db.ride.ALL)\n    elif request.args[0] == "1":\n        rides = db().select(db.ride.ALL, orderby=db.ride.destination)\n    elif request.args[0] == "2":\n        rides = db().select(db.ride.ALL, orderby=db.ride.meeting_location)\n    elif request.args[0] == "3":\n        rides = db().select(db.ride.ALL, orderby=db.ride.departure_time)\n    elif request.args[0] == "4":\n        rides = db().select(db.ride.ALL, orderby=db.ride.price)\n    elif request.args[0] == "5":\n        rides = db().select(db.ride.ALL, orderby=db.ride.number_of_seats_open)\n    else:\n        rides = db().select(db.ride.ALL)\n    return dict(ride=rides)\n\n@auth.requires_login()\ndef add():\n    form = SQLFORM(db.ride)\n    if form.process().accepted:\n        redirect(URL(\'index\'))\n    return dict(form=form)\n\n@auth.requires_login()\ndef add_comment():\n    rides = db.ride(request.args[0]) or redirect(URL(\'index\'))\n    form = SQLFORM.factory(\n    Field(\'comment\', \'text\', requires=IS_NOT_EMPTY())\n    )\n    if form.process().accepted:\n        rides.update_record(comment=form.vars.comment) \n        redirect(URL(\'view\', args=[rides.id])) \n    return dict(rides=rides, user_id = auth.user_id, form = form, sesion=session)\n\n@auth.requires_login()\ndef join_ride():\n    user = db.auth_user(auth.user_id) or redirect(URL(\'index\'))\n    ride = db.ride(request.args(0)) or redirect(URL(\'index\'))\n    for u in ride.riders:\n        if( auth.user_id == u.id):\n            session.flash = T("You are already in this ride!")\n            redirect(URL(\'view\', args=[ride.id]))\n\n    if (ride.number_of_seats_open <= 0):\n        session.flash = T("This ride has no open seats!")\n        redirect(URL(\'view\', args=[ride.id]))\n\n    mail.send(str(ride.owner.email),\n      \'UCSC Rideshare automated message\',\n      \'Hello \' + str(ride.owner.first_name)+",\\n"+ " " + str(user.first_name) + " " + str(user.last_name) + \' has requested to join your ride\')\n      \n    session.flash = T(str(ride.owner.email))  \n    ride.riders.append(user)  \n    db.ride[ride.id] = dict(number_of_seats_open = ride.number_of_seats_open - 1)\n    db.ride[ride.id] = dict(riders = ride.riders)\n    redirect(URL(\'view\', args=[ride.id]))\n    return dict()\n\n\n@auth.requires_login()\ndef leave_ride():\n    user = db.auth_user(auth.user_id) or redirect(URL(\'index\'))\n    ride = db.ride(request.args(0)) or redirect(URL(\'index\'))\n    if(ride.owner.id == auth.user_id):\n        session.flash = T("You cannot leave your own ride! Please delete this ride.")\n        redirect(URL(\'view\', args=[ride.id]))\n      \n    ride.riders.remove(user.id)\n    db.ride[ride.id] = dict(number_of_seats_open = ride.number_of_seats_open + 1)\n    db.ride[ride.id] = dict(riders = ride.riders)      \n    redirect(URL(\'view\', args=[ride.id]))\n    return dict()\n\n\ndef kick_rider():\n    user = db.auth_user(request.args(0)) or redirect(URL(\'index\'))\n    session.flash = T("saaaaaaaadddddddddddd")\n    ride = db.ride(request.args(1)) or redirect(URL(\'index\'))\n    if(auth.user_id != ride.owner.id):\n             session.flash = T("You cannot remove people from rides you do not own. Your account has been flagged.")\n             redirect(URL(\'view\', args=[ride.id]))\n    \n    ride.riders.remove(user.id)\n    db.ride[ride.id] = dict(number_of_seats_open = ride.number_of_seats_open + 1)\n    db.ride[ride.id] = dict(riders = ride.riders)\n    session.flash = T("User " + str(user.first_name) + " " + str(user.last_name) + " has been removed from this ride.")\n    redirect(URL(\'view\', args=[ride.id]))\n    return dict()\n             \n        \ndef view():\n    rides = db.ride(request.args[0]) or redirect(URL(\'index\'))\n    return dict(ride=rides, user_id = auth.user_id)\n\n        \n@auth.requires_login()\ndef view_user():\n     user = db.auth_user(request.args[0]) or redirect(URL(\'index\'))\n     return dict(user = user)\n\n\ndef download(): return response.download(request,db)\n\n\n@auth.requires_login()\ndef delete():\n    ride = db.ride(request.args[0]) or redirect(URL(\'index\'))\n    \n    if auth.user_id != ride.owner.id:\n        session.flash = T("You cannot delete other people\'s rides!")\n        redirect(URL(\'index\'))\n        \n    form = SQLFORM.factory(Field(\'Confirm_deletion\', \'boolean\', default=False))\n    if form.process().accepted:\n        db(db.ride.id == request.args[0]).delete()\n        db.commit()\n        session.flash = T(\'The item has been deleted\')\n        redirect(URL(\'index\'))\n    return dict(form=form, ride=ride, user=auth.user)\n\n                            \n@auth.requires_login()\ndef update():\n    record = db.ride(request.args(0)) or redirect(URL(\'index\'))\n    form = SQLFORM(db.ride, record)\n    if form.process().accepted:\n        session.flash = T(\'The item has been updated.\')\n        redirect(URL(\'index\'))\n    return dict(form=form)                \n                                   \n    \ndef user():\n    """\n    exposes:\n    http://..../[app]/default/user/login\n    http://..../[app]/default/user/logout\n    http://..../[app]/default/user/register\n    http://..../[app]/default/user/profile\n    http://..../[app]/default/user/retrieve_password\n    http://..../[app]/default/user/change_password\n    use @auth.requires_login()\n        @auth.requires_membership(\'group name\')\n        @auth.requires_permission(\'read\',\'table name\',record_id)\n    to decorate functions that need access control\n    """\n    return dict(form=auth())\n\n\ndef download():\n    """\n    allows downloading of uploaded files\n    http://..../[app]/default/download/[filename]\n    """\n    return response.download(request,db)\n\n\ndef call():\n    """\n    exposes services. for example:\n    http://..../[app]/default/call/jsonrpc\n    decorate with @services.jsonrpc the functions to expose\n    supports xml, json, xmlrpc, jsonrpc, amfrpc, rss, csv\n    """\n    return service()\n\n\n@auth.requires_signature()\ndef data():\n    """\n    http://..../[app]/default/data/tables\n    http://..../[app]/default/data/create/[table]\n    http://..../[app]/default/data/read/[table]/[id]\n    http://..../[app]/default/data/update/[table]/[id]\n    http://..../[app]/default/data/delete/[table]/[id]\n    http://..../[app]/default/data/select/[table]\n    http://..../[app]/default/data/search/[table]\n    but URLs must be signed, i.e. linked with\n      A(\'table\',_href=URL(\'data/tables\',user_signature=True))\n    or with the signed load operator\n      LOAD(\'default\',\'data.load\',args=\'tables\',ajax=True,user_signature=True)\n    """\n    return dict(form=crud())\n\nresponse._vars=response._caller(add_comment)\n'
p7
sS'snapshot'
p8
(dp9
S'exception'
p10
(dp11
S'__getslice__'
p12
S"<method-wrapper '__getslice__' of exceptions.SyntaxError object>"
p13
sS'text'
p14
S'None'
p15
sS'__str__'
p16
S"<method-wrapper '__str__' of exceptions.SyntaxError object>"
p17
sS'__reduce__'
p18
S'<built-in method __reduce__ of exceptions.SyntaxError object>'
p19
sS'__dict__'
p20
S'{}'
p21
sS'__sizeof__'
p22
S'<built-in method __sizeof__ of exceptions.SyntaxError object>'
p23
sS'__init__'
p24
S"<method-wrapper '__init__' of exceptions.SyntaxError object>"
p25
sS'__setattr__'
p26
S"<method-wrapper '__setattr__' of exceptions.SyntaxError object>"
p27
sS'__reduce_ex__'
p28
S'<built-in method __reduce_ex__ of exceptions.SyntaxError object>'
p29
sS'__new__'
p30
S'<built-in method __new__ of type object>'
p31
sS'__format__'
p32
S'<built-in method __format__ of exceptions.SyntaxError object>'
p33
sS'__class__'
p34
S"<type 'exceptions.SyntaxError'>"
p35
sS'filename'
p36
S'None'
p37
sS'lineno'
p38
S'None'
p39
sS'msg'
p40
S"'No fields to update'"
p41
sS'__doc__'
p42
S"'Invalid syntax.'"
p43
sS'__getitem__'
p44
S"<method-wrapper '__getitem__' of exceptions.SyntaxError object>"
p45
sS'__setstate__'
p46
S'<built-in method __setstate__ of exceptions.SyntaxError object>'
p47
sS'__getattribute__'
p48
S"<method-wrapper '__getattribute__' of exceptions.SyntaxError object>"
p49
sS'print_file_and_line'
p50
S'None'
p51
sS'args'
p52
S"('No fields to update',)"
p53
sS'__subclasshook__'
p54
S'<built-in method __subclasshook__ of type object>'
p55
sS'offset'
p56
S'None'
p57
sS'__unicode__'
p58
S'<built-in method __unicode__ of exceptions.SyntaxError object>'
p59
sS'__delattr__'
p60
S"<method-wrapper '__delattr__' of exceptions.SyntaxError object>"
p61
sS'__repr__'
p62
S"<method-wrapper '__repr__' of exceptions.SyntaxError object>"
p63
sS'__hash__'
p64
S"<method-wrapper '__hash__' of exceptions.SyntaxError object>"
p65
ssS'evalue'
p66
S'No fields to update'
p67
sS'request'
p68
ccopy_reg
_reconstructor
p69
(cgluon.html
BEAUTIFY
p70
c__builtin__
object
p71
NtRp72
(dp73
S'attributes'
p74
(dp75
sS'components'
p76
(lp77
g69
(cgluon.html
TABLE
p78
g71
NtRp79
(dp80
g74
(dp81
S'level'
p82
I5
ssS'parent'
p83
Nsg76
(lp84
g69
(cgluon.html
TR
p85
g71
NtRp86
(dp87
g74
(dp88
sg83
g79
sg76
(lp89
g69
(cgluon.html
TD
p90
g71
NtRp91
(dp92
g74
(dp93
S'_style'
p94
S'font-weight:bold;vertical-align:top'
p95
ssg83
g86
sg76
(lp96
S'ajax'
p97
asbag69
(g90
g71
NtRp98
(dp99
g74
(dp100
S'_valign'
p101
S'top'
p102
ssg83
g86
sg76
(lp103
S':'
asbag69
(g90
g71
NtRp104
(dp105
g74
(dp106
sg83
g86
sg76
(lp107
g69
(g70
g71
NtRp108
(dp109
g74
(dp110
g82
I5
ssg83
g104
sg76
(lp111
S'False'
p112
asbasbasbag69
(g85
g71
NtRp113
(dp114
g74
(dp115
sg83
g79
sg76
(lp116
g69
(g90
g71
NtRp117
(dp118
g74
(dp119
g94
g95
ssg83
g113
sg76
(lp120
S'application'
p121
asbag69
(g90
g71
NtRp122
(dp123
g74
(dp124
g101
g102
ssg83
g113
sg76
(lp125
S':'
asbag69
(g90
g71
NtRp126
(dp127
g74
(dp128
sg83
g113
sg76
(lp129
g69
(g70
g71
NtRp130
(dp131
g74
(dp132
g82
I5
ssg83
g126
sg76
(lp133
S'rideshare'
p134
asbasbasbag69
(g85
g71
NtRp135
(dp136
g74
(dp137
sg83
g79
sg76
(lp138
g69
(g90
g71
NtRp139
(dp140
g74
(dp141
g94
g95
ssg83
g135
sg76
(lp142
g52
asbag69
(g90
g71
NtRp143
(dp144
g74
(dp145
g101
g102
ssg83
g135
sg76
(lp146
S':'
asbag69
(g90
g71
NtRp147
(dp148
g74
(dp149
sg83
g135
sg76
(lp150
g69
(g70
g71
NtRp151
(dp152
g74
(dp153
g82
I5
ssg83
g147
sg76
(lp154
g69
(g78
g71
NtRp155
(dp156
g74
(dp157
g82
I4
ssg83
Nsg76
(lp158
g69
(g85
g71
NtRp159
(dp160
g74
(dp161
sg83
g155
sg76
(lp162
g69
(g90
g71
NtRp163
(dp164
g74
(dp165
sg83
g159
sg76
(lp166
g69
(g70
g71
NtRp167
(dp168
g74
(dp169
g82
I4
ssg83
g163
sg76
(lp170
S'3'
asbasbasbasbasbasbasbag69
(g85
g71
NtRp171
(dp172
g74
(dp173
sg83
g79
sg76
(lp174
g69
(g90
g71
NtRp175
(dp176
g74
(dp177
g94
g95
ssg83
g171
sg76
(lp178
S'body'
p179
asbag69
(g90
g71
NtRp180
(dp181
g74
(dp182
g101
g102
ssg83
g171
sg76
(lp183
S':'
asbag69
(g90
g71
NtRp184
(dp185
g74
(dp186
sg83
g171
sg76
(lp187
g69
(g70
g71
NtRp188
(dp189
g74
(dp190
g82
I5
ssg83
g184
sg76
(lp191
S"<open file '<fdopen>', mode 'w+b' at 0x068BED88>"
p192
asbasbasbag69
(g85
g71
NtRp193
(dp194
g74
(dp195
sg83
g79
sg76
(lp196
g69
(g90
g71
NtRp197
(dp198
g74
(dp199
g94
g95
ssg83
g193
sg76
(lp200
S'cid'
p201
asbag69
(g90
g71
NtRp202
(dp203
g74
(dp204
g101
g102
ssg83
g193
sg76
(lp205
S':'
asbag69
(g90
g71
NtRp206
(dp207
g74
(dp208
sg83
g193
sg76
(lp209
g69
(g70
g71
NtRp210
(dp211
g74
(dp212
g82
I5
ssg83
g206
sg76
(lp213
S'None'
p214
asbasbasbag69
(g85
g71
NtRp215
(dp216
g74
(dp217
sg83
g79
sg76
(lp218
g69
(g90
g71
NtRp219
(dp220
g74
(dp221
g94
g95
ssg83
g215
sg76
(lp222
S'client'
p223
asbag69
(g90
g71
NtRp224
(dp225
g74
(dp226
g101
g102
ssg83
g215
sg76
(lp227
S':'
asbag69
(g90
g71
NtRp228
(dp229
g74
(dp230
sg83
g215
sg76
(lp231
g69
(g70
g71
NtRp232
(dp233
g74
(dp234
g82
I5
ssg83
g228
sg76
(lp235
S'127.0.0.1'
p236
asbasbasbag69
(g85
g71
NtRp237
(dp238
g74
(dp239
sg83
g79
sg76
(lp240
g69
(g90
g71
NtRp241
(dp242
g74
(dp243
g94
g95
ssg83
g237
sg76
(lp244
S'controller'
p245
asbag69
(g90
g71
NtRp246
(dp247
g74
(dp248
g101
g102
ssg83
g237
sg76
(lp249
S':'
asbag69
(g90
g71
NtRp250
(dp251
g74
(dp252
sg83
g237
sg76
(lp253
g69
(g70
g71
NtRp254
(dp255
g74
(dp256
g82
I5
ssg83
g250
sg76
(lp257
S'default'
p258
asbasbasbag69
(g85
g71
NtRp259
(dp260
g74
(dp261
sg83
g79
sg76
(lp262
g69
(g90
g71
NtRp263
(dp264
g74
(dp265
g94
g95
ssg83
g259
sg76
(lp266
S'cookies'
p267
asbag69
(g90
g71
NtRp268
(dp269
g74
(dp270
g101
g102
ssg83
g259
sg76
(lp271
S':'
asbag69
(g90
g71
NtRp272
(dp273
g74
(dp274
sg83
g259
sg76
(lp275
g69
(g70
g71
NtRp276
(dp277
g74
(dp278
g82
I5
ssg83
g272
sg76
(lp279
g69
(g78
g71
NtRp280
(dp281
g74
(dp282
g82
I4
ssg83
Nsg76
(lp283
g69
(g85
g71
NtRp284
(dp285
g74
(dp286
sg83
g280
sg76
(lp287
g69
(g90
g71
NtRp288
(dp289
g74
(dp290
g94
g95
ssg83
g284
sg76
(lp291
S'session_id_admin'
p292
asbag69
(g90
g71
NtRp293
(dp294
g74
(dp295
g101
g102
ssg83
g284
sg76
(lp296
S':'
asbag69
(g90
g71
NtRp297
(dp298
g74
(dp299
sg83
g284
sg76
(lp300
g69
(g70
g71
NtRp301
(dp302
g74
(dp303
g82
I4
ssg83
g297
sg76
(lp304
S'127.0.0.1-4f70e2b1-5bb0-4ebf-987e-4f2631c11c02'
p305
ag69
(g78
g71
NtRp306
(dp307
g74
(dp308
g82
I3
ssg83
Nsg76
(lp309
g69
(g85
g71
NtRp310
(dp311
g74
(dp312
sg83
g306
sg76
(lp313
g69
(g90
g71
NtRp314
(dp315
g74
(dp316
g94
g95
ssg83
g310
sg76
(lp317
S'comment'
p318
asbag69
(g90
g71
NtRp319
(dp320
g74
(dp321
g101
g102
ssg83
g310
sg76
(lp322
S':'
asbag69
(g90
g71
NtRp323
(dp324
g74
(dp325
sg83
g310
sg76
(lp326
g69
(g70
g71
NtRp327
(dp328
g74
(dp329
g82
I3
ssg83
g323
sg76
(lp330
S''
asbasbasbag69
(g85
g71
NtRp331
(dp332
g74
(dp333
sg83
g306
sg76
(lp334
g69
(g90
g71
NtRp335
(dp336
g74
(dp337
g94
g95
ssg83
g331
sg76
(lp338
S'domain'
p339
asbag69
(g90
g71
NtRp340
(dp341
g74
(dp342
g101
g102
ssg83
g331
sg76
(lp343
S':'
asbag69
(g90
g71
NtRp344
(dp345
g74
(dp346
sg83
g331
sg76
(lp347
g69
(g70
g71
NtRp348
(dp349
g74
(dp350
g82
I3
ssg83
g344
sg76
(lp351
S''
asbasbasbag69
(g85
g71
NtRp352
(dp353
g74
(dp354
sg83
g306
sg76
(lp355
g69
(g90
g71
NtRp356
(dp357
g74
(dp358
g94
g95
ssg83
g352
sg76
(lp359
S'expires'
p360
asbag69
(g90
g71
NtRp361
(dp362
g74
(dp363
g101
g102
ssg83
g352
sg76
(lp364
S':'
asbag69
(g90
g71
NtRp365
(dp366
g74
(dp367
sg83
g352
sg76
(lp368
g69
(g70
g71
NtRp369
(dp370
g74
(dp371
g82
I3
ssg83
g365
sg76
(lp372
S''
asbasbasbag69
(g85
g71
NtRp373
(dp374
g74
(dp375
sg83
g306
sg76
(lp376
g69
(g90
g71
NtRp377
(dp378
g74
(dp379
g94
g95
ssg83
g373
sg76
(lp380
S'httponly'
p381
asbag69
(g90
g71
NtRp382
(dp383
g74
(dp384
g101
g102
ssg83
g373
sg76
(lp385
S':'
asbag69
(g90
g71
NtRp386
(dp387
g74
(dp388
sg83
g373
sg76
(lp389
g69
(g70
g71
NtRp390
(dp391
g74
(dp392
g82
I3
ssg83
g386
sg76
(lp393
S''
asbasbasbag69
(g85
g71
NtRp394
(dp395
g74
(dp396
sg83
g306
sg76
(lp397
g69
(g90
g71
NtRp398
(dp399
g74
(dp400
g94
g95
ssg83
g394
sg76
(lp401
S'max-age'
p402
asbag69
(g90
g71
NtRp403
(dp404
g74
(dp405
g101
g102
ssg83
g394
sg76
(lp406
S':'
asbag69
(g90
g71
NtRp407
(dp408
g74
(dp409
sg83
g394
sg76
(lp410
g69
(g70
g71
NtRp411
(dp412
g74
(dp413
g82
I3
ssg83
g407
sg76
(lp414
S''
asbasbasbag69
(g85
g71
NtRp415
(dp416
g74
(dp417
sg83
g306
sg76
(lp418
g69
(g90
g71
NtRp419
(dp420
g74
(dp421
g94
g95
ssg83
g415
sg76
(lp422
S'path'
p423
asbag69
(g90
g71
NtRp424
(dp425
g74
(dp426
g101
g102
ssg83
g415
sg76
(lp427
S':'
asbag69
(g90
g71
NtRp428
(dp429
g74
(dp430
sg83
g415
sg76
(lp431
g69
(g70
g71
NtRp432
(dp433
g74
(dp434
g82
I3
ssg83
g428
sg76
(lp435
S''
asbasbasbag69
(g85
g71
NtRp436
(dp437
g74
(dp438
sg83
g306
sg76
(lp439
g69
(g90
g71
NtRp440
(dp441
g74
(dp442
g94
g95
ssg83
g436
sg76
(lp443
S'secure'
p444
asbag69
(g90
g71
NtRp445
(dp446
g74
(dp447
g101
g102
ssg83
g436
sg76
(lp448
S':'
asbag69
(g90
g71
NtRp449
(dp450
g74
(dp451
sg83
g436
sg76
(lp452
g69
(g70
g71
NtRp453
(dp454
g74
(dp455
g82
I3
ssg83
g449
sg76
(lp456
S''
asbasbasbag69
(g85
g71
NtRp457
(dp458
g74
(dp459
sg83
g306
sg76
(lp460
g69
(g90
g71
NtRp461
(dp462
g74
(dp463
g94
g95
ssg83
g457
sg76
(lp464
S'version'
p465
asbag69
(g90
g71
NtRp466
(dp467
g74
(dp468
g101
g102
ssg83
g457
sg76
(lp469
S':'
asbag69
(g90
g71
NtRp470
(dp471
g74
(dp472
sg83
g457
sg76
(lp473
g69
(g70
g71
NtRp474
(dp475
g74
(dp476
g82
I3
ssg83
g470
sg76
(lp477
S''
asbasbasbasbasbasbasbag69
(g85
g71
NtRp478
(dp479
g74
(dp480
sg83
g280
sg76
(lp481
g69
(g90
g71
NtRp482
(dp483
g74
(dp484
g94
g95
ssg83
g478
sg76
(lp485
S'session_id_fresh_light'
p486
asbag69
(g90
g71
NtRp487
(dp488
g74
(dp489
g101
g102
ssg83
g478
sg76
(lp490
S':'
asbag69
(g90
g71
NtRp491
(dp492
g74
(dp493
sg83
g478
sg76
(lp494
g69
(g70
g71
NtRp495
(dp496
g74
(dp497
g82
I4
ssg83
g491
sg76
(lp498
S'127.0.0.1-abdb80ae-e769-4c7f-b431-193578ef9ec6'
p499
ag69
(g78
g71
NtRp500
(dp501
g74
(dp502
g82
I3
ssg83
Nsg76
(lp503
g69
(g85
g71
NtRp504
(dp505
g74
(dp506
sg83
g500
sg76
(lp507
g69
(g90
g71
NtRp508
(dp509
g74
(dp510
g94
g95
ssg83
g504
sg76
(lp511
g318
asbag69
(g90
g71
NtRp512
(dp513
g74
(dp514
g101
g102
ssg83
g504
sg76
(lp515
S':'
asbag69
(g90
g71
NtRp516
(dp517
g74
(dp518
sg83
g504
sg76
(lp519
g69
(g70
g71
NtRp520
(dp521
g74
(dp522
g82
I3
ssg83
g516
sg76
(lp523
S''
asbasbasbag69
(g85
g71
NtRp524
(dp525
g74
(dp526
sg83
g500
sg76
(lp527
g69
(g90
g71
NtRp528
(dp529
g74
(dp530
g94
g95
ssg83
g524
sg76
(lp531
g339
asbag69
(g90
g71
NtRp532
(dp533
g74
(dp534
g101
g102
ssg83
g524
sg76
(lp535
S':'
asbag69
(g90
g71
NtRp536
(dp537
g74
(dp538
sg83
g524
sg76
(lp539
g69
(g70
g71
NtRp540
(dp541
g74
(dp542
g82
I3
ssg83
g536
sg76
(lp543
S''
asbasbasbag69
(g85
g71
NtRp544
(dp545
g74
(dp546
sg83
g500
sg76
(lp547
g69
(g90
g71
NtRp548
(dp549
g74
(dp550
g94
g95
ssg83
g544
sg76
(lp551
g360
asbag69
(g90
g71
NtRp552
(dp553
g74
(dp554
g101
g102
ssg83
g544
sg76
(lp555
S':'
asbag69
(g90
g71
NtRp556
(dp557
g74
(dp558
sg83
g544
sg76
(lp559
g69
(g70
g71
NtRp560
(dp561
g74
(dp562
g82
I3
ssg83
g556
sg76
(lp563
S''
asbasbasbag69
(g85
g71
NtRp564
(dp565
g74
(dp566
sg83
g500
sg76
(lp567
g69
(g90
g71
NtRp568
(dp569
g74
(dp570
g94
g95
ssg83
g564
sg76
(lp571
g381
asbag69
(g90
g71
NtRp572
(dp573
g74
(dp574
g101
g102
ssg83
g564
sg76
(lp575
S':'
asbag69
(g90
g71
NtRp576
(dp577
g74
(dp578
sg83
g564
sg76
(lp579
g69
(g70
g71
NtRp580
(dp581
g74
(dp582
g82
I3
ssg83
g576
sg76
(lp583
S''
asbasbasbag69
(g85
g71
NtRp584
(dp585
g74
(dp586
sg83
g500
sg76
(lp587
g69
(g90
g71
NtRp588
(dp589
g74
(dp590
g94
g95
ssg83
g584
sg76
(lp591
g402
asbag69
(g90
g71
NtRp592
(dp593
g74
(dp594
g101
g102
ssg83
g584
sg76
(lp595
S':'
asbag69
(g90
g71
NtRp596
(dp597
g74
(dp598
sg83
g584
sg76
(lp599
g69
(g70
g71
NtRp600
(dp601
g74
(dp602
g82
I3
ssg83
g596
sg76
(lp603
S''
asbasbasbag69
(g85
g71
NtRp604
(dp605
g74
(dp606
sg83
g500
sg76
(lp607
g69
(g90
g71
NtRp608
(dp609
g74
(dp610
g94
g95
ssg83
g604
sg76
(lp611
g423
asbag69
(g90
g71
NtRp612
(dp613
g74
(dp614
g101
g102
ssg83
g604
sg76
(lp615
S':'
asbag69
(g90
g71
NtRp616
(dp617
g74
(dp618
sg83
g604
sg76
(lp619
g69
(g70
g71
NtRp620
(dp621
g74
(dp622
g82
I3
ssg83
g616
sg76
(lp623
S''
asbasbasbag69
(g85
g71
NtRp624
(dp625
g74
(dp626
sg83
g500
sg76
(lp627
g69
(g90
g71
NtRp628
(dp629
g74
(dp630
g94
g95
ssg83
g624
sg76
(lp631
g444
asbag69
(g90
g71
NtRp632
(dp633
g74
(dp634
g101
g102
ssg83
g624
sg76
(lp635
S':'
asbag69
(g90
g71
NtRp636
(dp637
g74
(dp638
sg83
g624
sg76
(lp639
g69
(g70
g71
NtRp640
(dp641
g74
(dp642
g82
I3
ssg83
g636
sg76
(lp643
S''
asbasbasbag69
(g85
g71
NtRp644
(dp645
g74
(dp646
sg83
g500
sg76
(lp647
g69
(g90
g71
NtRp648
(dp649
g74
(dp650
g94
g95
ssg83
g644
sg76
(lp651
g465
asbag69
(g90
g71
NtRp652
(dp653
g74
(dp654
g101
g102
ssg83
g644
sg76
(lp655
S':'
asbag69
(g90
g71
NtRp656
(dp657
g74
(dp658
sg83
g644
sg76
(lp659
g69
(g70
g71
NtRp660
(dp661
g74
(dp662
g82
I3
ssg83
g656
sg76
(lp663
S''
asbasbasbasbasbasbasbag69
(g85
g71
NtRp664
(dp665
g74
(dp666
sg83
g280
sg76
(lp667
g69
(g90
g71
NtRp668
(dp669
g74
(dp670
g94
g95
ssg83
g664
sg76
(lp671
S'session_id_rideshare'
p672
asbag69
(g90
g71
NtRp673
(dp674
g74
(dp675
g101
g102
ssg83
g664
sg76
(lp676
S':'
asbag69
(g90
g71
NtRp677
(dp678
g74
(dp679
sg83
g664
sg76
(lp680
g69
(g70
g71
NtRp681
(dp682
g74
(dp683
g82
I4
ssg83
g677
sg76
(lp684
S'127.0.0.1-76981bb4-a11c-4445-975f-4668a2e996ed'
p685
ag69
(g78
g71
NtRp686
(dp687
g74
(dp688
g82
I3
ssg83
Nsg76
(lp689
g69
(g85
g71
NtRp690
(dp691
g74
(dp692
sg83
g686
sg76
(lp693
g69
(g90
g71
NtRp694
(dp695
g74
(dp696
g94
g95
ssg83
g690
sg76
(lp697
g318
asbag69
(g90
g71
NtRp698
(dp699
g74
(dp700
g101
g102
ssg83
g690
sg76
(lp701
S':'
asbag69
(g90
g71
NtRp702
(dp703
g74
(dp704
sg83
g690
sg76
(lp705
g69
(g70
g71
NtRp706
(dp707
g74
(dp708
g82
I3
ssg83
g702
sg76
(lp709
S''
asbasbasbag69
(g85
g71
NtRp710
(dp711
g74
(dp712
sg83
g686
sg76
(lp713
g69
(g90
g71
NtRp714
(dp715
g74
(dp716
g94
g95
ssg83
g710
sg76
(lp717
g339
asbag69
(g90
g71
NtRp718
(dp719
g74
(dp720
g101
g102
ssg83
g710
sg76
(lp721
S':'
asbag69
(g90
g71
NtRp722
(dp723
g74
(dp724
sg83
g710
sg76
(lp725
g69
(g70
g71
NtRp726
(dp727
g74
(dp728
g82
I3
ssg83
g722
sg76
(lp729
S''
asbasbasbag69
(g85
g71
NtRp730
(dp731
g74
(dp732
sg83
g686
sg76
(lp733
g69
(g90
g71
NtRp734
(dp735
g74
(dp736
g94
g95
ssg83
g730
sg76
(lp737
g360
asbag69
(g90
g71
NtRp738
(dp739
g74
(dp740
g101
g102
ssg83
g730
sg76
(lp741
S':'
asbag69
(g90
g71
NtRp742
(dp743
g74
(dp744
sg83
g730
sg76
(lp745
g69
(g70
g71
NtRp746
(dp747
g74
(dp748
g82
I3
ssg83
g742
sg76
(lp749
S''
asbasbasbag69
(g85
g71
NtRp750
(dp751
g74
(dp752
sg83
g686
sg76
(lp753
g69
(g90
g71
NtRp754
(dp755
g74
(dp756
g94
g95
ssg83
g750
sg76
(lp757
g381
asbag69
(g90
g71
NtRp758
(dp759
g74
(dp760
g101
g102
ssg83
g750
sg76
(lp761
S':'
asbag69
(g90
g71
NtRp762
(dp763
g74
(dp764
sg83
g750
sg76
(lp765
g69
(g70
g71
NtRp766
(dp767
g74
(dp768
g82
I3
ssg83
g762
sg76
(lp769
S''
asbasbasbag69
(g85
g71
NtRp770
(dp771
g74
(dp772
sg83
g686
sg76
(lp773
g69
(g90
g71
NtRp774
(dp775
g74
(dp776
g94
g95
ssg83
g770
sg76
(lp777
g402
asbag69
(g90
g71
NtRp778
(dp779
g74
(dp780
g101
g102
ssg83
g770
sg76
(lp781
S':'
asbag69
(g90
g71
NtRp782
(dp783
g74
(dp784
sg83
g770
sg76
(lp785
g69
(g70
g71
NtRp786
(dp787
g74
(dp788
g82
I3
ssg83
g782
sg76
(lp789
S''
asbasbasbag69
(g85
g71
NtRp790
(dp791
g74
(dp792
sg83
g686
sg76
(lp793
g69
(g90
g71
NtRp794
(dp795
g74
(dp796
g94
g95
ssg83
g790
sg76
(lp797
g423
asbag69
(g90
g71
NtRp798
(dp799
g74
(dp800
g101
g102
ssg83
g790
sg76
(lp801
S':'
asbag69
(g90
g71
NtRp802
(dp803
g74
(dp804
sg83
g790
sg76
(lp805
g69
(g70
g71
NtRp806
(dp807
g74
(dp808
g82
I3
ssg83
g802
sg76
(lp809
S''
asbasbasbag69
(g85
g71
NtRp810
(dp811
g74
(dp812
sg83
g686
sg76
(lp813
g69
(g90
g71
NtRp814
(dp815
g74
(dp816
g94
g95
ssg83
g810
sg76
(lp817
g444
asbag69
(g90
g71
NtRp818
(dp819
g74
(dp820
g101
g102
ssg83
g810
sg76
(lp821
S':'
asbag69
(g90
g71
NtRp822
(dp823
g74
(dp824
sg83
g810
sg76
(lp825
g69
(g70
g71
NtRp826
(dp827
g74
(dp828
g82
I3
ssg83
g822
sg76
(lp829
S''
asbasbasbag69
(g85
g71
NtRp830
(dp831
g74
(dp832
sg83
g686
sg76
(lp833
g69
(g90
g71
NtRp834
(dp835
g74
(dp836
g94
g95
ssg83
g830
sg76
(lp837
g465
asbag69
(g90
g71
NtRp838
(dp839
g74
(dp840
g101
g102
ssg83
g830
sg76
(lp841
S':'
asbag69
(g90
g71
NtRp842
(dp843
g74
(dp844
sg83
g830
sg76
(lp845
g69
(g70
g71
NtRp846
(dp847
g74
(dp848
g82
I3
ssg83
g842
sg76
(lp849
S''
asbasbasbasbasbasbasbag69
(g85
g71
NtRp850
(dp851
g74
(dp852
sg83
g280
sg76
(lp853
g69
(g90
g71
NtRp854
(dp855
g74
(dp856
g94
g95
ssg83
g850
sg76
(lp857
S'session_id_ridesharetest'
p858
asbag69
(g90
g71
NtRp859
(dp860
g74
(dp861
g101
g102
ssg83
g850
sg76
(lp862
S':'
asbag69
(g90
g71
NtRp863
(dp864
g74
(dp865
sg83
g850
sg76
(lp866
g69
(g70
g71
NtRp867
(dp868
g74
(dp869
g82
I4
ssg83
g863
sg76
(lp870
S'127.0.0.1-1b82f8e9-8437-46f1-a88e-d1a82c8a726d'
p871
ag69
(g78
g71
NtRp872
(dp873
g74
(dp874
g82
I3
ssg83
Nsg76
(lp875
g69
(g85
g71
NtRp876
(dp877
g74
(dp878
sg83
g872
sg76
(lp879
g69
(g90
g71
NtRp880
(dp881
g74
(dp882
g94
g95
ssg83
g876
sg76
(lp883
g318
asbag69
(g90
g71
NtRp884
(dp885
g74
(dp886
g101
g102
ssg83
g876
sg76
(lp887
S':'
asbag69
(g90
g71
NtRp888
(dp889
g74
(dp890
sg83
g876
sg76
(lp891
g69
(g70
g71
NtRp892
(dp893
g74
(dp894
g82
I3
ssg83
g888
sg76
(lp895
S''
asbasbasbag69
(g85
g71
NtRp896
(dp897
g74
(dp898
sg83
g872
sg76
(lp899
g69
(g90
g71
NtRp900
(dp901
g74
(dp902
g94
g95
ssg83
g896
sg76
(lp903
g339
asbag69
(g90
g71
NtRp904
(dp905
g74
(dp906
g101
g102
ssg83
g896
sg76
(lp907
S':'
asbag69
(g90
g71
NtRp908
(dp909
g74
(dp910
sg83
g896
sg76
(lp911
g69
(g70
g71
NtRp912
(dp913
g74
(dp914
g82
I3
ssg83
g908
sg76
(lp915
S''
asbasbasbag69
(g85
g71
NtRp916
(dp917
g74
(dp918
sg83
g872
sg76
(lp919
g69
(g90
g71
NtRp920
(dp921
g74
(dp922
g94
g95
ssg83
g916
sg76
(lp923
g360
asbag69
(g90
g71
NtRp924
(dp925
g74
(dp926
g101
g102
ssg83
g916
sg76
(lp927
S':'
asbag69
(g90
g71
NtRp928
(dp929
g74
(dp930
sg83
g916
sg76
(lp931
g69
(g70
g71
NtRp932
(dp933
g74
(dp934
g82
I3
ssg83
g928
sg76
(lp935
S''
asbasbasbag69
(g85
g71
NtRp936
(dp937
g74
(dp938
sg83
g872
sg76
(lp939
g69
(g90
g71
NtRp940
(dp941
g74
(dp942
g94
g95
ssg83
g936
sg76
(lp943
g381
asbag69
(g90
g71
NtRp944
(dp945
g74
(dp946
g101
g102
ssg83
g936
sg76
(lp947
S':'
asbag69
(g90
g71
NtRp948
(dp949
g74
(dp950
sg83
g936
sg76
(lp951
g69
(g70
g71
NtRp952
(dp953
g74
(dp954
g82
I3
ssg83
g948
sg76
(lp955
S''
asbasbasbag69
(g85
g71
NtRp956
(dp957
g74
(dp958
sg83
g872
sg76
(lp959
g69
(g90
g71
NtRp960
(dp961
g74
(dp962
g94
g95
ssg83
g956
sg76
(lp963
g402
asbag69
(g90
g71
NtRp964
(dp965
g74
(dp966
g101
g102
ssg83
g956
sg76
(lp967
S':'
asbag69
(g90
g71
NtRp968
(dp969
g74
(dp970
sg83
g956
sg76
(lp971
g69
(g70
g71
NtRp972
(dp973
g74
(dp974
g82
I3
ssg83
g968
sg76
(lp975
S''
asbasbasbag69
(g85
g71
NtRp976
(dp977
g74
(dp978
sg83
g872
sg76
(lp979
g69
(g90
g71
NtRp980
(dp981
g74
(dp982
g94
g95
ssg83
g976
sg76
(lp983
g423
asbag69
(g90
g71
NtRp984
(dp985
g74
(dp986
g101
g102
ssg83
g976
sg76
(lp987
S':'
asbag69
(g90
g71
NtRp988
(dp989
g74
(dp990
sg83
g976
sg76
(lp991
g69
(g70
g71
NtRp992
(dp993
g74
(dp994
g82
I3
ssg83
g988
sg76
(lp995
S''
asbasbasbag69
(g85
g71
NtRp996
(dp997
g74
(dp998
sg83
g872
sg76
(lp999
g69
(g90
g71
NtRp1000
(dp1001
g74
(dp1002
g94
g95
ssg83
g996
sg76
(lp1003
g444
asbag69
(g90
g71
NtRp1004
(dp1005
g74
(dp1006
g101
g102
ssg83
g996
sg76
(lp1007
S':'
asbag69
(g90
g71
NtRp1008
(dp1009
g74
(dp1010
sg83
g996
sg76
(lp1011
g69
(g70
g71
NtRp1012
(dp1013
g74
(dp1014
g82
I3
ssg83
g1008
sg76
(lp1015
S''
asbasbasbag69
(g85
g71
NtRp1016
(dp1017
g74
(dp1018
sg83
g872
sg76
(lp1019
g69
(g90
g71
NtRp1020
(dp1021
g74
(dp1022
g94
g95
ssg83
g1016
sg76
(lp1023
g465
asbag69
(g90
g71
NtRp1024
(dp1025
g74
(dp1026
g101
g102
ssg83
g1016
sg76
(lp1027
S':'
asbag69
(g90
g71
NtRp1028
(dp1029
g74
(dp1030
sg83
g1016
sg76
(lp1031
g69
(g70
g71
NtRp1032
(dp1033
g74
(dp1034
g82
I3
ssg83
g1028
sg76
(lp1035
S''
asbasbasbasbasbasbasbag69
(g85
g71
NtRp1036
(dp1037
g74
(dp1038
sg83
g280
sg76
(lp1039
g69
(g90
g71
NtRp1040
(dp1041
g74
(dp1042
g94
g95
ssg83
g1036
sg76
(lp1043
S'session_id_rsharetest'
p1044
asbag69
(g90
g71
NtRp1045
(dp1046
g74
(dp1047
g101
g102
ssg83
g1036
sg76
(lp1048
S':'
asbag69
(g90
g71
NtRp1049
(dp1050
g74
(dp1051
sg83
g1036
sg76
(lp1052
g69
(g70
g71
NtRp1053
(dp1054
g74
(dp1055
g82
I4
ssg83
g1049
sg76
(lp1056
S'127.0.0.1-17db44d3-6c70-47f0-9d72-ece020d9a50a'
p1057
ag69
(g78
g71
NtRp1058
(dp1059
g74
(dp1060
g82
I3
ssg83
Nsg76
(lp1061
g69
(g85
g71
NtRp1062
(dp1063
g74
(dp1064
sg83
g1058
sg76
(lp1065
g69
(g90
g71
NtRp1066
(dp1067
g74
(dp1068
g94
g95
ssg83
g1062
sg76
(lp1069
g318
asbag69
(g90
g71
NtRp1070
(dp1071
g74
(dp1072
g101
g102
ssg83
g1062
sg76
(lp1073
S':'
asbag69
(g90
g71
NtRp1074
(dp1075
g74
(dp1076
sg83
g1062
sg76
(lp1077
g69
(g70
g71
NtRp1078
(dp1079
g74
(dp1080
g82
I3
ssg83
g1074
sg76
(lp1081
S''
asbasbasbag69
(g85
g71
NtRp1082
(dp1083
g74
(dp1084
sg83
g1058
sg76
(lp1085
g69
(g90
g71
NtRp1086
(dp1087
g74
(dp1088
g94
g95
ssg83
g1082
sg76
(lp1089
g339
asbag69
(g90
g71
NtRp1090
(dp1091
g74
(dp1092
g101
g102
ssg83
g1082
sg76
(lp1093
S':'
asbag69
(g90
g71
NtRp1094
(dp1095
g74
(dp1096
sg83
g1082
sg76
(lp1097
g69
(g70
g71
NtRp1098
(dp1099
g74
(dp1100
g82
I3
ssg83
g1094
sg76
(lp1101
S''
asbasbasbag69
(g85
g71
NtRp1102
(dp1103
g74
(dp1104
sg83
g1058
sg76
(lp1105
g69
(g90
g71
NtRp1106
(dp1107
g74
(dp1108
g94
g95
ssg83
g1102
sg76
(lp1109
g360
asbag69
(g90
g71
NtRp1110
(dp1111
g74
(dp1112
g101
g102
ssg83
g1102
sg76
(lp1113
S':'
asbag69
(g90
g71
NtRp1114
(dp1115
g74
(dp1116
sg83
g1102
sg76
(lp1117
g69
(g70
g71
NtRp1118
(dp1119
g74
(dp1120
g82
I3
ssg83
g1114
sg76
(lp1121
S''
asbasbasbag69
(g85
g71
NtRp1122
(dp1123
g74
(dp1124
sg83
g1058
sg76
(lp1125
g69
(g90
g71
NtRp1126
(dp1127
g74
(dp1128
g94
g95
ssg83
g1122
sg76
(lp1129
g381
asbag69
(g90
g71
NtRp1130
(dp1131
g74
(dp1132
g101
g102
ssg83
g1122
sg76
(lp1133
S':'
asbag69
(g90
g71
NtRp1134
(dp1135
g74
(dp1136
sg83
g1122
sg76
(lp1137
g69
(g70
g71
NtRp1138
(dp1139
g74
(dp1140
g82
I3
ssg83
g1134
sg76
(lp1141
S''
asbasbasbag69
(g85
g71
NtRp1142
(dp1143
g74
(dp1144
sg83
g1058
sg76
(lp1145
g69
(g90
g71
NtRp1146
(dp1147
g74
(dp1148
g94
g95
ssg83
g1142
sg76
(lp1149
g402
asbag69
(g90
g71
NtRp1150
(dp1151
g74
(dp1152
g101
g102
ssg83
g1142
sg76
(lp1153
S':'
asbag69
(g90
g71
NtRp1154
(dp1155
g74
(dp1156
sg83
g1142
sg76
(lp1157
g69
(g70
g71
NtRp1158
(dp1159
g74
(dp1160
g82
I3
ssg83
g1154
sg76
(lp1161
S''
asbasbasbag69
(g85
g71
NtRp1162
(dp1163
g74
(dp1164
sg83
g1058
sg76
(lp1165
g69
(g90
g71
NtRp1166
(dp1167
g74
(dp1168
g94
g95
ssg83
g1162
sg76
(lp1169
g423
asbag69
(g90
g71
NtRp1170
(dp1171
g74
(dp1172
g101
g102
ssg83
g1162
sg76
(lp1173
S':'
asbag69
(g90
g71
NtRp1174
(dp1175
g74
(dp1176
sg83
g1162
sg76
(lp1177
g69
(g70
g71
NtRp1178
(dp1179
g74
(dp1180
g82
I3
ssg83
g1174
sg76
(lp1181
S''
asbasbasbag69
(g85
g71
NtRp1182
(dp1183
g74
(dp1184
sg83
g1058
sg76
(lp1185
g69
(g90
g71
NtRp1186
(dp1187
g74
(dp1188
g94
g95
ssg83
g1182
sg76
(lp1189
g444
asbag69
(g90
g71
NtRp1190
(dp1191
g74
(dp1192
g101
g102
ssg83
g1182
sg76
(lp1193
S':'
asbag69
(g90
g71
NtRp1194
(dp1195
g74
(dp1196
sg83
g1182
sg76
(lp1197
g69
(g70
g71
NtRp1198
(dp1199
g74
(dp1200
g82
I3
ssg83
g1194
sg76
(lp1201
S''
asbasbasbag69
(g85
g71
NtRp1202
(dp1203
g74
(dp1204
sg83
g1058
sg76
(lp1205
g69
(g90
g71
NtRp1206
(dp1207
g74
(dp1208
g94
g95
ssg83
g1202
sg76
(lp1209
g465
asbag69
(g90
g71
NtRp1210
(dp1211
g74
(dp1212
g101
g102
ssg83
g1202
sg76
(lp1213
S':'
asbag69
(g90
g71
NtRp1214
(dp1215
g74
(dp1216
sg83
g1202
sg76
(lp1217
g69
(g70
g71
NtRp1218
(dp1219
g74
(dp1220
g82
I3
ssg83
g1214
sg76
(lp1221
S''
asbasbasbasbasbasbasbag69
(g85
g71
NtRp1222
(dp1223
g74
(dp1224
sg83
g280
sg76
(lp1225
g69
(g90
g71
NtRp1226
(dp1227
g74
(dp1228
g94
g95
ssg83
g1222
sg76
(lp1229
S'session_id_welcome'
p1230
asbag69
(g90
g71
NtRp1231
(dp1232
g74
(dp1233
g101
g102
ssg83
g1222
sg76
(lp1234
S':'
asbag69
(g90
g71
NtRp1235
(dp1236
g74
(dp1237
sg83
g1222
sg76
(lp1238
g69
(g70
g71
NtRp1239
(dp1240
g74
(dp1241
g82
I4
ssg83
g1235
sg76
(lp1242
S'127.0.0.1-e8eea386-4697-4b76-ab09-0a0be6604008'
p1243
ag69
(g78
g71
NtRp1244
(dp1245
g74
(dp1246
g82
I3
ssg83
Nsg76
(lp1247
g69
(g85
g71
NtRp1248
(dp1249
g74
(dp1250
sg83
g1244
sg76
(lp1251
g69
(g90
g71
NtRp1252
(dp1253
g74
(dp1254
g94
g95
ssg83
g1248
sg76
(lp1255
g318
asbag69
(g90
g71
NtRp1256
(dp1257
g74
(dp1258
g101
g102
ssg83
g1248
sg76
(lp1259
S':'
asbag69
(g90
g71
NtRp1260
(dp1261
g74
(dp1262
sg83
g1248
sg76
(lp1263
g69
(g70
g71
NtRp1264
(dp1265
g74
(dp1266
g82
I3
ssg83
g1260
sg76
(lp1267
S''
asbasbasbag69
(g85
g71
NtRp1268
(dp1269
g74
(dp1270
sg83
g1244
sg76
(lp1271
g69
(g90
g71
NtRp1272
(dp1273
g74
(dp1274
g94
g95
ssg83
g1268
sg76
(lp1275
g339
asbag69
(g90
g71
NtRp1276
(dp1277
g74
(dp1278
g101
g102
ssg83
g1268
sg76
(lp1279
S':'
asbag69
(g90
g71
NtRp1280
(dp1281
g74
(dp1282
sg83
g1268
sg76
(lp1283
g69
(g70
g71
NtRp1284
(dp1285
g74
(dp1286
g82
I3
ssg83
g1280
sg76
(lp1287
S''
asbasbasbag69
(g85
g71
NtRp1288
(dp1289
g74
(dp1290
sg83
g1244
sg76
(lp1291
g69
(g90
g71
NtRp1292
(dp1293
g74
(dp1294
g94
g95
ssg83
g1288
sg76
(lp1295
g360
asbag69
(g90
g71
NtRp1296
(dp1297
g74
(dp1298
g101
g102
ssg83
g1288
sg76
(lp1299
S':'
asbag69
(g90
g71
NtRp1300
(dp1301
g74
(dp1302
sg83
g1288
sg76
(lp1303
g69
(g70
g71
NtRp1304
(dp1305
g74
(dp1306
g82
I3
ssg83
g1300
sg76
(lp1307
S''
asbasbasbag69
(g85
g71
NtRp1308
(dp1309
g74
(dp1310
sg83
g1244
sg76
(lp1311
g69
(g90
g71
NtRp1312
(dp1313
g74
(dp1314
g94
g95
ssg83
g1308
sg76
(lp1315
g381
asbag69
(g90
g71
NtRp1316
(dp1317
g74
(dp1318
g101
g102
ssg83
g1308
sg76
(lp1319
S':'
asbag69
(g90
g71
NtRp1320
(dp1321
g74
(dp1322
sg83
g1308
sg76
(lp1323
g69
(g70
g71
NtRp1324
(dp1325
g74
(dp1326
g82
I3
ssg83
g1320
sg76
(lp1327
S''
asbasbasbag69
(g85
g71
NtRp1328
(dp1329
g74
(dp1330
sg83
g1244
sg76
(lp1331
g69
(g90
g71
NtRp1332
(dp1333
g74
(dp1334
g94
g95
ssg83
g1328
sg76
(lp1335
g402
asbag69
(g90
g71
NtRp1336
(dp1337
g74
(dp1338
g101
g102
ssg83
g1328
sg76
(lp1339
S':'
asbag69
(g90
g71
NtRp1340
(dp1341
g74
(dp1342
sg83
g1328
sg76
(lp1343
g69
(g70
g71
NtRp1344
(dp1345
g74
(dp1346
g82
I3
ssg83
g1340
sg76
(lp1347
S''
asbasbasbag69
(g85
g71
NtRp1348
(dp1349
g74
(dp1350
sg83
g1244
sg76
(lp1351
g69
(g90
g71
NtRp1352
(dp1353
g74
(dp1354
g94
g95
ssg83
g1348
sg76
(lp1355
g423
asbag69
(g90
g71
NtRp1356
(dp1357
g74
(dp1358
g101
g102
ssg83
g1348
sg76
(lp1359
S':'
asbag69
(g90
g71
NtRp1360
(dp1361
g74
(dp1362
sg83
g1348
sg76
(lp1363
g69
(g70
g71
NtRp1364
(dp1365
g74
(dp1366
g82
I3
ssg83
g1360
sg76
(lp1367
S''
asbasbasbag69
(g85
g71
NtRp1368
(dp1369
g74
(dp1370
sg83
g1244
sg76
(lp1371
g69
(g90
g71
NtRp1372
(dp1373
g74
(dp1374
g94
g95
ssg83
g1368
sg76
(lp1375
g444
asbag69
(g90
g71
NtRp1376
(dp1377
g74
(dp1378
g101
g102
ssg83
g1368
sg76
(lp1379
S':'
asbag69
(g90
g71
NtRp1380
(dp1381
g74
(dp1382
sg83
g1368
sg76
(lp1383
g69
(g70
g71
NtRp1384
(dp1385
g74
(dp1386
g82
I3
ssg83
g1380
sg76
(lp1387
S''
asbasbasbag69
(g85
g71
NtRp1388
(dp1389
g74
(dp1390
sg83
g1244
sg76
(lp1391
g69
(g90
g71
NtRp1392
(dp1393
g74
(dp1394
g94
g95
ssg83
g1388
sg76
(lp1395
g465
asbag69
(g90
g71
NtRp1396
(dp1397
g74
(dp1398
g101
g102
ssg83
g1388
sg76
(lp1399
S':'
asbag69
(g90
g71
NtRp1400
(dp1401
g74
(dp1402
sg83
g1388
sg76
(lp1403
g69
(g70
g71
NtRp1404
(dp1405
g74
(dp1406
g82
I3
ssg83
g1400
sg76
(lp1407
S''
asbasbasbasbasbasbasbasbasbasbasbag69
(g85
g71
NtRp1408
(dp1409
g74
(dp1410
sg83
g79
sg76
(lp1411
g69
(g90
g71
NtRp1412
(dp1413
g74
(dp1414
g94
g95
ssg83
g1408
sg76
(lp1415
S'env'
p1416
asbag69
(g90
g71
NtRp1417
(dp1418
g74
(dp1419
g101
g102
ssg83
g1408
sg76
(lp1420
S':'
asbag69
(g90
g71
NtRp1421
(dp1422
g74
(dp1423
sg83
g1408
sg76
(lp1424
g69
(g70
g71
NtRp1425
(dp1426
g74
(dp1427
g82
I5
ssg83
g1421
sg76
(lp1428
g69
(g78
g71
NtRp1429
(dp1430
g74
(dp1431
g82
I4
ssg83
Nsg76
(lp1432
g69
(g85
g71
NtRp1433
(dp1434
g74
(dp1435
sg83
g1429
sg76
(lp1436
g69
(g90
g71
NtRp1437
(dp1438
g74
(dp1439
g94
g95
ssg83
g1433
sg76
(lp1440
S'app_folders'
p1441
asbag69
(g90
g71
NtRp1442
(dp1443
g74
(dp1444
g101
g102
ssg83
g1433
sg76
(lp1445
S':'
asbag69
(g90
g71
NtRp1446
(dp1447
g74
(dp1448
sg83
g1433
sg76
(lp1449
g69
(g70
g71
NtRp1450
(dp1451
g74
(dp1452
g82
I4
ssg83
g1446
sg76
(lp1453
S"set(['C:\\\\Users\\\\Owner\\\\Desktop\\\\web2py\\\\applications\\\\rideshare\\\\', 'C:\\\\Users\\\\Owner\\\\Desktop\\\\web2py\\\\applications\\\\admin\\\\', 'C:\\\\Users\\\\Owner\\\\Desktop\\\\web2py\\\\applications\\\\welcome\\\\'])"
p1454
asbasbasbag69
(g85
g71
NtRp1455
(dp1456
g74
(dp1457
sg83
g1429
sg76
(lp1458
g69
(g90
g71
NtRp1459
(dp1460
g74
(dp1461
g94
g95
ssg83
g1455
sg76
(lp1462
S'applications_parent'
p1463
asbag69
(g90
g71
NtRp1464
(dp1465
g74
(dp1466
g101
g102
ssg83
g1455
sg76
(lp1467
S':'
asbag69
(g90
g71
NtRp1468
(dp1469
g74
(dp1470
sg83
g1455
sg76
(lp1471
g69
(g70
g71
NtRp1472
(dp1473
g74
(dp1474
g82
I4
ssg83
g1468
sg76
(lp1475
S'C:\\Users\\Owner\\Desktop\\web2py'
p1476
asbasbasbag69
(g85
g71
NtRp1477
(dp1478
g74
(dp1479
sg83
g1429
sg76
(lp1480
g69
(g90
g71
NtRp1481
(dp1482
g74
(dp1483
g94
g95
ssg83
g1477
sg76
(lp1484
S'cmd_args'
p1485
asbag69
(g90
g71
NtRp1486
(dp1487
g74
(dp1488
g101
g102
ssg83
g1477
sg76
(lp1489
S':'
asbag69
(g90
g71
NtRp1490
(dp1491
g74
(dp1492
sg83
g1477
sg76
(lp1493
g69
(g70
g71
NtRp1494
(dp1495
g74
(dp1496
g82
I4
ssg83
g1490
sg76
(lp1497
g69
(g78
g71
NtRp1498
(dp1499
g74
(dp1500
g82
I3
ssg83
Nsg76
(lp1501
sbasbasbasbag69
(g85
g71
NtRp1502
(dp1503
g74
(dp1504
sg83
g1429
sg76
(lp1505
g69
(g90
g71
NtRp1506
(dp1507
g74
(dp1508
g94
g95
ssg83
g1502
sg76
(lp1509
S'cmd_options'
p1510
asbag69
(g90
g71
NtRp1511
(dp1512
g74
(dp1513
g101
g102
ssg83
g1502
sg76
(lp1514
S':'
asbag69
(g90
g71
NtRp1515
(dp1516
g74
(dp1517
sg83
g1502
sg76
(lp1518
g69
(g70
g71
NtRp1519
(dp1520
g74
(dp1521
g82
I4
ssg83
g1515
sg76
(lp1522
S"<Values at 0x2bc9030: {'verbose': False, 'ip': '127.0.0.1', 'with_scheduler': False, 'ips': [], 'shutdown_timeout': 5, 'taskbar': False, 'port': 8000, 'maxthreads': None, 'softcron': False, 'server_name': 'Owner-PC', 'bpython': False, 'nogui': False, 'nocron': False, 'extcron': False, 'run_system_tests': False, 'test': None, 'folder': 'C:\\\\Users\\\\Owner\\\\Desktop\\\\web2py', 'config': '', 'import_models': False, 'winservice': '', 'shell': None, 'run': '', 'log_filename': 'httpserver.log', 'debuglevel': 30, 'args': [''], 'socket_timeout': 5, 'ssl_ca_certificate': None, 'scheduler': None, 'profiler_filename': None, 'ssl_private_key': '', 'scheduler_groups': None, 'password': '<ask>', 'request_queue_size': 5, 'ssl_certificate': '', 'cronjob': False, 'numthreads': None, 'quiet': False, 'interfaces': None, 'minthreads': None, 'timeout': 10, 'plain': False, 'nobanner': False, 'pid_filename': 'httpserver.pid'}>"
p1523
asbasbasbag69
(g85
g71
NtRp1524
(dp1525
g74
(dp1526
sg83
g1429
sg76
(lp1527
g69
(g90
g71
NtRp1528
(dp1529
g74
(dp1530
g94
g95
ssg83
g1524
sg76
(lp1531
S'content_length'
p1532
asbag69
(g90
g71
NtRp1533
(dp1534
g74
(dp1535
g101
g102
ssg83
g1524
sg76
(lp1536
S':'
asbag69
(g90
g71
NtRp1537
(dp1538
g74
(dp1539
sg83
g1524
sg76
(lp1540
g69
(g70
g71
NtRp1541
(dp1542
g74
(dp1543
g82
I4
ssg83
g1537
sg76
(lp1544
S'395'
p1545
asbasbasbag69
(g85
g71
NtRp1546
(dp1547
g74
(dp1548
sg83
g1429
sg76
(lp1549
g69
(g90
g71
NtRp1550
(dp1551
g74
(dp1552
g94
g95
ssg83
g1546
sg76
(lp1553
S'content_type'
p1554
asbag69
(g90
g71
NtRp1555
(dp1556
g74
(dp1557
g101
g102
ssg83
g1546
sg76
(lp1558
S':'
asbag69
(g90
g71
NtRp1559
(dp1560
g74
(dp1561
sg83
g1546
sg76
(lp1562
g69
(g70
g71
NtRp1563
(dp1564
g74
(dp1565
g82
I4
ssg83
g1559
sg76
(lp1566
S'multipart/form-data; boundary=---------------------------9930139772306'
p1567
asbasbasbag69
(g85
g71
NtRp1568
(dp1569
g74
(dp1570
sg83
g1429
sg76
(lp1571
g69
(g90
g71
NtRp1572
(dp1573
g74
(dp1574
g94
g95
ssg83
g1568
sg76
(lp1575
S'db_sessions'
p1576
asbag69
(g90
g71
NtRp1577
(dp1578
g74
(dp1579
g101
g102
ssg83
g1568
sg76
(lp1580
S':'
asbag69
(g90
g71
NtRp1581
(dp1582
g74
(dp1583
sg83
g1568
sg76
(lp1584
g69
(g70
g71
NtRp1585
(dp1586
g74
(dp1587
g82
I4
ssg83
g1581
sg76
(lp1588
S'set([])'
p1589
asbasbasbag69
(g85
g71
NtRp1590
(dp1591
g74
(dp1592
sg83
g1429
sg76
(lp1593
g69
(g90
g71
NtRp1594
(dp1595
g74
(dp1596
g94
g95
ssg83
g1590
sg76
(lp1597
S'debugging'
p1598
asbag69
(g90
g71
NtRp1599
(dp1600
g74
(dp1601
g101
g102
ssg83
g1590
sg76
(lp1602
S':'
asbag69
(g90
g71
NtRp1603
(dp1604
g74
(dp1605
sg83
g1590
sg76
(lp1606
g69
(g70
g71
NtRp1607
(dp1608
g74
(dp1609
g82
I4
ssg83
g1603
sg76
(lp1610
g112
asbasbasbag69
(g85
g71
NtRp1611
(dp1612
g74
(dp1613
sg83
g1429
sg76
(lp1614
g69
(g90
g71
NtRp1615
(dp1616
g74
(dp1617
g94
g95
ssg83
g1611
sg76
(lp1618
S'gluon_parent'
p1619
asbag69
(g90
g71
NtRp1620
(dp1621
g74
(dp1622
g101
g102
ssg83
g1611
sg76
(lp1623
S':'
asbag69
(g90
g71
NtRp1624
(dp1625
g74
(dp1626
sg83
g1611
sg76
(lp1627
g69
(g70
g71
NtRp1628
(dp1629
g74
(dp1630
g82
I4
ssg83
g1624
sg76
(lp1631
S'C:\\Users\\Owner\\Desktop\\web2py'
p1632
asbasbasbag69
(g85
g71
NtRp1633
(dp1634
g74
(dp1635
sg83
g1429
sg76
(lp1636
g69
(g90
g71
NtRp1637
(dp1638
g74
(dp1639
g94
g95
ssg83
g1633
sg76
(lp1640
S'http_accept'
p1641
asbag69
(g90
g71
NtRp1642
(dp1643
g74
(dp1644
g101
g102
ssg83
g1633
sg76
(lp1645
S':'
asbag69
(g90
g71
NtRp1646
(dp1647
g74
(dp1648
sg83
g1633
sg76
(lp1649
g69
(g70
g71
NtRp1650
(dp1651
g74
(dp1652
g82
I4
ssg83
g1646
sg76
(lp1653
S'text/html,application/xhtml+xml,application/xml;q=0.9,*/*;q=0.8'
p1654
asbasbasbag69
(g85
g71
NtRp1655
(dp1656
g74
(dp1657
sg83
g1429
sg76
(lp1658
g69
(g90
g71
NtRp1659
(dp1660
g74
(dp1661
g94
g95
ssg83
g1655
sg76
(lp1662
S'http_accept_encoding'
p1663
asbag69
(g90
g71
NtRp1664
(dp1665
g74
(dp1666
g101
g102
ssg83
g1655
sg76
(lp1667
S':'
asbag69
(g90
g71
NtRp1668
(dp1669
g74
(dp1670
sg83
g1655
sg76
(lp1671
g69
(g70
g71
NtRp1672
(dp1673
g74
(dp1674
g82
I4
ssg83
g1668
sg76
(lp1675
S'gzip, deflate'
p1676
asbasbasbag69
(g85
g71
NtRp1677
(dp1678
g74
(dp1679
sg83
g1429
sg76
(lp1680
g69
(g90
g71
NtRp1681
(dp1682
g74
(dp1683
g94
g95
ssg83
g1677
sg76
(lp1684
S'http_accept_language'
p1685
asbag69
(g90
g71
NtRp1686
(dp1687
g74
(dp1688
g101
g102
ssg83
g1677
sg76
(lp1689
S':'
asbag69
(g90
g71
NtRp1690
(dp1691
g74
(dp1692
sg83
g1677
sg76
(lp1693
g69
(g70
g71
NtRp1694
(dp1695
g74
(dp1696
g82
I4
ssg83
g1690
sg76
(lp1697
S'en-us,en;q=0.5'
p1698
asbasbasbag69
(g85
g71
NtRp1699
(dp1700
g74
(dp1701
sg83
g1429
sg76
(lp1702
g69
(g90
g71
NtRp1703
(dp1704
g74
(dp1705
g94
g95
ssg83
g1699
sg76
(lp1706
S'http_connection'
p1707
asbag69
(g90
g71
NtRp1708
(dp1709
g74
(dp1710
g101
g102
ssg83
g1699
sg76
(lp1711
S':'
asbag69
(g90
g71
NtRp1712
(dp1713
g74
(dp1714
sg83
g1699
sg76
(lp1715
g69
(g70
g71
NtRp1716
(dp1717
g74
(dp1718
g82
I4
ssg83
g1712
sg76
(lp1719
S'keep-alive'
p1720
asbasbasbag69
(g85
g71
NtRp1721
(dp1722
g74
(dp1723
sg83
g1429
sg76
(lp1724
g69
(g90
g71
NtRp1725
(dp1726
g74
(dp1727
g94
g95
ssg83
g1721
sg76
(lp1728
S'http_content_length'
p1729
asbag69
(g90
g71
NtRp1730
(dp1731
g74
(dp1732
g101
g102
ssg83
g1721
sg76
(lp1733
S':'
asbag69
(g90
g71
NtRp1734
(dp1735
g74
(dp1736
sg83
g1721
sg76
(lp1737
g69
(g70
g71
NtRp1738
(dp1739
g74
(dp1740
g82
I4
ssg83
g1734
sg76
(lp1741
g1545
asbasbasbag69
(g85
g71
NtRp1742
(dp1743
g74
(dp1744
sg83
g1429
sg76
(lp1745
g69
(g90
g71
NtRp1746
(dp1747
g74
(dp1748
g94
g95
ssg83
g1742
sg76
(lp1749
S'http_content_type'
p1750
asbag69
(g90
g71
NtRp1751
(dp1752
g74
(dp1753
g101
g102
ssg83
g1742
sg76
(lp1754
S':'
asbag69
(g90
g71
NtRp1755
(dp1756
g74
(dp1757
sg83
g1742
sg76
(lp1758
g69
(g70
g71
NtRp1759
(dp1760
g74
(dp1761
g82
I4
ssg83
g1755
sg76
(lp1762
g1567
asbasbasbag69
(g85
g71
NtRp1763
(dp1764
g74
(dp1765
sg83
g1429
sg76
(lp1766
g69
(g90
g71
NtRp1767
(dp1768
g74
(dp1769
g94
g95
ssg83
g1763
sg76
(lp1770
S'http_cookie'
p1771
asbag69
(g90
g71
NtRp1772
(dp1773
g74
(dp1774
g101
g102
ssg83
g1763
sg76
(lp1775
S':'
asbag69
(g90
g71
NtRp1776
(dp1777
g74
(dp1778
sg83
g1763
sg76
(lp1779
g69
(g70
g71
NtRp1780
(dp1781
g74
(dp1782
g82
I4
ssg83
g1776
sg76
(lp1783
S'session_id_welcome=127.0.0.1-e8eea386-4697-4b76-ab09-0a0be6604008; session_id_fresh_light=127.0.0.1-abdb80ae-e769-4c7f-b431-193578ef9ec6; session_id_ridesharetest=127.0.0.1-1b82f8e9-8437-46f1-a88e-d1a82c8a726d; session_id_rsharetest=127.0.0.1-17db44d3-6c70-47f0-9d72-ece020d9a50a; session_id_admin=127.0.0.1-4f70e2b1-5bb0-4ebf-987e-4f2631c11c02; session_id_rideshare=127.0.0.1-76981bb4-a11c-4445-975f-4668a2e996ed'
p1784
asbasbasbag69
(g85
g71
NtRp1785
(dp1786
g74
(dp1787
sg83
g1429
sg76
(lp1788
g69
(g90
g71
NtRp1789
(dp1790
g74
(dp1791
g94
g95
ssg83
g1785
sg76
(lp1792
S'http_host'
p1793
asbag69
(g90
g71
NtRp1794
(dp1795
g74
(dp1796
g101
g102
ssg83
g1785
sg76
(lp1797
S':'
asbag69
(g90
g71
NtRp1798
(dp1799
g74
(dp1800
sg83
g1785
sg76
(lp1801
g69
(g70
g71
NtRp1802
(dp1803
g74
(dp1804
g82
I4
ssg83
g1798
sg76
(lp1805
S'127.0.0.1:8000'
p1806
asbasbasbag69
(g85
g71
NtRp1807
(dp1808
g74
(dp1809
sg83
g1429
sg76
(lp1810
g69
(g90
g71
NtRp1811
(dp1812
g74
(dp1813
g94
g95
ssg83
g1807
sg76
(lp1814
S'http_referer'
p1815
asbag69
(g90
g71
NtRp1816
(dp1817
g74
(dp1818
g101
g102
ssg83
g1807
sg76
(lp1819
S':'
asbag69
(g90
g71
NtRp1820
(dp1821
g74
(dp1822
sg83
g1807
sg76
(lp1823
g69
(g70
g71
NtRp1824
(dp1825
g74
(dp1826
g82
I4
ssg83
g1820
sg76
(lp1827
S'http://127.0.0.1:8000/rideshare/default/add_comment/3'
p1828
asbasbasbag69
(g85
g71
NtRp1829
(dp1830
g74
(dp1831
sg83
g1429
sg76
(lp1832
g69
(g90
g71
NtRp1833
(dp1834
g74
(dp1835
g94
g95
ssg83
g1829
sg76
(lp1836
S'http_user_agent'
p1837
asbag69
(g90
g71
NtRp1838
(dp1839
g74
(dp1840
g101
g102
ssg83
g1829
sg76
(lp1841
S':'
asbag69
(g90
g71
NtRp1842
(dp1843
g74
(dp1844
sg83
g1829
sg76
(lp1845
g69
(g70
g71
NtRp1846
(dp1847
g74
(dp1848
g82
I4
ssg83
g1842
sg76
(lp1849
S'Mozilla/5.0 (Windows NT 6.1; WOW64; rv:14.0) Gecko/20100101 Firefox/14.0.1'
p1850
asbasbasbag69
(g85
g71
NtRp1851
(dp1852
g74
(dp1853
sg83
g1429
sg76
(lp1854
g69
(g90
g71
NtRp1855
(dp1856
g74
(dp1857
g94
g95
ssg83
g1851
sg76
(lp1858
S'is_jython'
p1859
asbag69
(g90
g71
NtRp1860
(dp1861
g74
(dp1862
g101
g102
ssg83
g1851
sg76
(lp1863
S':'
asbag69
(g90
g71
NtRp1864
(dp1865
g74
(dp1866
sg83
g1851
sg76
(lp1867
g69
(g70
g71
NtRp1868
(dp1869
g74
(dp1870
g82
I4
ssg83
g1864
sg76
(lp1871
g112
asbasbasbag69
(g85
g71
NtRp1872
(dp1873
g74
(dp1874
sg83
g1429
sg76
(lp1875
g69
(g90
g71
NtRp1876
(dp1877
g74
(dp1878
g94
g95
ssg83
g1872
sg76
(lp1879
S'is_pypy'
p1880
asbag69
(g90
g71
NtRp1881
(dp1882
g74
(dp1883
g101
g102
ssg83
g1872
sg76
(lp1884
S':'
asbag69
(g90
g71
NtRp1885
(dp1886
g74
(dp1887
sg83
g1872
sg76
(lp1888
g69
(g70
g71
NtRp1889
(dp1890
g74
(dp1891
g82
I4
ssg83
g1885
sg76
(lp1892
g112
asbasbasbag69
(g85
g71
NtRp1893
(dp1894
g74
(dp1895
sg83
g1429
sg76
(lp1896
g69
(g90
g71
NtRp1897
(dp1898
g74
(dp1899
g94
g95
ssg83
g1893
sg76
(lp1900
S'path_info'
p1901
asbag69
(g90
g71
NtRp1902
(dp1903
g74
(dp1904
g101
g102
ssg83
g1893
sg76
(lp1905
S':'
asbag69
(g90
g71
NtRp1906
(dp1907
g74
(dp1908
sg83
g1893
sg76
(lp1909
g69
(g70
g71
NtRp1910
(dp1911
g74
(dp1912
g82
I4
ssg83
g1906
sg76
(lp1913
S'/rideshare/default/add_comment/3'
p1914
asbasbasbag69
(g85
g71
NtRp1915
(dp1916
g74
(dp1917
sg83
g1429
sg76
(lp1918
g69
(g90
g71
NtRp1919
(dp1920
g74
(dp1921
g94
g95
ssg83
g1915
sg76
(lp1922
S'query_string'
p1923
asbag69
(g90
g71
NtRp1924
(dp1925
g74
(dp1926
g101
g102
ssg83
g1915
sg76
(lp1927
S':'
asbag69
(g90
g71
NtRp1928
(dp1929
g74
(dp1930
sg83
g1915
sg76
(lp1931
g69
(g70
g71
NtRp1932
(dp1933
g74
(dp1934
g82
I4
ssg83
g1928
sg76
(lp1935
S''
asbasbasbag69
(g85
g71
NtRp1936
(dp1937
g74
(dp1938
sg83
g1429
sg76
(lp1939
g69
(g90
g71
NtRp1940
(dp1941
g74
(dp1942
g94
g95
ssg83
g1936
sg76
(lp1943
S'remote_addr'
p1944
asbag69
(g90
g71
NtRp1945
(dp1946
g74
(dp1947
g101
g102
ssg83
g1936
sg76
(lp1948
S':'
asbag69
(g90
g71
NtRp1949
(dp1950
g74
(dp1951
sg83
g1936
sg76
(lp1952
g69
(g70
g71
NtRp1953
(dp1954
g74
(dp1955
g82
I4
ssg83
g1949
sg76
(lp1956
g236
asbasbasbag69
(g85
g71
NtRp1957
(dp1958
g74
(dp1959
sg83
g1429
sg76
(lp1960
g69
(g90
g71
NtRp1961
(dp1962
g74
(dp1963
g94
g95
ssg83
g1957
sg76
(lp1964
S'remote_port'
p1965
asbag69
(g90
g71
NtRp1966
(dp1967
g74
(dp1968
g101
g102
ssg83
g1957
sg76
(lp1969
S':'
asbag69
(g90
g71
NtRp1970
(dp1971
g74
(dp1972
sg83
g1957
sg76
(lp1973
g69
(g70
g71
NtRp1974
(dp1975
g74
(dp1976
g82
I4
ssg83
g1970
sg76
(lp1977
S'51296'
p1978
asbasbasbag69
(g85
g71
NtRp1979
(dp1980
g74
(dp1981
sg83
g1429
sg76
(lp1982
g69
(g90
g71
NtRp1983
(dp1984
g74
(dp1985
g94
g95
ssg83
g1979
sg76
(lp1986
S'request_method'
p1987
asbag69
(g90
g71
NtRp1988
(dp1989
g74
(dp1990
g101
g102
ssg83
g1979
sg76
(lp1991
S':'
asbag69
(g90
g71
NtRp1992
(dp1993
g74
(dp1994
sg83
g1979
sg76
(lp1995
g69
(g70
g71
NtRp1996
(dp1997
g74
(dp1998
g82
I4
ssg83
g1992
sg76
(lp1999
S'POST'
p2000
asbasbasbag69
(g85
g71
NtRp2001
(dp2002
g74
(dp2003
sg83
g1429
sg76
(lp2004
g69
(g90
g71
NtRp2005
(dp2006
g74
(dp2007
g94
g95
ssg83
g2001
sg76
(lp2008
S'request_uri'
p2009
asbag69
(g90
g71
NtRp2010
(dp2011
g74
(dp2012
g101
g102
ssg83
g2001
sg76
(lp2013
S':'
asbag69
(g90
g71
NtRp2014
(dp2015
g74
(dp2016
sg83
g2001
sg76
(lp2017
g69
(g70
g71
NtRp2018
(dp2019
g74
(dp2020
g82
I4
ssg83
g2014
sg76
(lp2021
g1914
asbasbasbag69
(g85
g71
NtRp2022
(dp2023
g74
(dp2024
sg83
g1429
sg76
(lp2025
g69
(g90
g71
NtRp2026
(dp2027
g74
(dp2028
g94
g95
ssg83
g2022
sg76
(lp2029
S'script_name'
p2030
asbag69
(g90
g71
NtRp2031
(dp2032
g74
(dp2033
g101
g102
ssg83
g2022
sg76
(lp2034
S':'
asbag69
(g90
g71
NtRp2035
(dp2036
g74
(dp2037
sg83
g2022
sg76
(lp2038
g69
(g70
g71
NtRp2039
(dp2040
g74
(dp2041
g82
I4
ssg83
g2035
sg76
(lp2042
S''
asbasbasbag69
(g85
g71
NtRp2043
(dp2044
g74
(dp2045
sg83
g1429
sg76
(lp2046
g69
(g90
g71
NtRp2047
(dp2048
g74
(dp2049
g94
g95
ssg83
g2043
sg76
(lp2050
S'server_name'
p2051
asbag69
(g90
g71
NtRp2052
(dp2053
g74
(dp2054
g101
g102
ssg83
g2043
sg76
(lp2055
S':'
asbag69
(g90
g71
NtRp2056
(dp2057
g74
(dp2058
sg83
g2043
sg76
(lp2059
g69
(g70
g71
NtRp2060
(dp2061
g74
(dp2062
g82
I4
ssg83
g2056
sg76
(lp2063
S'Owner-PC'
p2064
asbasbasbag69
(g85
g71
NtRp2065
(dp2066
g74
(dp2067
sg83
g1429
sg76
(lp2068
g69
(g90
g71
NtRp2069
(dp2070
g74
(dp2071
g94
g95
ssg83
g2065
sg76
(lp2072
S'server_port'
p2073
asbag69
(g90
g71
NtRp2074
(dp2075
g74
(dp2076
g101
g102
ssg83
g2065
sg76
(lp2077
S':'
asbag69
(g90
g71
NtRp2078
(dp2079
g74
(dp2080
sg83
g2065
sg76
(lp2081
g69
(g70
g71
NtRp2082
(dp2083
g74
(dp2084
g82
I4
ssg83
g2078
sg76
(lp2085
S'8000'
p2086
asbasbasbag69
(g85
g71
NtRp2087
(dp2088
g74
(dp2089
sg83
g1429
sg76
(lp2090
g69
(g90
g71
NtRp2091
(dp2092
g74
(dp2093
g94
g95
ssg83
g2087
sg76
(lp2094
S'server_protocol'
p2095
asbag69
(g90
g71
NtRp2096
(dp2097
g74
(dp2098
g101
g102
ssg83
g2087
sg76
(lp2099
S':'
asbag69
(g90
g71
NtRp2100
(dp2101
g74
(dp2102
sg83
g2087
sg76
(lp2103
g69
(g70
g71
NtRp2104
(dp2105
g74
(dp2106
g82
I4
ssg83
g2100
sg76
(lp2107
S'HTTP/1.1'
p2108
asbasbasbag69
(g85
g71
NtRp2109
(dp2110
g74
(dp2111
sg83
g1429
sg76
(lp2112
g69
(g90
g71
NtRp2113
(dp2114
g74
(dp2115
g94
g95
ssg83
g2109
sg76
(lp2116
S'server_software'
p2117
asbag69
(g90
g71
NtRp2118
(dp2119
g74
(dp2120
g101
g102
ssg83
g2109
sg76
(lp2121
S':'
asbag69
(g90
g71
NtRp2122
(dp2123
g74
(dp2124
sg83
g2109
sg76
(lp2125
g69
(g70
g71
NtRp2126
(dp2127
g74
(dp2128
g82
I4
ssg83
g2122
sg76
(lp2129
S'Rocket 1.2.4'
p2130
asbasbasbag69
(g85
g71
NtRp2131
(dp2132
g74
(dp2133
sg83
g1429
sg76
(lp2134
g69
(g90
g71
NtRp2135
(dp2136
g74
(dp2137
g94
g95
ssg83
g2131
sg76
(lp2138
S'web2py_crontype'
p2139
asbag69
(g90
g71
NtRp2140
(dp2141
g74
(dp2142
g101
g102
ssg83
g2131
sg76
(lp2143
S':'
asbag69
(g90
g71
NtRp2144
(dp2145
g74
(dp2146
sg83
g2131
sg76
(lp2147
g69
(g70
g71
NtRp2148
(dp2149
g74
(dp2150
g82
I4
ssg83
g2144
sg76
(lp2151
S'hard'
p2152
asbasbasbag69
(g85
g71
NtRp2153
(dp2154
g74
(dp2155
sg83
g1429
sg76
(lp2156
g69
(g90
g71
NtRp2157
(dp2158
g74
(dp2159
g94
g95
ssg83
g2153
sg76
(lp2160
S'web2py_path'
p2161
asbag69
(g90
g71
NtRp2162
(dp2163
g74
(dp2164
g101
g102
ssg83
g2153
sg76
(lp2165
S':'
asbag69
(g90
g71
NtRp2166
(dp2167
g74
(dp2168
sg83
g2153
sg76
(lp2169
g69
(g70
g71
NtRp2170
(dp2171
g74
(dp2172
g82
I4
ssg83
g2166
sg76
(lp2173
g1476
asbasbasbag69
(g85
g71
NtRp2174
(dp2175
g74
(dp2176
sg83
g1429
sg76
(lp2177
g69
(g90
g71
NtRp2178
(dp2179
g74
(dp2180
g94
g95
ssg83
g2174
sg76
(lp2181
S'web2py_version'
p2182
asbag69
(g90
g71
NtRp2183
(dp2184
g74
(dp2185
g101
g102
ssg83
g2174
sg76
(lp2186
S':'
asbag69
(g90
g71
NtRp2187
(dp2188
g74
(dp2189
sg83
g2174
sg76
(lp2190
g69
(g70
g71
NtRp2191
(dp2192
g74
(dp2193
g82
I4
ssg83
g2187
sg76
(lp2194
g69
(g78
g71
NtRp2195
(dp2196
g74
(dp2197
g82
I3
ssg83
Nsg76
(lp2198
g69
(g85
g71
NtRp2199
(dp2200
g74
(dp2201
sg83
g2195
sg76
(lp2202
g69
(g90
g71
NtRp2203
(dp2204
g74
(dp2205
sg83
g2199
sg76
(lp2206
g69
(g70
g71
NtRp2207
(dp2208
g74
(dp2209
g82
I3
ssg83
g2203
sg76
(lp2210
S'2'
asbasbasbag69
(g85
g71
NtRp2211
(dp2212
g74
(dp2213
sg83
g2195
sg76
(lp2214
g69
(g90
g71
NtRp2215
(dp2216
g74
(dp2217
sg83
g2211
sg76
(lp2218
g69
(g70
g71
NtRp2219
(dp2220
g74
(dp2221
g82
I3
ssg83
g2215
sg76
(lp2222
S'0'
asbasbasbag69
(g85
g71
NtRp2223
(dp2224
g74
(dp2225
sg83
g2195
sg76
(lp2226
g69
(g90
g71
NtRp2227
(dp2228
g74
(dp2229
sg83
g2223
sg76
(lp2230
g69
(g70
g71
NtRp2231
(dp2232
g74
(dp2233
g82
I3
ssg83
g2227
sg76
(lp2234
S'9'
asbasbasbag69
(g85
g71
NtRp2235
(dp2236
g74
(dp2237
sg83
g2195
sg76
(lp2238
g69
(g90
g71
NtRp2239
(dp2240
g74
(dp2241
sg83
g2235
sg76
(lp2242
g69
(g70
g71
NtRp2243
(dp2244
g74
(dp2245
g82
I3
ssg83
g2239
sg76
(lp2246
S'datetime.datetime(2012, 9, 13, 23, 51, 30)'
p2247
asbasbasbag69
(g85
g71
NtRp2248
(dp2249
g74
(dp2250
sg83
g2195
sg76
(lp2251
g69
(g90
g71
NtRp2252
(dp2253
g74
(dp2254
sg83
g2248
sg76
(lp2255
g69
(g70
g71
NtRp2256
(dp2257
g74
(dp2258
g82
I3
ssg83
g2252
sg76
(lp2259
S'stable'
p2260
asbasbasbasbasbasbasbag69
(g85
g71
NtRp2261
(dp2262
g74
(dp2263
sg83
g1429
sg76
(lp2264
g69
(g90
g71
NtRp2265
(dp2266
g74
(dp2267
g94
g95
ssg83
g2261
sg76
(lp2268
S'wsgi_errors'
p2269
asbag69
(g90
g71
NtRp2270
(dp2271
g74
(dp2272
g101
g102
ssg83
g2261
sg76
(lp2273
S':'
asbag69
(g90
g71
NtRp2274
(dp2275
g74
(dp2276
sg83
g2261
sg76
(lp2277
g69
(g70
g71
NtRp2278
(dp2279
g74
(dp2280
g82
I4
ssg83
g2274
sg76
(lp2281
S"<open file '<stderr>', mode 'w' at 0x01DA50D0>"
p2282
asbasbasbag69
(g85
g71
NtRp2283
(dp2284
g74
(dp2285
sg83
g1429
sg76
(lp2286
g69
(g90
g71
NtRp2287
(dp2288
g74
(dp2289
g94
g95
ssg83
g2283
sg76
(lp2290
S'wsgi_file_wrapper'
p2291
asbag69
(g90
g71
NtRp2292
(dp2293
g74
(dp2294
g101
g102
ssg83
g2283
sg76
(lp2295
S':'
asbag69
(g90
g71
NtRp2296
(dp2297
g74
(dp2298
sg83
g2283
sg76
(lp2299
g69
(g70
g71
NtRp2300
(dp2301
g74
(dp2302
g82
I4
ssg83
g2296
sg76
(lp2303
S'<class wsgiref.util.FileWrapper at 0x02B58688>'
p2304
asbasbasbag69
(g85
g71
NtRp2305
(dp2306
g74
(dp2307
sg83
g1429
sg76
(lp2308
g69
(g90
g71
NtRp2309
(dp2310
g74
(dp2311
g94
g95
ssg83
g2305
sg76
(lp2312
S'wsgi_input'
p2313
asbag69
(g90
g71
NtRp2314
(dp2315
g74
(dp2316
g101
g102
ssg83
g2305
sg76
(lp2317
S':'
asbag69
(g90
g71
NtRp2318
(dp2319
g74
(dp2320
sg83
g2305
sg76
(lp2321
g69
(g70
g71
NtRp2322
(dp2323
g74
(dp2324
g82
I4
ssg83
g2318
sg76
(lp2325
S'<socket._fileobject object at 0x06BCCE30>'
p2326
asbasbasbag69
(g85
g71
NtRp2327
(dp2328
g74
(dp2329
sg83
g1429
sg76
(lp2330
g69
(g90
g71
NtRp2331
(dp2332
g74
(dp2333
g94
g95
ssg83
g2327
sg76
(lp2334
S'wsgi_multiprocess'
p2335
asbag69
(g90
g71
NtRp2336
(dp2337
g74
(dp2338
g101
g102
ssg83
g2327
sg76
(lp2339
S':'
asbag69
(g90
g71
NtRp2340
(dp2341
g74
(dp2342
sg83
g2327
sg76
(lp2343
g69
(g70
g71
NtRp2344
(dp2345
g74
(dp2346
g82
I4
ssg83
g2340
sg76
(lp2347
g112
asbasbasbag69
(g85
g71
NtRp2348
(dp2349
g74
(dp2350
sg83
g1429
sg76
(lp2351
g69
(g90
g71
NtRp2352
(dp2353
g74
(dp2354
g94
g95
ssg83
g2348
sg76
(lp2355
S'wsgi_multithread'
p2356
asbag69
(g90
g71
NtRp2357
(dp2358
g74
(dp2359
g101
g102
ssg83
g2348
sg76
(lp2360
S':'
asbag69
(g90
g71
NtRp2361
(dp2362
g74
(dp2363
sg83
g2348
sg76
(lp2364
g69
(g70
g71
NtRp2365
(dp2366
g74
(dp2367
g82
I4
ssg83
g2361
sg76
(lp2368
S'True'
p2369
asbasbasbag69
(g85
g71
NtRp2370
(dp2371
g74
(dp2372
sg83
g1429
sg76
(lp2373
g69
(g90
g71
NtRp2374
(dp2375
g74
(dp2376
g94
g95
ssg83
g2370
sg76
(lp2377
S'wsgi_run_once'
p2378
asbag69
(g90
g71
NtRp2379
(dp2380
g74
(dp2381
g101
g102
ssg83
g2370
sg76
(lp2382
S':'
asbag69
(g90
g71
NtRp2383
(dp2384
g74
(dp2385
sg83
g2370
sg76
(lp2386
g69
(g70
g71
NtRp2387
(dp2388
g74
(dp2389
g82
I4
ssg83
g2383
sg76
(lp2390
g112
asbasbasbag69
(g85
g71
NtRp2391
(dp2392
g74
(dp2393
sg83
g1429
sg76
(lp2394
g69
(g90
g71
NtRp2395
(dp2396
g74
(dp2397
g94
g95
ssg83
g2391
sg76
(lp2398
S'wsgi_url_scheme'
p2399
asbag69
(g90
g71
NtRp2400
(dp2401
g74
(dp2402
g101
g102
ssg83
g2391
sg76
(lp2403
S':'
asbag69
(g90
g71
NtRp2404
(dp2405
g74
(dp2406
sg83
g2391
sg76
(lp2407
g69
(g70
g71
NtRp2408
(dp2409
g74
(dp2410
g82
I4
ssg83
g2404
sg76
(lp2411
S'http'
p2412
asbasbasbag69
(g85
g71
NtRp2413
(dp2414
g74
(dp2415
sg83
g1429
sg76
(lp2416
g69
(g90
g71
NtRp2417
(dp2418
g74
(dp2419
g94
g95
ssg83
g2413
sg76
(lp2420
S'wsgi_version'
p2421
asbag69
(g90
g71
NtRp2422
(dp2423
g74
(dp2424
g101
g102
ssg83
g2413
sg76
(lp2425
S':'
asbag69
(g90
g71
NtRp2426
(dp2427
g74
(dp2428
sg83
g2413
sg76
(lp2429
g69
(g70
g71
NtRp2430
(dp2431
g74
(dp2432
g82
I4
ssg83
g2426
sg76
(lp2433
g69
(g78
g71
NtRp2434
(dp2435
g74
(dp2436
g82
I3
ssg83
Nsg76
(lp2437
g69
(g85
g71
NtRp2438
(dp2439
g74
(dp2440
sg83
g2434
sg76
(lp2441
g69
(g90
g71
NtRp2442
(dp2443
g74
(dp2444
sg83
g2438
sg76
(lp2445
g69
(g70
g71
NtRp2446
(dp2447
g74
(dp2448
g82
I3
ssg83
g2442
sg76
(lp2449
S'1'
asbasbasbag69
(g85
g71
NtRp2450
(dp2451
g74
(dp2452
sg83
g2434
sg76
(lp2453
g69
(g90
g71
NtRp2454
(dp2455
g74
(dp2456
sg83
g2450
sg76
(lp2457
g69
(g70
g71
NtRp2458
(dp2459
g74
(dp2460
g82
I3
ssg83
g2454
sg76
(lp2461
S'0'
asbasbasbasbasbasbasbasbasbasbasbag69
(g85
g71
NtRp2462
(dp2463
g74
(dp2464
sg83
g79
sg76
(lp2465
g69
(g90
g71
NtRp2466
(dp2467
g74
(dp2468
g94
g95
ssg83
g2462
sg76
(lp2469
S'extension'
p2470
asbag69
(g90
g71
NtRp2471
(dp2472
g74
(dp2473
g101
g102
ssg83
g2462
sg76
(lp2474
S':'
asbag69
(g90
g71
NtRp2475
(dp2476
g74
(dp2477
sg83
g2462
sg76
(lp2478
g69
(g70
g71
NtRp2479
(dp2480
g74
(dp2481
g82
I5
ssg83
g2475
sg76
(lp2482
S'html'
p2483
asbasbasbag69
(g85
g71
NtRp2484
(dp2485
g74
(dp2486
sg83
g79
sg76
(lp2487
g69
(g90
g71
NtRp2488
(dp2489
g74
(dp2490
g94
g95
ssg83
g2484
sg76
(lp2491
S'folder'
p2492
asbag69
(g90
g71
NtRp2493
(dp2494
g74
(dp2495
g101
g102
ssg83
g2484
sg76
(lp2496
S':'
asbag69
(g90
g71
NtRp2497
(dp2498
g74
(dp2499
sg83
g2484
sg76
(lp2500
g69
(g70
g71
NtRp2501
(dp2502
g74
(dp2503
g82
I5
ssg83
g2497
sg76
(lp2504
S'C:\\Users\\Owner\\Desktop\\web2py\\applications\\rideshare\\'
p2505
asbasbasbag69
(g85
g71
NtRp2506
(dp2507
g74
(dp2508
sg83
g79
sg76
(lp2509
g69
(g90
g71
NtRp2510
(dp2511
g74
(dp2512
g94
g95
ssg83
g2506
sg76
(lp2513
S'function'
p2514
asbag69
(g90
g71
NtRp2515
(dp2516
g74
(dp2517
g101
g102
ssg83
g2506
sg76
(lp2518
S':'
asbag69
(g90
g71
NtRp2519
(dp2520
g74
(dp2521
sg83
g2506
sg76
(lp2522
g69
(g70
g71
NtRp2523
(dp2524
g74
(dp2525
g82
I5
ssg83
g2519
sg76
(lp2526
S'add_comment'
p2527
asbasbasbag69
(g85
g71
NtRp2528
(dp2529
g74
(dp2530
sg83
g79
sg76
(lp2531
g69
(g90
g71
NtRp2532
(dp2533
g74
(dp2534
g94
g95
ssg83
g2528
sg76
(lp2535
S'get_vars'
p2536
asbag69
(g90
g71
NtRp2537
(dp2538
g74
(dp2539
g101
g102
ssg83
g2528
sg76
(lp2540
S':'
asbag69
(g90
g71
NtRp2541
(dp2542
g74
(dp2543
sg83
g2528
sg76
(lp2544
g69
(g70
g71
NtRp2545
(dp2546
g74
(dp2547
g82
I5
ssg83
g2541
sg76
(lp2548
g69
(g78
g71
NtRp2549
(dp2550
g74
(dp2551
g82
I4
ssg83
Nsg76
(lp2552
sbasbasbasbag69
(g85
g71
NtRp2553
(dp2554
g74
(dp2555
sg83
g79
sg76
(lp2556
g69
(g90
g71
NtRp2557
(dp2558
g74
(dp2559
g94
g95
ssg83
g2553
sg76
(lp2560
S'global_settings'
p2561
asbag69
(g90
g71
NtRp2562
(dp2563
g74
(dp2564
g101
g102
ssg83
g2553
sg76
(lp2565
S':'
asbag69
(g90
g71
NtRp2566
(dp2567
g74
(dp2568
sg83
g2553
sg76
(lp2569
g69
(g70
g71
NtRp2570
(dp2571
g74
(dp2572
g82
I5
ssg83
g2566
sg76
(lp2573
g69
(g78
g71
NtRp2574
(dp2575
g74
(dp2576
g82
I4
ssg83
Nsg76
(lp2577
g69
(g85
g71
NtRp2578
(dp2579
g74
(dp2580
sg83
g2574
sg76
(lp2581
g69
(g90
g71
NtRp2582
(dp2583
g74
(dp2584
g94
g95
ssg83
g2578
sg76
(lp2585
g1441
asbag69
(g90
g71
NtRp2586
(dp2587
g74
(dp2588
g101
g102
ssg83
g2578
sg76
(lp2589
S':'
asbag69
(g90
g71
NtRp2590
(dp2591
g74
(dp2592
sg83
g2578
sg76
(lp2593
g69
(g70
g71
NtRp2594
(dp2595
g74
(dp2596
g82
I4
ssg83
g2590
sg76
(lp2597
S"set(['C:\\\\Users\\\\Owner\\\\Desktop\\\\web2py\\\\applications\\\\rideshare\\\\', 'C:\\\\Users\\\\Owner\\\\Desktop\\\\web2py\\\\applications\\\\admin\\\\', 'C:\\\\Users\\\\Owner\\\\Desktop\\\\web2py\\\\applications\\\\welcome\\\\'])"
p2598
asbasbasbag69
(g85
g71
NtRp2599
(dp2600
g74
(dp2601
sg83
g2574
sg76
(lp2602
g69
(g90
g71
NtRp2603
(dp2604
g74
(dp2605
g94
g95
ssg83
g2599
sg76
(lp2606
g1463
asbag69
(g90
g71
NtRp2607
(dp2608
g74
(dp2609
g101
g102
ssg83
g2599
sg76
(lp2610
S':'
asbag69
(g90
g71
NtRp2611
(dp2612
g74
(dp2613
sg83
g2599
sg76
(lp2614
g69
(g70
g71
NtRp2615
(dp2616
g74
(dp2617
g82
I4
ssg83
g2611
sg76
(lp2618
g1476
asbasbasbag69
(g85
g71
NtRp2619
(dp2620
g74
(dp2621
sg83
g2574
sg76
(lp2622
g69
(g90
g71
NtRp2623
(dp2624
g74
(dp2625
g94
g95
ssg83
g2619
sg76
(lp2626
g1485
asbag69
(g90
g71
NtRp2627
(dp2628
g74
(dp2629
g101
g102
ssg83
g2619
sg76
(lp2630
S':'
asbag69
(g90
g71
NtRp2631
(dp2632
g74
(dp2633
sg83
g2619
sg76
(lp2634
g69
(g70
g71
NtRp2635
(dp2636
g74
(dp2637
g82
I4
ssg83
g2631
sg76
(lp2638
g69
(g78
g71
NtRp2639
(dp2640
g74
(dp2641
g82
I3
ssg83
Nsg76
(lp2642
sbasbasbasbag69
(g85
g71
NtRp2643
(dp2644
g74
(dp2645
sg83
g2574
sg76
(lp2646
g69
(g90
g71
NtRp2647
(dp2648
g74
(dp2649
g94
g95
ssg83
g2643
sg76
(lp2650
g1510
asbag69
(g90
g71
NtRp2651
(dp2652
g74
(dp2653
g101
g102
ssg83
g2643
sg76
(lp2654
S':'
asbag69
(g90
g71
NtRp2655
(dp2656
g74
(dp2657
sg83
g2643
sg76
(lp2658
g69
(g70
g71
NtRp2659
(dp2660
g74
(dp2661
g82
I4
ssg83
g2655
sg76
(lp2662
S"<Values at 0x2bc9030: {'verbose': False, 'ip': '127.0.0.1', 'with_scheduler': False, 'ips': [], 'shutdown_timeout': 5, 'taskbar': False, 'port': 8000, 'maxthreads': None, 'softcron': False, 'server_name': 'Owner-PC', 'bpython': False, 'nogui': False, 'nocron': False, 'extcron': False, 'run_system_tests': False, 'test': None, 'folder': 'C:\\\\Users\\\\Owner\\\\Desktop\\\\web2py', 'config': '', 'import_models': False, 'winservice': '', 'shell': None, 'run': '', 'log_filename': 'httpserver.log', 'debuglevel': 30, 'args': [''], 'socket_timeout': 5, 'ssl_ca_certificate': None, 'scheduler': None, 'profiler_filename': None, 'ssl_private_key': '', 'scheduler_groups': None, 'password': '<ask>', 'request_queue_size': 5, 'ssl_certificate': '', 'cronjob': False, 'numthreads': None, 'quiet': False, 'interfaces': None, 'minthreads': None, 'timeout': 10, 'plain': False, 'nobanner': False, 'pid_filename': 'httpserver.pid'}>"
p2663
asbasbasbag69
(g85
g71
NtRp2664
(dp2665
g74
(dp2666
sg83
g2574
sg76
(lp2667
g69
(g90
g71
NtRp2668
(dp2669
g74
(dp2670
g94
g95
ssg83
g2664
sg76
(lp2671
g1576
asbag69
(g90
g71
NtRp2672
(dp2673
g74
(dp2674
g101
g102
ssg83
g2664
sg76
(lp2675
S':'
asbag69
(g90
g71
NtRp2676
(dp2677
g74
(dp2678
sg83
g2664
sg76
(lp2679
g69
(g70
g71
NtRp2680
(dp2681
g74
(dp2682
g82
I4
ssg83
g2676
sg76
(lp2683
S'set([])'
p2684
asbasbasbag69
(g85
g71
NtRp2685
(dp2686
g74
(dp2687
sg83
g2574
sg76
(lp2688
g69
(g90
g71
NtRp2689
(dp2690
g74
(dp2691
g94
g95
ssg83
g2685
sg76
(lp2692
g1598
asbag69
(g90
g71
NtRp2693
(dp2694
g74
(dp2695
g101
g102
ssg83
g2685
sg76
(lp2696
S':'
asbag69
(g90
g71
NtRp2697
(dp2698
g74
(dp2699
sg83
g2685
sg76
(lp2700
g69
(g70
g71
NtRp2701
(dp2702
g74
(dp2703
g82
I4
ssg83
g2697
sg76
(lp2704
g112
asbasbasbag69
(g85
g71
NtRp2705
(dp2706
g74
(dp2707
sg83
g2574
sg76
(lp2708
g69
(g90
g71
NtRp2709
(dp2710
g74
(dp2711
g94
g95
ssg83
g2705
sg76
(lp2712
g1619
asbag69
(g90
g71
NtRp2713
(dp2714
g74
(dp2715
g101
g102
ssg83
g2705
sg76
(lp2716
S':'
asbag69
(g90
g71
NtRp2717
(dp2718
g74
(dp2719
sg83
g2705
sg76
(lp2720
g69
(g70
g71
NtRp2721
(dp2722
g74
(dp2723
g82
I4
ssg83
g2717
sg76
(lp2724
g1632
asbasbasbag69
(g85
g71
NtRp2725
(dp2726
g74
(dp2727
sg83
g2574
sg76
(lp2728
g69
(g90
g71
NtRp2729
(dp2730
g74
(dp2731
g94
g95
ssg83
g2725
sg76
(lp2732
g1859
asbag69
(g90
g71
NtRp2733
(dp2734
g74
(dp2735
g101
g102
ssg83
g2725
sg76
(lp2736
S':'
asbag69
(g90
g71
NtRp2737
(dp2738
g74
(dp2739
sg83
g2725
sg76
(lp2740
g69
(g70
g71
NtRp2741
(dp2742
g74
(dp2743
g82
I4
ssg83
g2737
sg76
(lp2744
g112
asbasbasbag69
(g85
g71
NtRp2745
(dp2746
g74
(dp2747
sg83
g2574
sg76
(lp2748
g69
(g90
g71
NtRp2749
(dp2750
g74
(dp2751
g94
g95
ssg83
g2745
sg76
(lp2752
g1880
asbag69
(g90
g71
NtRp2753
(dp2754
g74
(dp2755
g101
g102
ssg83
g2745
sg76
(lp2756
S':'
asbag69
(g90
g71
NtRp2757
(dp2758
g74
(dp2759
sg83
g2745
sg76
(lp2760
g69
(g70
g71
NtRp2761
(dp2762
g74
(dp2763
g82
I4
ssg83
g2757
sg76
(lp2764
g112
asbasbasbag69
(g85
g71
NtRp2765
(dp2766
g74
(dp2767
sg83
g2574
sg76
(lp2768
g69
(g90
g71
NtRp2769
(dp2770
g74
(dp2771
g94
g95
ssg83
g2765
sg76
(lp2772
g2139
asbag69
(g90
g71
NtRp2773
(dp2774
g74
(dp2775
g101
g102
ssg83
g2765
sg76
(lp2776
S':'
asbag69
(g90
g71
NtRp2777
(dp2778
g74
(dp2779
sg83
g2765
sg76
(lp2780
g69
(g70
g71
NtRp2781
(dp2782
g74
(dp2783
g82
I4
ssg83
g2777
sg76
(lp2784
g2152
asbasbasbag69
(g85
g71
NtRp2785
(dp2786
g74
(dp2787
sg83
g2574
sg76
(lp2788
g69
(g90
g71
NtRp2789
(dp2790
g74
(dp2791
g94
g95
ssg83
g2785
sg76
(lp2792
g2182
asbag69
(g90
g71
NtRp2793
(dp2794
g74
(dp2795
g101
g102
ssg83
g2785
sg76
(lp2796
S':'
asbag69
(g90
g71
NtRp2797
(dp2798
g74
(dp2799
sg83
g2785
sg76
(lp2800
g69
(g70
g71
NtRp2801
(dp2802
g74
(dp2803
g82
I4
ssg83
g2797
sg76
(lp2804
g69
(g78
g71
NtRp2805
(dp2806
g74
(dp2807
g82
I3
ssg83
Nsg76
(lp2808
g69
(g85
g71
NtRp2809
(dp2810
g74
(dp2811
sg83
g2805
sg76
(lp2812
g69
(g90
g71
NtRp2813
(dp2814
g74
(dp2815
sg83
g2809
sg76
(lp2816
g69
(g70
g71
NtRp2817
(dp2818
g74
(dp2819
g82
I3
ssg83
g2813
sg76
(lp2820
S'2'
asbasbasbag69
(g85
g71
NtRp2821
(dp2822
g74
(dp2823
sg83
g2805
sg76
(lp2824
g69
(g90
g71
NtRp2825
(dp2826
g74
(dp2827
sg83
g2821
sg76
(lp2828
g69
(g70
g71
NtRp2829
(dp2830
g74
(dp2831
g82
I3
ssg83
g2825
sg76
(lp2832
S'0'
asbasbasbag69
(g85
g71
NtRp2833
(dp2834
g74
(dp2835
sg83
g2805
sg76
(lp2836
g69
(g90
g71
NtRp2837
(dp2838
g74
(dp2839
sg83
g2833
sg76
(lp2840
g69
(g70
g71
NtRp2841
(dp2842
g74
(dp2843
g82
I3
ssg83
g2837
sg76
(lp2844
S'9'
asbasbasbag69
(g85
g71
NtRp2845
(dp2846
g74
(dp2847
sg83
g2805
sg76
(lp2848
g69
(g90
g71
NtRp2849
(dp2850
g74
(dp2851
sg83
g2845
sg76
(lp2852
g69
(g70
g71
NtRp2853
(dp2854
g74
(dp2855
g82
I3
ssg83
g2849
sg76
(lp2856
S'datetime.datetime(2012, 9, 13, 23, 51, 30)'
p2857
asbasbasbag69
(g85
g71
NtRp2858
(dp2859
g74
(dp2860
sg83
g2805
sg76
(lp2861
g69
(g90
g71
NtRp2862
(dp2863
g74
(dp2864
sg83
g2858
sg76
(lp2865
g69
(g70
g71
NtRp2866
(dp2867
g74
(dp2868
g82
I3
ssg83
g2862
sg76
(lp2869
g2260
asbasbasbasbasbasbasbasbasbasbasbag69
(g85
g71
NtRp2870
(dp2871
g74
(dp2872
sg83
g79
sg76
(lp2873
g69
(g90
g71
NtRp2874
(dp2875
g74
(dp2876
g94
g95
ssg83
g2870
sg76
(lp2877
S'is_https'
p2878
asbag69
(g90
g71
NtRp2879
(dp2880
g74
(dp2881
g101
g102
ssg83
g2870
sg76
(lp2882
S':'
asbag69
(g90
g71
NtRp2883
(dp2884
g74
(dp2885
sg83
g2870
sg76
(lp2886
g69
(g70
g71
NtRp2887
(dp2888
g74
(dp2889
g82
I5
ssg83
g2883
sg76
(lp2890
g112
asbasbasbag69
(g85
g71
NtRp2891
(dp2892
g74
(dp2893
sg83
g79
sg76
(lp2894
g69
(g90
g71
NtRp2895
(dp2896
g74
(dp2897
g94
g95
ssg83
g2891
sg76
(lp2898
S'is_local'
p2899
asbag69
(g90
g71
NtRp2900
(dp2901
g74
(dp2902
g101
g102
ssg83
g2891
sg76
(lp2903
S':'
asbag69
(g90
g71
NtRp2904
(dp2905
g74
(dp2906
sg83
g2891
sg76
(lp2907
g69
(g70
g71
NtRp2908
(dp2909
g74
(dp2910
g82
I5
ssg83
g2904
sg76
(lp2911
g2369
asbasbasbag69
(g85
g71
NtRp2912
(dp2913
g74
(dp2914
sg83
g79
sg76
(lp2915
g69
(g90
g71
NtRp2916
(dp2917
g74
(dp2918
g94
g95
ssg83
g2912
sg76
(lp2919
S'is_restful'
p2920
asbag69
(g90
g71
NtRp2921
(dp2922
g74
(dp2923
g101
g102
ssg83
g2912
sg76
(lp2924
S':'
asbag69
(g90
g71
NtRp2925
(dp2926
g74
(dp2927
sg83
g2912
sg76
(lp2928
g69
(g70
g71
NtRp2929
(dp2930
g74
(dp2931
g82
I5
ssg83
g2925
sg76
(lp2932
g112
asbasbasbag69
(g85
g71
NtRp2933
(dp2934
g74
(dp2935
sg83
g79
sg76
(lp2936
g69
(g90
g71
NtRp2937
(dp2938
g74
(dp2939
g94
g95
ssg83
g2933
sg76
(lp2940
S'now'
p2941
asbag69
(g90
g71
NtRp2942
(dp2943
g74
(dp2944
g101
g102
ssg83
g2933
sg76
(lp2945
S':'
asbag69
(g90
g71
NtRp2946
(dp2947
g74
(dp2948
sg83
g2933
sg76
(lp2949
g69
(g70
g71
NtRp2950
(dp2951
g74
(dp2952
g82
I5
ssg83
g2946
sg76
(lp2953
S'datetime.datetime(2012, 12, 8, 14, 35, 42, 219000)'
p2954
asbasbasbag69
(g85
g71
NtRp2955
(dp2956
g74
(dp2957
sg83
g79
sg76
(lp2958
g69
(g90
g71
NtRp2959
(dp2960
g74
(dp2961
g94
g95
ssg83
g2955
sg76
(lp2962
S'post_vars'
p2963
asbag69
(g90
g71
NtRp2964
(dp2965
g74
(dp2966
g101
g102
ssg83
g2955
sg76
(lp2967
S':'
asbag69
(g90
g71
NtRp2968
(dp2969
g74
(dp2970
sg83
g2955
sg76
(lp2971
g69
(g70
g71
NtRp2972
(dp2973
g74
(dp2974
g82
I5
ssg83
g2968
sg76
(lp2975
g69
(g78
g71
NtRp2976
(dp2977
g74
(dp2978
g82
I4
ssg83
Nsg76
(lp2979
g69
(g85
g71
NtRp2980
(dp2981
g74
(dp2982
sg83
g2976
sg76
(lp2983
g69
(g90
g71
NtRp2984
(dp2985
g74
(dp2986
g94
g95
ssg83
g2980
sg76
(lp2987
S'comment'
p2988
asbag69
(g90
g71
NtRp2989
(dp2990
g74
(dp2991
g101
g102
ssg83
g2980
sg76
(lp2992
S':'
asbag69
(g90
g71
NtRp2993
(dp2994
g74
(dp2995
sg83
g2980
sg76
(lp2996
g69
(g70
g71
NtRp2997
(dp2998
g74
(dp2999
g82
I4
ssg83
g2993
sg76
(lp3000
S'Comment'
p3001
asbasbasbasbasbasbasbag69
(g85
g71
NtRp3002
(dp3003
g74
(dp3004
sg83
g79
sg76
(lp3005
g69
(g90
g71
NtRp3006
(dp3007
g74
(dp3008
g94
g95
ssg83
g3002
sg76
(lp3009
S'raw_args'
p3010
asbag69
(g90
g71
NtRp3011
(dp3012
g74
(dp3013
g101
g102
ssg83
g3002
sg76
(lp3014
S':'
asbag69
(g90
g71
NtRp3015
(dp3016
g74
(dp3017
sg83
g3002
sg76
(lp3018
g69
(g70
g71
NtRp3019
(dp3020
g74
(dp3021
g82
I5
ssg83
g3015
sg76
(lp3022
S'3'
asbasbasbag69
(g85
g71
NtRp3023
(dp3024
g74
(dp3025
sg83
g79
sg76
(lp3026
g69
(g90
g71
NtRp3027
(dp3028
g74
(dp3029
g94
g95
ssg83
g3023
sg76
(lp3030
S'raw_extension'
p3031
asbag69
(g90
g71
NtRp3032
(dp3033
g74
(dp3034
g101
g102
ssg83
g3023
sg76
(lp3035
S':'
asbag69
(g90
g71
NtRp3036
(dp3037
g74
(dp3038
sg83
g3023
sg76
(lp3039
g69
(g70
g71
NtRp3040
(dp3041
g74
(dp3042
g82
I5
ssg83
g3036
sg76
(lp3043
S'None'
p3044
asbasbasbag69
(g85
g71
NtRp3045
(dp3046
g74
(dp3047
sg83
g79
sg76
(lp3048
g69
(g90
g71
NtRp3049
(dp3050
g74
(dp3051
g94
g95
ssg83
g3045
sg76
(lp3052
S'url'
p3053
asbag69
(g90
g71
NtRp3054
(dp3055
g74
(dp3056
g101
g102
ssg83
g3045
sg76
(lp3057
S':'
asbag69
(g90
g71
NtRp3058
(dp3059
g74
(dp3060
sg83
g3045
sg76
(lp3061
g69
(g70
g71
NtRp3062
(dp3063
g74
(dp3064
g82
I5
ssg83
g3058
sg76
(lp3065
g1914
asbasbasbag69
(g85
g71
NtRp3066
(dp3067
g74
(dp3068
sg83
g79
sg76
(lp3069
g69
(g90
g71
NtRp3070
(dp3071
g74
(dp3072
g94
g95
ssg83
g3066
sg76
(lp3073
S'utcnow'
p3074
asbag69
(g90
g71
NtRp3075
(dp3076
g74
(dp3077
g101
g102
ssg83
g3066
sg76
(lp3078
S':'
asbag69
(g90
g71
NtRp3079
(dp3080
g74
(dp3081
sg83
g3066
sg76
(lp3082
g69
(g70
g71
NtRp3083
(dp3084
g74
(dp3085
g82
I5
ssg83
g3079
sg76
(lp3086
S'datetime.datetime(2012, 12, 8, 22, 35, 42, 219000)'
p3087
asbasbasbag69
(g85
g71
NtRp3088
(dp3089
g74
(dp3090
sg83
g79
sg76
(lp3091
g69
(g90
g71
NtRp3092
(dp3093
g74
(dp3094
g94
g95
ssg83
g3088
sg76
(lp3095
S'uuid'
p3096
asbag69
(g90
g71
NtRp3097
(dp3098
g74
(dp3099
g101
g102
ssg83
g3088
sg76
(lp3100
S':'
asbag69
(g90
g71
NtRp3101
(dp3102
g74
(dp3103
sg83
g3088
sg76
(lp3104
g69
(g70
g71
NtRp3105
(dp3106
g74
(dp3107
g82
I5
ssg83
g3101
sg76
(lp3108
S'rideshare/127.0.0.1.2012-12-08.14-35-42.06bf630d-8253-4af8-9779-1011455e2b6a'
p3109
asbasbasbag69
(g85
g71
NtRp3110
(dp3111
g74
(dp3112
sg83
g79
sg76
(lp3113
g69
(g90
g71
NtRp3114
(dp3115
g74
(dp3116
g94
g95
ssg83
g3110
sg76
(lp3117
S'vars'
p3118
asbag69
(g90
g71
NtRp3119
(dp3120
g74
(dp3121
g101
g102
ssg83
g3110
sg76
(lp3122
S':'
asbag69
(g90
g71
NtRp3123
(dp3124
g74
(dp3125
sg83
g3110
sg76
(lp3126
g69
(g70
g71
NtRp3127
(dp3128
g74
(dp3129
g82
I5
ssg83
g3123
sg76
(lp3130
g69
(g78
g71
NtRp3131
(dp3132
g74
(dp3133
g82
I4
ssg83
Nsg76
(lp3134
g69
(g85
g71
NtRp3135
(dp3136
g74
(dp3137
sg83
g3131
sg76
(lp3138
g69
(g90
g71
NtRp3139
(dp3140
g74
(dp3141
g94
g95
ssg83
g3135
sg76
(lp3142
g2988
asbag69
(g90
g71
NtRp3143
(dp3144
g74
(dp3145
g101
g102
ssg83
g3135
sg76
(lp3146
S':'
asbag69
(g90
g71
NtRp3147
(dp3148
g74
(dp3149
sg83
g3135
sg76
(lp3150
g69
(g70
g71
NtRp3151
(dp3152
g74
(dp3153
g82
I4
ssg83
g3147
sg76
(lp3154
g3001
asbasbasbasbasbasbasbag69
(g85
g71
NtRp3155
(dp3156
g74
(dp3157
sg83
g79
sg76
(lp3158
g69
(g90
g71
NtRp3159
(dp3160
g74
(dp3161
g94
g95
ssg83
g3155
sg76
(lp3162
S'wsgi'
p3163
asbag69
(g90
g71
NtRp3164
(dp3165
g74
(dp3166
g101
g102
ssg83
g3155
sg76
(lp3167
S':'
asbag69
(g90
g71
NtRp3168
(dp3169
g74
(dp3170
sg83
g3155
sg76
(lp3171
g69
(g70
g71
NtRp3172
(dp3173
g74
(dp3174
g82
I5
ssg83
g3168
sg76
(lp3175
g69
(g78
g71
NtRp3176
(dp3177
g74
(dp3178
g82
I4
ssg83
Nsg76
(lp3179
g69
(g85
g71
NtRp3180
(dp3181
g74
(dp3182
sg83
g3176
sg76
(lp3183
g69
(g90
g71
NtRp3184
(dp3185
g74
(dp3186
g94
g95
ssg83
g3180
sg76
(lp3187
S'environ'
p3188
asbag69
(g90
g71
NtRp3189
(dp3190
g74
(dp3191
g101
g102
ssg83
g3180
sg76
(lp3192
S':'
asbag69
(g90
g71
NtRp3193
(dp3194
g74
(dp3195
sg83
g3180
sg76
(lp3196
g69
(g70
g71
NtRp3197
(dp3198
g74
(dp3199
g82
I4
ssg83
g3193
sg76
(lp3200
g69
(g78
g71
NtRp3201
(dp3202
g74
(dp3203
g82
I3
ssg83
Nsg76
(lp3204
g69
(g85
g71
NtRp3205
(dp3206
g74
(dp3207
sg83
g3201
sg76
(lp3208
g69
(g90
g71
NtRp3209
(dp3210
g74
(dp3211
g94
g95
ssg83
g3205
sg76
(lp3212
S'CONTENT_LENGTH'
p3213
asbag69
(g90
g71
NtRp3214
(dp3215
g74
(dp3216
g101
g102
ssg83
g3205
sg76
(lp3217
S':'
asbag69
(g90
g71
NtRp3218
(dp3219
g74
(dp3220
sg83
g3205
sg76
(lp3221
g69
(g70
g71
NtRp3222
(dp3223
g74
(dp3224
g82
I3
ssg83
g3218
sg76
(lp3225
g1545
asbasbasbag69
(g85
g71
NtRp3226
(dp3227
g74
(dp3228
sg83
g3201
sg76
(lp3229
g69
(g90
g71
NtRp3230
(dp3231
g74
(dp3232
g94
g95
ssg83
g3226
sg76
(lp3233
S'CONTENT_TYPE'
p3234
asbag69
(g90
g71
NtRp3235
(dp3236
g74
(dp3237
g101
g102
ssg83
g3226
sg76
(lp3238
S':'
asbag69
(g90
g71
NtRp3239
(dp3240
g74
(dp3241
sg83
g3226
sg76
(lp3242
g69
(g70
g71
NtRp3243
(dp3244
g74
(dp3245
g82
I3
ssg83
g3239
sg76
(lp3246
g1567
asbasbasbag69
(g85
g71
NtRp3247
(dp3248
g74
(dp3249
sg83
g3201
sg76
(lp3250
g69
(g90
g71
NtRp3251
(dp3252
g74
(dp3253
g94
g95
ssg83
g3247
sg76
(lp3254
S'HTTP_ACCEPT'
p3255
asbag69
(g90
g71
NtRp3256
(dp3257
g74
(dp3258
g101
g102
ssg83
g3247
sg76
(lp3259
S':'
asbag69
(g90
g71
NtRp3260
(dp3261
g74
(dp3262
sg83
g3247
sg76
(lp3263
g69
(g70
g71
NtRp3264
(dp3265
g74
(dp3266
g82
I3
ssg83
g3260
sg76
(lp3267
g1654
asbasbasbag69
(g85
g71
NtRp3268
(dp3269
g74
(dp3270
sg83
g3201
sg76
(lp3271
g69
(g90
g71
NtRp3272
(dp3273
g74
(dp3274
g94
g95
ssg83
g3268
sg76
(lp3275
S'HTTP_ACCEPT_ENCODING'
p3276
asbag69
(g90
g71
NtRp3277
(dp3278
g74
(dp3279
g101
g102
ssg83
g3268
sg76
(lp3280
S':'
asbag69
(g90
g71
NtRp3281
(dp3282
g74
(dp3283
sg83
g3268
sg76
(lp3284
g69
(g70
g71
NtRp3285
(dp3286
g74
(dp3287
g82
I3
ssg83
g3281
sg76
(lp3288
g1676
asbasbasbag69
(g85
g71
NtRp3289
(dp3290
g74
(dp3291
sg83
g3201
sg76
(lp3292
g69
(g90
g71
NtRp3293
(dp3294
g74
(dp3295
g94
g95
ssg83
g3289
sg76
(lp3296
S'HTTP_ACCEPT_LANGUAGE'
p3297
asbag69
(g90
g71
NtRp3298
(dp3299
g74
(dp3300
g101
g102
ssg83
g3289
sg76
(lp3301
S':'
asbag69
(g90
g71
NtRp3302
(dp3303
g74
(dp3304
sg83
g3289
sg76
(lp3305
g69
(g70
g71
NtRp3306
(dp3307
g74
(dp3308
g82
I3
ssg83
g3302
sg76
(lp3309
g1698
asbasbasbag69
(g85
g71
NtRp3310
(dp3311
g74
(dp3312
sg83
g3201
sg76
(lp3313
g69
(g90
g71
NtRp3314
(dp3315
g74
(dp3316
g94
g95
ssg83
g3310
sg76
(lp3317
S'HTTP_CONNECTION'
p3318
asbag69
(g90
g71
NtRp3319
(dp3320
g74
(dp3321
g101
g102
ssg83
g3310
sg76
(lp3322
S':'
asbag69
(g90
g71
NtRp3323
(dp3324
g74
(dp3325
sg83
g3310
sg76
(lp3326
g69
(g70
g71
NtRp3327
(dp3328
g74
(dp3329
g82
I3
ssg83
g3323
sg76
(lp3330
g1720
asbasbasbag69
(g85
g71
NtRp3331
(dp3332
g74
(dp3333
sg83
g3201
sg76
(lp3334
g69
(g90
g71
NtRp3335
(dp3336
g74
(dp3337
g94
g95
ssg83
g3331
sg76
(lp3338
S'HTTP_CONTENT_LENGTH'
p3339
asbag69
(g90
g71
NtRp3340
(dp3341
g74
(dp3342
g101
g102
ssg83
g3331
sg76
(lp3343
S':'
asbag69
(g90
g71
NtRp3344
(dp3345
g74
(dp3346
sg83
g3331
sg76
(lp3347
g69
(g70
g71
NtRp3348
(dp3349
g74
(dp3350
g82
I3
ssg83
g3344
sg76
(lp3351
g1545
asbasbasbag69
(g85
g71
NtRp3352
(dp3353
g74
(dp3354
sg83
g3201
sg76
(lp3355
g69
(g90
g71
NtRp3356
(dp3357
g74
(dp3358
g94
g95
ssg83
g3352
sg76
(lp3359
S'HTTP_CONTENT_TYPE'
p3360
asbag69
(g90
g71
NtRp3361
(dp3362
g74
(dp3363
g101
g102
ssg83
g3352
sg76
(lp3364
S':'
asbag69
(g90
g71
NtRp3365
(dp3366
g74
(dp3367
sg83
g3352
sg76
(lp3368
g69
(g70
g71
NtRp3369
(dp3370
g74
(dp3371
g82
I3
ssg83
g3365
sg76
(lp3372
g1567
asbasbasbag69
(g85
g71
NtRp3373
(dp3374
g74
(dp3375
sg83
g3201
sg76
(lp3376
g69
(g90
g71
NtRp3377
(dp3378
g74
(dp3379
g94
g95
ssg83
g3373
sg76
(lp3380
S'HTTP_COOKIE'
p3381
asbag69
(g90
g71
NtRp3382
(dp3383
g74
(dp3384
g101
g102
ssg83
g3373
sg76
(lp3385
S':'
asbag69
(g90
g71
NtRp3386
(dp3387
g74
(dp3388
sg83
g3373
sg76
(lp3389
g69
(g70
g71
NtRp3390
(dp3391
g74
(dp3392
g82
I3
ssg83
g3386
sg76
(lp3393
g1784
asbasbasbag69
(g85
g71
NtRp3394
(dp3395
g74
(dp3396
sg83
g3201
sg76
(lp3397
g69
(g90
g71
NtRp3398
(dp3399
g74
(dp3400
g94
g95
ssg83
g3394
sg76
(lp3401
S'HTTP_HOST'
p3402
asbag69
(g90
g71
NtRp3403
(dp3404
g74
(dp3405
g101
g102
ssg83
g3394
sg76
(lp3406
S':'
asbag69
(g90
g71
NtRp3407
(dp3408
g74
(dp3409
sg83
g3394
sg76
(lp3410
g69
(g70
g71
NtRp3411
(dp3412
g74
(dp3413
g82
I3
ssg83
g3407
sg76
(lp3414
g1806
asbasbasbag69
(g85
g71
NtRp3415
(dp3416
g74
(dp3417
sg83
g3201
sg76
(lp3418
g69
(g90
g71
NtRp3419
(dp3420
g74
(dp3421
g94
g95
ssg83
g3415
sg76
(lp3422
S'HTTP_REFERER'
p3423
asbag69
(g90
g71
NtRp3424
(dp3425
g74
(dp3426
g101
g102
ssg83
g3415
sg76
(lp3427
S':'
asbag69
(g90
g71
NtRp3428
(dp3429
g74
(dp3430
sg83
g3415
sg76
(lp3431
g69
(g70
g71
NtRp3432
(dp3433
g74
(dp3434
g82
I3
ssg83
g3428
sg76
(lp3435
g1828
asbasbasbag69
(g85
g71
NtRp3436
(dp3437
g74
(dp3438
sg83
g3201
sg76
(lp3439
g69
(g90
g71
NtRp3440
(dp3441
g74
(dp3442
g94
g95
ssg83
g3436
sg76
(lp3443
S'HTTP_USER_AGENT'
p3444
asbag69
(g90
g71
NtRp3445
(dp3446
g74
(dp3447
g101
g102
ssg83
g3436
sg76
(lp3448
S':'
asbag69
(g90
g71
NtRp3449
(dp3450
g74
(dp3451
sg83
g3436
sg76
(lp3452
g69
(g70
g71
NtRp3453
(dp3454
g74
(dp3455
g82
I3
ssg83
g3449
sg76
(lp3456
g1850
asbasbasbag69
(g85
g71
NtRp3457
(dp3458
g74
(dp3459
sg83
g3201
sg76
(lp3460
g69
(g90
g71
NtRp3461
(dp3462
g74
(dp3463
g94
g95
ssg83
g3457
sg76
(lp3464
S'PATH_INFO'
p3465
asbag69
(g90
g71
NtRp3466
(dp3467
g74
(dp3468
g101
g102
ssg83
g3457
sg76
(lp3469
S':'
asbag69
(g90
g71
NtRp3470
(dp3471
g74
(dp3472
sg83
g3457
sg76
(lp3473
g69
(g70
g71
NtRp3474
(dp3475
g74
(dp3476
g82
I3
ssg83
g3470
sg76
(lp3477
g1914
asbasbasbag69
(g85
g71
NtRp3478
(dp3479
g74
(dp3480
sg83
g3201
sg76
(lp3481
g69
(g90
g71
NtRp3482
(dp3483
g74
(dp3484
g94
g95
ssg83
g3478
sg76
(lp3485
S'QUERY_STRING'
p3486
asbag69
(g90
g71
NtRp3487
(dp3488
g74
(dp3489
g101
g102
ssg83
g3478
sg76
(lp3490
S':'
asbag69
(g90
g71
NtRp3491
(dp3492
g74
(dp3493
sg83
g3478
sg76
(lp3494
g69
(g70
g71
NtRp3495
(dp3496
g74
(dp3497
g82
I3
ssg83
g3491
sg76
(lp3498
S''
asbasbasbag69
(g85
g71
NtRp3499
(dp3500
g74
(dp3501
sg83
g3201
sg76
(lp3502
g69
(g90
g71
NtRp3503
(dp3504
g74
(dp3505
g94
g95
ssg83
g3499
sg76
(lp3506
S'REMOTE_ADDR'
p3507
asbag69
(g90
g71
NtRp3508
(dp3509
g74
(dp3510
g101
g102
ssg83
g3499
sg76
(lp3511
S':'
asbag69
(g90
g71
NtRp3512
(dp3513
g74
(dp3514
sg83
g3499
sg76
(lp3515
g69
(g70
g71
NtRp3516
(dp3517
g74
(dp3518
g82
I3
ssg83
g3512
sg76
(lp3519
g236
asbasbasbag69
(g85
g71
NtRp3520
(dp3521
g74
(dp3522
sg83
g3201
sg76
(lp3523
g69
(g90
g71
NtRp3524
(dp3525
g74
(dp3526
g94
g95
ssg83
g3520
sg76
(lp3527
S'REMOTE_PORT'
p3528
asbag69
(g90
g71
NtRp3529
(dp3530
g74
(dp3531
g101
g102
ssg83
g3520
sg76
(lp3532
S':'
asbag69
(g90
g71
NtRp3533
(dp3534
g74
(dp3535
sg83
g3520
sg76
(lp3536
g69
(g70
g71
NtRp3537
(dp3538
g74
(dp3539
g82
I3
ssg83
g3533
sg76
(lp3540
g1978
asbasbasbag69
(g85
g71
NtRp3541
(dp3542
g74
(dp3543
sg83
g3201
sg76
(lp3544
g69
(g90
g71
NtRp3545
(dp3546
g74
(dp3547
g94
g95
ssg83
g3541
sg76
(lp3548
S'REQUEST_METHOD'
p3549
asbag69
(g90
g71
NtRp3550
(dp3551
g74
(dp3552
g101
g102
ssg83
g3541
sg76
(lp3553
S':'
asbag69
(g90
g71
NtRp3554
(dp3555
g74
(dp3556
sg83
g3541
sg76
(lp3557
g69
(g70
g71
NtRp3558
(dp3559
g74
(dp3560
g82
I3
ssg83
g3554
sg76
(lp3561
g2000
asbasbasbag69
(g85
g71
NtRp3562
(dp3563
g74
(dp3564
sg83
g3201
sg76
(lp3565
g69
(g90
g71
NtRp3566
(dp3567
g74
(dp3568
g94
g95
ssg83
g3562
sg76
(lp3569
S'REQUEST_URI'
p3570
asbag69
(g90
g71
NtRp3571
(dp3572
g74
(dp3573
g101
g102
ssg83
g3562
sg76
(lp3574
S':'
asbag69
(g90
g71
NtRp3575
(dp3576
g74
(dp3577
sg83
g3562
sg76
(lp3578
g69
(g70
g71
NtRp3579
(dp3580
g74
(dp3581
g82
I3
ssg83
g3575
sg76
(lp3582
g1914
asbasbasbag69
(g85
g71
NtRp3583
(dp3584
g74
(dp3585
sg83
g3201
sg76
(lp3586
g69
(g90
g71
NtRp3587
(dp3588
g74
(dp3589
g94
g95
ssg83
g3583
sg76
(lp3590
S'SCRIPT_NAME'
p3591
asbag69
(g90
g71
NtRp3592
(dp3593
g74
(dp3594
g101
g102
ssg83
g3583
sg76
(lp3595
S':'
asbag69
(g90
g71
NtRp3596
(dp3597
g74
(dp3598
sg83
g3583
sg76
(lp3599
g69
(g70
g71
NtRp3600
(dp3601
g74
(dp3602
g82
I3
ssg83
g3596
sg76
(lp3603
S''
asbasbasbag69
(g85
g71
NtRp3604
(dp3605
g74
(dp3606
sg83
g3201
sg76
(lp3607
g69
(g90
g71
NtRp3608
(dp3609
g74
(dp3610
g94
g95
ssg83
g3604
sg76
(lp3611
S'SERVER_NAME'
p3612
asbag69
(g90
g71
NtRp3613
(dp3614
g74
(dp3615
g101
g102
ssg83
g3604
sg76
(lp3616
S':'
asbag69
(g90
g71
NtRp3617
(dp3618
g74
(dp3619
sg83
g3604
sg76
(lp3620
g69
(g70
g71
NtRp3621
(dp3622
g74
(dp3623
g82
I3
ssg83
g3617
sg76
(lp3624
g2064
asbasbasbag69
(g85
g71
NtRp3625
(dp3626
g74
(dp3627
sg83
g3201
sg76
(lp3628
g69
(g90
g71
NtRp3629
(dp3630
g74
(dp3631
g94
g95
ssg83
g3625
sg76
(lp3632
S'SERVER_PORT'
p3633
asbag69
(g90
g71
NtRp3634
(dp3635
g74
(dp3636
g101
g102
ssg83
g3625
sg76
(lp3637
S':'
asbag69
(g90
g71
NtRp3638
(dp3639
g74
(dp3640
sg83
g3625
sg76
(lp3641
g69
(g70
g71
NtRp3642
(dp3643
g74
(dp3644
g82
I3
ssg83
g3638
sg76
(lp3645
g2086
asbasbasbag69
(g85
g71
NtRp3646
(dp3647
g74
(dp3648
sg83
g3201
sg76
(lp3649
g69
(g90
g71
NtRp3650
(dp3651
g74
(dp3652
g94
g95
ssg83
g3646
sg76
(lp3653
S'SERVER_PROTOCOL'
p3654
asbag69
(g90
g71
NtRp3655
(dp3656
g74
(dp3657
g101
g102
ssg83
g3646
sg76
(lp3658
S':'
asbag69
(g90
g71
NtRp3659
(dp3660
g74
(dp3661
sg83
g3646
sg76
(lp3662
g69
(g70
g71
NtRp3663
(dp3664
g74
(dp3665
g82
I3
ssg83
g3659
sg76
(lp3666
g2108
asbasbasbag69
(g85
g71
NtRp3667
(dp3668
g74
(dp3669
sg83
g3201
sg76
(lp3670
g69
(g90
g71
NtRp3671
(dp3672
g74
(dp3673
g94
g95
ssg83
g3667
sg76
(lp3674
S'SERVER_SOFTWARE'
p3675
asbag69
(g90
g71
NtRp3676
(dp3677
g74
(dp3678
g101
g102
ssg83
g3667
sg76
(lp3679
S':'
asbag69
(g90
g71
NtRp3680
(dp3681
g74
(dp3682
sg83
g3667
sg76
(lp3683
g69
(g70
g71
NtRp3684
(dp3685
g74
(dp3686
g82
I3
ssg83
g3680
sg76
(lp3687
g2130
asbasbasbag69
(g85
g71
NtRp3688
(dp3689
g74
(dp3690
sg83
g3201
sg76
(lp3691
g69
(g90
g71
NtRp3692
(dp3693
g74
(dp3694
g94
g95
ssg83
g3688
sg76
(lp3695
S'wsgi.errors'
p3696
asbag69
(g90
g71
NtRp3697
(dp3698
g74
(dp3699
g101
g102
ssg83
g3688
sg76
(lp3700
S':'
asbag69
(g90
g71
NtRp3701
(dp3702
g74
(dp3703
sg83
g3688
sg76
(lp3704
g69
(g70
g71
NtRp3705
(dp3706
g74
(dp3707
g82
I3
ssg83
g3701
sg76
(lp3708
S"<open file '<stderr>', mode 'w' at 0x01DA50D0>"
p3709
asbasbasbag69
(g85
g71
NtRp3710
(dp3711
g74
(dp3712
sg83
g3201
sg76
(lp3713
g69
(g90
g71
NtRp3714
(dp3715
g74
(dp3716
g94
g95
ssg83
g3710
sg76
(lp3717
S'wsgi.file_wrapper'
p3718
asbag69
(g90
g71
NtRp3719
(dp3720
g74
(dp3721
g101
g102
ssg83
g3710
sg76
(lp3722
S':'
asbag69
(g90
g71
NtRp3723
(dp3724
g74
(dp3725
sg83
g3710
sg76
(lp3726
g69
(g70
g71
NtRp3727
(dp3728
g74
(dp3729
g82
I3
ssg83
g3723
sg76
(lp3730
S'<class wsgiref.util.FileWrapper at 0x02B58688>'
p3731
asbasbasbag69
(g85
g71
NtRp3732
(dp3733
g74
(dp3734
sg83
g3201
sg76
(lp3735
g69
(g90
g71
NtRp3736
(dp3737
g74
(dp3738
g94
g95
ssg83
g3732
sg76
(lp3739
S'wsgi.input'
p3740
asbag69
(g90
g71
NtRp3741
(dp3742
g74
(dp3743
g101
g102
ssg83
g3732
sg76
(lp3744
S':'
asbag69
(g90
g71
NtRp3745
(dp3746
g74
(dp3747
sg83
g3732
sg76
(lp3748
g69
(g70
g71
NtRp3749
(dp3750
g74
(dp3751
g82
I3
ssg83
g3745
sg76
(lp3752
S"<open file '<fdopen>', mode 'w+b' at 0x068BED88>"
p3753
asbasbasbag69
(g85
g71
NtRp3754
(dp3755
g74
(dp3756
sg83
g3201
sg76
(lp3757
g69
(g90
g71
NtRp3758
(dp3759
g74
(dp3760
g94
g95
ssg83
g3754
sg76
(lp3761
S'wsgi.multiprocess'
p3762
asbag69
(g90
g71
NtRp3763
(dp3764
g74
(dp3765
g101
g102
ssg83
g3754
sg76
(lp3766
S':'
asbag69
(g90
g71
NtRp3767
(dp3768
g74
(dp3769
sg83
g3754
sg76
(lp3770
g69
(g70
g71
NtRp3771
(dp3772
g74
(dp3773
g82
I3
ssg83
g3767
sg76
(lp3774
g112
asbasbasbag69
(g85
g71
NtRp3775
(dp3776
g74
(dp3777
sg83
g3201
sg76
(lp3778
g69
(g90
g71
NtRp3779
(dp3780
g74
(dp3781
g94
g95
ssg83
g3775
sg76
(lp3782
S'wsgi.multithread'
p3783
asbag69
(g90
g71
NtRp3784
(dp3785
g74
(dp3786
g101
g102
ssg83
g3775
sg76
(lp3787
S':'
asbag69
(g90
g71
NtRp3788
(dp3789
g74
(dp3790
sg83
g3775
sg76
(lp3791
g69
(g70
g71
NtRp3792
(dp3793
g74
(dp3794
g82
I3
ssg83
g3788
sg76
(lp3795
g2369
asbasbasbag69
(g85
g71
NtRp3796
(dp3797
g74
(dp3798
sg83
g3201
sg76
(lp3799
g69
(g90
g71
NtRp3800
(dp3801
g74
(dp3802
g94
g95
ssg83
g3796
sg76
(lp3803
S'wsgi.run_once'
p3804
asbag69
(g90
g71
NtRp3805
(dp3806
g74
(dp3807
g101
g102
ssg83
g3796
sg76
(lp3808
S':'
asbag69
(g90
g71
NtRp3809
(dp3810
g74
(dp3811
sg83
g3796
sg76
(lp3812
g69
(g70
g71
NtRp3813
(dp3814
g74
(dp3815
g82
I3
ssg83
g3809
sg76
(lp3816
g112
asbasbasbag69
(g85
g71
NtRp3817
(dp3818
g74
(dp3819
sg83
g3201
sg76
(lp3820
g69
(g90
g71
NtRp3821
(dp3822
g74
(dp3823
g94
g95
ssg83
g3817
sg76
(lp3824
S'wsgi.url_scheme'
p3825
asbag69
(g90
g71
NtRp3826
(dp3827
g74
(dp3828
g101
g102
ssg83
g3817
sg76
(lp3829
S':'
asbag69
(g90
g71
NtRp3830
(dp3831
g74
(dp3832
sg83
g3817
sg76
(lp3833
g69
(g70
g71
NtRp3834
(dp3835
g74
(dp3836
g82
I3
ssg83
g3830
sg76
(lp3837
g2412
asbasbasbag69
(g85
g71
NtRp3838
(dp3839
g74
(dp3840
sg83
g3201
sg76
(lp3841
g69
(g90
g71
NtRp3842
(dp3843
g74
(dp3844
g94
g95
ssg83
g3838
sg76
(lp3845
S'wsgi.version'
p3846
asbag69
(g90
g71
NtRp3847
(dp3848
g74
(dp3849
g101
g102
ssg83
g3838
sg76
(lp3850
S':'
asbag69
(g90
g71
NtRp3851
(dp3852
g74
(dp3853
sg83
g3838
sg76
(lp3854
g69
(g70
g71
NtRp3855
(dp3856
g74
(dp3857
g82
I3
ssg83
g3851
sg76
(lp3858
S'1'
asbasbasbasbasbasbasbasbasbasbasbasbasbsS'frames'
p3859
(lp3860
(dp3861
S'file'
p3862
S'C:\\Users\\Owner\\Desktop\\web2py\\gluon\\restricted.py'
p3863
sS'dump'
p3864
(dp3865
sS'lnum'
p3866
I209
sS'lines'
p3867
(dp3868
sS'call'
p3869
S"(code='# -*- coding: utf-8 -*-\\n# this file is released ...))\\n\\nresponse._vars=response._caller(add_comment)\\n', environment={'A': <class 'gluon.html.A'>, 'Auth': <class 'gluon.tools.Auth'>, 'B': <class 'gluon.html.B'>, 'BEAUTIFY': <class 'gluon.html.BEAUTIFY'>, 'BODY': <class 'gluon.html.BODY'>, 'BR': <class 'gluon.html.BR'>, 'BUTTON': <class 'gluon.html.BUTTON'>, 'CAT': <class 'gluon.html.CAT'>, 'CENTER': <class 'gluon.html.CENTER'>, 'CLEANUP': <class 'gluon.validators.CLEANUP'>, ...}, layer=r'C:\\Users\\Owner\\Desktop\\web2py\\applications\\rideshare\\controllers/default.py')"
p3870
sS'func'
p3871
S'restricted'
p3872
sa(dp3873
g3862
S'C:\\Users\\Owner\\Desktop\\web2py\\applications\\rideshare\\controllers\\default.py'
p3874
sg3864
(dp3875
sg3866
I196
sg3867
(dp3876
I192
S"      LOAD('default','data.load',args='tables',ajax=True,user_signature=True)"
p3877
sI193
S'    """'
p3878
sI194
S'    return dict(form=crud())'
p3879
sI185
S'    http://..../[app]/default/data/update/[table]/[id]'
p3880
sI186
S'    http://..../[app]/default/data/delete/[table]/[id]'
p3881
sI187
S'    http://..../[app]/default/data/select/[table]'
p3882
sI188
S'    http://..../[app]/default/data/search/[table]'
p3883
sI189
S'    but URLs must be signed, i.e. linked with'
p3884
sI190
S"      A('table',_href=URL('data/tables',user_signature=True))"
p3885
sI191
S'    or with the signed load operator'
p3886
ssg3869
S'()'
p3887
sg3871
S'<module>'
p3888
sa(dp3889
g3862
S'C:\\Users\\Owner\\Desktop\\web2py\\gluon\\globals.py'
p3890
sg3864
(dp3891
sg3866
I186
sg3867
(dp3892
sg3869
S'(f=<function add_comment>)'
p3893
sg3871
S'<lambda>'
p3894
sa(dp3895
g3862
S'C:\\Users\\Owner\\Desktop\\web2py\\gluon\\tools.py'
p3896
sg3864
(dp3897
sg3866
I2809
sg3867
(dp3898
sg3869
S'(*a=(), **b={})'
p3899
sg3871
S'f'
sa(dp3900
g3862
S'C:\\Users\\Owner\\Desktop\\web2py\\applications\\rideshare\\controllers\\default.py'
p3901
sg3864
(dp3902
sg3866
I43
sg3867
(dp3903
I38
S"    rides = db.ride(request.args[0]) or redirect(URL('index'))"
p3904
sI39
S'    form = SQLFORM.factory('
p3905
sI40
S"    Field('comment', 'text', requires=IS_NOT_EMPTY())"
p3906
sI41
S'    )'
p3907
sI42
S'    if form.process().accepted:'
p3908
sI43
S'        rides.update_record(comment=form.vars.comment)'
p3909
sI44
S"        redirect(URL('view', args=[rides.id]))"
p3910
sI45
S'    return dict(rides=rides, user_id = auth.user_id, form = form, sesion=session)'
p3911
sI46
S''
sI47
S'@auth.requires_login()'
p3912
ssg3869
S'()'
p3913
sg3871
S'add_comment'
p3914
sa(dp3915
g3862
S'C:\\Users\\Owner\\Desktop\\web2py\\gluon\\dal.py'
p3916
sg3864
(dp3917
sg3866
I8878
sg3867
(dp3918
sg3869
S'(self=<gluon.dal.RecordUpdater object>, **fields={})'
p3919
sg3871
S'__call__'
p3920
sa(dp3921
g3862
S'C:\\Users\\Owner\\Desktop\\web2py\\gluon\\dal.py'
p3922
sg3864
(dp3923
sg3866
I8789
sg3867
(dp3924
sg3869
S'(self=<Set (ride.id = 3)>, **update_fields={})'
p3925
sg3871
S'update'
p3926
sasS'pyver'
p3927
S'Python 2.7: C:\\Users\\Owner\\Desktop\\web2py\\web2py.exe'
p3928
sS'session'
p3929
g69
(g70
g71
NtRp3930
(dp3931
g74
(dp3932
sg76
(lp3933
g69
(g78
g71
NtRp3934
(dp3935
g74
(dp3936
g82
I5
ssg83
Nsg76
(lp3937
g69
(g85
g71
NtRp3938
(dp3939
g74
(dp3940
sg83
g3934
sg76
(lp3941
g69
(g90
g71
NtRp3942
(dp3943
g74
(dp3944
g94
g95
ssg83
g3938
sg76
(lp3945
S'auth'
p3946
asbag69
(g90
g71
NtRp3947
(dp3948
g74
(dp3949
g101
g102
ssg83
g3938
sg76
(lp3950
S':'
asbag69
(g90
g71
NtRp3951
(dp3952
g74
(dp3953
sg83
g3938
sg76
(lp3954
g69
(g70
g71
NtRp3955
(dp3956
g74
(dp3957
g82
I5
ssg83
g3951
sg76
(lp3958
g69
(g78
g71
NtRp3959
(dp3960
g74
(dp3961
g82
I4
ssg83
Nsg76
(lp3962
g69
(g85
g71
NtRp3963
(dp3964
g74
(dp3965
sg83
g3959
sg76
(lp3966
g69
(g90
g71
NtRp3967
(dp3968
g74
(dp3969
g94
g95
ssg83
g3963
sg76
(lp3970
S'expiration'
p3971
asbag69
(g90
g71
NtRp3972
(dp3973
g74
(dp3974
g101
g102
ssg83
g3963
sg76
(lp3975
S':'
asbag69
(g90
g71
NtRp3976
(dp3977
g74
(dp3978
sg83
g3963
sg76
(lp3979
g69
(g70
g71
NtRp3980
(dp3981
g74
(dp3982
g82
I4
ssg83
g3976
sg76
(lp3983
S'3600'
p3984
asbasbasbag69
(g85
g71
NtRp3985
(dp3986
g74
(dp3987
sg83
g3959
sg76
(lp3988
g69
(g90
g71
NtRp3989
(dp3990
g74
(dp3991
g94
g95
ssg83
g3985
sg76
(lp3992
S'hmac_key'
p3993
asbag69
(g90
g71
NtRp3994
(dp3995
g74
(dp3996
g101
g102
ssg83
g3985
sg76
(lp3997
S':'
asbag69
(g90
g71
NtRp3998
(dp3999
g74
(dp4000
sg83
g3985
sg76
(lp4001
g69
(g70
g71
NtRp4002
(dp4003
g74
(dp4004
g82
I4
ssg83
g3998
sg76
(lp4005
S'472464cd-9395-4439-900a-4759706a6793'
p4006
asbasbasbag69
(g85
g71
NtRp4007
(dp4008
g74
(dp4009
sg83
g3959
sg76
(lp4010
g69
(g90
g71
NtRp4011
(dp4012
g74
(dp4013
g94
g95
ssg83
g4007
sg76
(lp4014
S'last_visit'
p4015
asbag69
(g90
g71
NtRp4016
(dp4017
g74
(dp4018
g101
g102
ssg83
g4007
sg76
(lp4019
S':'
asbag69
(g90
g71
NtRp4020
(dp4021
g74
(dp4022
sg83
g4007
sg76
(lp4023
g69
(g70
g71
NtRp4024
(dp4025
g74
(dp4026
g82
I4
ssg83
g4020
sg76
(lp4027
S'datetime.datetime(2012, 12, 8, 14, 35, 35, 59000)'
p4028
asbasbasbag69
(g85
g71
NtRp4029
(dp4030
g74
(dp4031
sg83
g3959
sg76
(lp4032
g69
(g90
g71
NtRp4033
(dp4034
g74
(dp4035
g94
g95
ssg83
g4029
sg76
(lp4036
S'remember'
p4037
asbag69
(g90
g71
NtRp4038
(dp4039
g74
(dp4040
g101
g102
ssg83
g4029
sg76
(lp4041
S':'
asbag69
(g90
g71
NtRp4042
(dp4043
g74
(dp4044
sg83
g4029
sg76
(lp4045
g69
(g70
g71
NtRp4046
(dp4047
g74
(dp4048
g82
I4
ssg83
g4042
sg76
(lp4049
g112
asbasbasbag69
(g85
g71
NtRp4050
(dp4051
g74
(dp4052
sg83
g3959
sg76
(lp4053
g69
(g90
g71
NtRp4054
(dp4055
g74
(dp4056
g94
g95
ssg83
g4050
sg76
(lp4057
S'user'
p4058
asbag69
(g90
g71
NtRp4059
(dp4060
g74
(dp4061
g101
g102
ssg83
g4050
sg76
(lp4062
S':'
asbag69
(g90
g71
NtRp4063
(dp4064
g74
(dp4065
sg83
g4050
sg76
(lp4066
g69
(g70
g71
NtRp4067
(dp4068
g74
(dp4069
g82
I4
ssg83
g4063
sg76
(lp4070
g69
(g78
g71
NtRp4071
(dp4072
g74
(dp4073
g82
I3
ssg83
Nsg76
(lp4074
g69
(g85
g71
NtRp4075
(dp4076
g74
(dp4077
sg83
g4071
sg76
(lp4078
g69
(g90
g71
NtRp4079
(dp4080
g74
(dp4081
g94
g95
ssg83
g4075
sg76
(lp4082
S'about_me'
p4083
asbag69
(g90
g71
NtRp4084
(dp4085
g74
(dp4086
g101
g102
ssg83
g4075
sg76
(lp4087
S':'
asbag69
(g90
g71
NtRp4088
(dp4089
g74
(dp4090
sg83
g4075
sg76
(lp4091
g69
(g70
g71
NtRp4092
(dp4093
g74
(dp4094
g82
I3
ssg83
g4088
sg76
(lp4095
S''
asbasbasbag69
(g85
g71
NtRp4096
(dp4097
g74
(dp4098
sg83
g4071
sg76
(lp4099
g69
(g90
g71
NtRp4100
(dp4101
g74
(dp4102
g94
g95
ssg83
g4096
sg76
(lp4103
S'email'
p4104
asbag69
(g90
g71
NtRp4105
(dp4106
g74
(dp4107
g101
g102
ssg83
g4096
sg76
(lp4108
S':'
asbag69
(g90
g71
NtRp4109
(dp4110
g74
(dp4111
sg83
g4096
sg76
(lp4112
g69
(g70
g71
NtRp4113
(dp4114
g74
(dp4115
g82
I3
ssg83
g4109
sg76
(lp4116
S'eboning@ucsc.edu'
p4117
asbasbasbag69
(g85
g71
NtRp4118
(dp4119
g74
(dp4120
sg83
g4071
sg76
(lp4121
g69
(g90
g71
NtRp4122
(dp4123
g74
(dp4124
g94
g95
ssg83
g4118
sg76
(lp4125
S'first_name'
p4126
asbag69
(g90
g71
NtRp4127
(dp4128
g74
(dp4129
g101
g102
ssg83
g4118
sg76
(lp4130
S':'
asbag69
(g90
g71
NtRp4131
(dp4132
g74
(dp4133
sg83
g4118
sg76
(lp4134
g69
(g70
g71
NtRp4135
(dp4136
g74
(dp4137
g82
I3
ssg83
g4131
sg76
(lp4138
S'Edward'
p4139
asbasbasbag69
(g85
g71
NtRp4140
(dp4141
g74
(dp4142
sg83
g4071
sg76
(lp4143
g69
(g90
g71
NtRp4144
(dp4145
g74
(dp4146
g94
g95
ssg83
g4140
sg76
(lp4147
S'id'
p4148
asbag69
(g90
g71
NtRp4149
(dp4150
g74
(dp4151
g101
g102
ssg83
g4140
sg76
(lp4152
S':'
asbag69
(g90
g71
NtRp4153
(dp4154
g74
(dp4155
sg83
g4140
sg76
(lp4156
g69
(g70
g71
NtRp4157
(dp4158
g74
(dp4159
g82
I3
ssg83
g4153
sg76
(lp4160
S'1'
asbasbasbag69
(g85
g71
NtRp4161
(dp4162
g74
(dp4163
sg83
g4071
sg76
(lp4164
g69
(g90
g71
NtRp4165
(dp4166
g74
(dp4167
g94
g95
ssg83
g4161
sg76
(lp4168
S'last_name'
p4169
asbag69
(g90
g71
NtRp4170
(dp4171
g74
(dp4172
g101
g102
ssg83
g4161
sg76
(lp4173
S':'
asbag69
(g90
g71
NtRp4174
(dp4175
g74
(dp4176
sg83
g4161
sg76
(lp4177
g69
(g70
g71
NtRp4178
(dp4179
g74
(dp4180
g82
I3
ssg83
g4174
sg76
(lp4181
S'Boning'
p4182
asbasbasbag69
(g85
g71
NtRp4183
(dp4184
g74
(dp4185
sg83
g4071
sg76
(lp4186
g69
(g90
g71
NtRp4187
(dp4188
g74
(dp4189
g94
g95
ssg83
g4183
sg76
(lp4190
S'password'
p4191
asbag69
(g90
g71
NtRp4192
(dp4193
g74
(dp4194
g101
g102
ssg83
g4183
sg76
(lp4195
S':'
asbag69
(g90
g71
NtRp4196
(dp4197
g74
(dp4198
sg83
g4183
sg76
(lp4199
g69
(g70
g71
NtRp4200
(dp4201
g74
(dp4202
g82
I3
ssg83
g4196
sg76
(lp4203
S'pbkdf2(1000,20,sha512)$b367d07c7776fb45$c6edd021b60c614339a13d17b76daaf37c67e949'
p4204
asbasbasbag69
(g85
g71
NtRp4205
(dp4206
g74
(dp4207
sg83
g4071
sg76
(lp4208
g69
(g90
g71
NtRp4209
(dp4210
g74
(dp4211
g94
g95
ssg83
g4205
sg76
(lp4212
S'profile_picture'
p4213
asbag69
(g90
g71
NtRp4214
(dp4215
g74
(dp4216
g101
g102
ssg83
g4205
sg76
(lp4217
S':'
asbag69
(g90
g71
NtRp4218
(dp4219
g74
(dp4220
sg83
g4205
sg76
(lp4221
g69
(g70
g71
NtRp4222
(dp4223
g74
(dp4224
g82
I3
ssg83
g4218
sg76
(lp4225
S''
asbasbasbag69
(g85
g71
NtRp4226
(dp4227
g74
(dp4228
sg83
g4071
sg76
(lp4229
g69
(g90
g71
NtRp4230
(dp4231
g74
(dp4232
g94
g95
ssg83
g4226
sg76
(lp4233
S'registration_id'
p4234
asbag69
(g90
g71
NtRp4235
(dp4236
g74
(dp4237
g101
g102
ssg83
g4226
sg76
(lp4238
S':'
asbag69
(g90
g71
NtRp4239
(dp4240
g74
(dp4241
sg83
g4226
sg76
(lp4242
g69
(g70
g71
NtRp4243
(dp4244
g74
(dp4245
g82
I3
ssg83
g4239
sg76
(lp4246
S''
asbasbasbag69
(g85
g71
NtRp4247
(dp4248
g74
(dp4249
sg83
g4071
sg76
(lp4250
g69
(g90
g71
NtRp4251
(dp4252
g74
(dp4253
g94
g95
ssg83
g4247
sg76
(lp4254
S'registration_key'
p4255
asbag69
(g90
g71
NtRp4256
(dp4257
g74
(dp4258
g101
g102
ssg83
g4247
sg76
(lp4259
S':'
asbag69
(g90
g71
NtRp4260
(dp4261
g74
(dp4262
sg83
g4247
sg76
(lp4263
g69
(g70
g71
NtRp4264
(dp4265
g74
(dp4266
g82
I3
ssg83
g4260
sg76
(lp4267
S''
asbasbasbag69
(g85
g71
NtRp4268
(dp4269
g74
(dp4270
sg83
g4071
sg76
(lp4271
g69
(g90
g71
NtRp4272
(dp4273
g74
(dp4274
g94
g95
ssg83
g4268
sg76
(lp4275
S'reset_password_key'
p4276
asbag69
(g90
g71
NtRp4277
(dp4278
g74
(dp4279
g101
g102
ssg83
g4268
sg76
(lp4280
S':'
asbag69
(g90
g71
NtRp4281
(dp4282
g74
(dp4283
sg83
g4268
sg76
(lp4284
g69
(g70
g71
NtRp4285
(dp4286
g74
(dp4287
g82
I3
ssg83
g4281
sg76
(lp4288
S''
asbasbasbag69
(g85
g71
NtRp4289
(dp4290
g74
(dp4291
sg83
g4071
sg76
(lp4292
g69
(g90
g71
NtRp4293
(dp4294
g74
(dp4295
g94
g95
ssg83
g4289
sg76
(lp4296
S'sex'
p4297
asbag69
(g90
g71
NtRp4298
(dp4299
g74
(dp4300
g101
g102
ssg83
g4289
sg76
(lp4301
S':'
asbag69
(g90
g71
NtRp4302
(dp4303
g74
(dp4304
sg83
g4289
sg76
(lp4305
g69
(g70
g71
NtRp4306
(dp4307
g74
(dp4308
g82
I3
ssg83
g4302
sg76
(lp4309
S'Male'
p4310
asbasbasbasbasbasbasbag69
(g85
g71
NtRp4311
(dp4312
g74
(dp4313
sg83
g3959
sg76
(lp4314
g69
(g90
g71
NtRp4315
(dp4316
g74
(dp4317
g94
g95
ssg83
g4311
sg76
(lp4318
S'user_groups'
p4319
asbag69
(g90
g71
NtRp4320
(dp4321
g74
(dp4322
g101
g102
ssg83
g4311
sg76
(lp4323
S':'
asbag69
(g90
g71
NtRp4324
(dp4325
g74
(dp4326
sg83
g4311
sg76
(lp4327
g69
(g70
g71
NtRp4328
(dp4329
g74
(dp4330
g82
I4
ssg83
g4324
sg76
(lp4331
g69
(g78
g71
NtRp4332
(dp4333
g74
(dp4334
g82
I3
ssg83
Nsg76
(lp4335
g69
(g85
g71
NtRp4336
(dp4337
g74
(dp4338
sg83
g4332
sg76
(lp4339
g69
(g90
g71
NtRp4340
(dp4341
g74
(dp4342
g94
g95
ssg83
g4336
sg76
(lp4343
S'1'
asbag69
(g90
g71
NtRp4344
(dp4345
g74
(dp4346
g101
g102
ssg83
g4336
sg76
(lp4347
S':'
asbag69
(g90
g71
NtRp4348
(dp4349
g74
(dp4350
sg83
g4336
sg76
(lp4351
g69
(g70
g71
NtRp4352
(dp4353
g74
(dp4354
g82
I3
ssg83
g4348
sg76
(lp4355
S'user_1'
p4356
asbasbasbasbasbasbasbasbasbasbasbag69
(g85
g71
NtRp4357
(dp4358
g74
(dp4359
sg83
g3934
sg76
(lp4360
g69
(g90
g71
NtRp4361
(dp4362
g74
(dp4363
g94
g95
ssg83
g4357
sg76
(lp4364
S'comments'
p4365
asbag69
(g90
g71
NtRp4366
(dp4367
g74
(dp4368
g101
g102
ssg83
g4357
sg76
(lp4369
S':'
asbag69
(g90
g71
NtRp4370
(dp4371
g74
(dp4372
sg83
g4357
sg76
(lp4373
g69
(g70
g71
NtRp4374
(dp4375
g74
(dp4376
g82
I5
ssg83
g4370
sg76
(lp4377
S'ABC'
p4378
asbasbasbag69
(g85
g71
NtRp4379
(dp4380
g74
(dp4381
sg83
g3934
sg76
(lp4382
g69
(g90
g71
NtRp4383
(dp4384
g74
(dp4385
g94
g95
ssg83
g4379
sg76
(lp4386
S'flash'
p4387
asbag69
(g90
g71
NtRp4388
(dp4389
g74
(dp4390
g101
g102
ssg83
g4379
sg76
(lp4391
S':'
asbag69
(g90
g71
NtRp4392
(dp4393
g74
(dp4394
sg83
g4379
sg76
(lp4395
g69
(g70
g71
NtRp4396
(dp4397
g74
(dp4398
g82
I5
ssg83
g4392
sg76
(lp4399
S'None'
p4400
asbasbasbasbasbsS'etype'
p4401
S"<type 'exceptions.SyntaxError'>"
p4402
sS'date'
p4403
S'Sat Dec 08 14:35:42 2012'
p4404
sS'response'
p4405
g69
(g70
g71
NtRp4406
(dp4407
g74
(dp4408
sg76
(lp4409
g69
(g78
g71
NtRp4410
(dp4411
g74
(dp4412
g82
I5
ssg83
Nsg76
(lp4413
g69
(g85
g71
NtRp4414
(dp4415
g74
(dp4416
sg83
g4410
sg76
(lp4417
g69
(g90
g71
NtRp4418
(dp4419
g74
(dp4420
g94
g95
ssg83
g4414
sg76
(lp4421
g179
asbag69
(g90
g71
NtRp4422
(dp4423
g74
(dp4424
g101
g102
ssg83
g4414
sg76
(lp4425
S':'
asbag69
(g90
g71
NtRp4426
(dp4427
g74
(dp4428
sg83
g4414
sg76
(lp4429
g69
(g70
g71
NtRp4430
(dp4431
g74
(dp4432
g82
I5
ssg83
g4426
sg76
(lp4433
S'<cStringIO.StringO object at 0x071709E0>'
p4434
asbasbasbag69
(g85
g71
NtRp4435
(dp4436
g74
(dp4437
sg83
g4410
sg76
(lp4438
g69
(g90
g71
NtRp4439
(dp4440
g74
(dp4441
g94
g95
ssg83
g4435
sg76
(lp4442
g267
asbag69
(g90
g71
NtRp4443
(dp4444
g74
(dp4445
g101
g102
ssg83
g4435
sg76
(lp4446
S':'
asbag69
(g90
g71
NtRp4447
(dp4448
g74
(dp4449
sg83
g4435
sg76
(lp4450
g69
(g70
g71
NtRp4451
(dp4452
g74
(dp4453
g82
I5
ssg83
g4447
sg76
(lp4454
g69
(g78
g71
NtRp4455
(dp4456
g74
(dp4457
g82
I4
ssg83
Nsg76
(lp4458
g69
(g85
g71
NtRp4459
(dp4460
g74
(dp4461
sg83
g4455
sg76
(lp4462
g69
(g90
g71
NtRp4463
(dp4464
g74
(dp4465
g94
g95
ssg83
g4459
sg76
(lp4466
S'session_id_rideshare'
p4467
asbag69
(g90
g71
NtRp4468
(dp4469
g74
(dp4470
g101
g102
ssg83
g4459
sg76
(lp4471
S':'
asbag69
(g90
g71
NtRp4472
(dp4473
g74
(dp4474
sg83
g4459
sg76
(lp4475
g69
(g70
g71
NtRp4476
(dp4477
g74
(dp4478
g82
I4
ssg83
g4472
sg76
(lp4479
g685
ag69
(g78
g71
NtRp4480
(dp4481
g74
(dp4482
g82
I3
ssg83
Nsg76
(lp4483
g69
(g85
g71
NtRp4484
(dp4485
g74
(dp4486
sg83
g4480
sg76
(lp4487
g69
(g90
g71
NtRp4488
(dp4489
g74
(dp4490
g94
g95
ssg83
g4484
sg76
(lp4491
g318
asbag69
(g90
g71
NtRp4492
(dp4493
g74
(dp4494
g101
g102
ssg83
g4484
sg76
(lp4495
S':'
asbag69
(g90
g71
NtRp4496
(dp4497
g74
(dp4498
sg83
g4484
sg76
(lp4499
g69
(g70
g71
NtRp4500
(dp4501
g74
(dp4502
g82
I3
ssg83
g4496
sg76
(lp4503
S''
asbasbasbag69
(g85
g71
NtRp4504
(dp4505
g74
(dp4506
sg83
g4480
sg76
(lp4507
g69
(g90
g71
NtRp4508
(dp4509
g74
(dp4510
g94
g95
ssg83
g4504
sg76
(lp4511
g339
asbag69
(g90
g71
NtRp4512
(dp4513
g74
(dp4514
g101
g102
ssg83
g4504
sg76
(lp4515
S':'
asbag69
(g90
g71
NtRp4516
(dp4517
g74
(dp4518
sg83
g4504
sg76
(lp4519
g69
(g70
g71
NtRp4520
(dp4521
g74
(dp4522
g82
I3
ssg83
g4516
sg76
(lp4523
S''
asbasbasbag69
(g85
g71
NtRp4524
(dp4525
g74
(dp4526
sg83
g4480
sg76
(lp4527
g69
(g90
g71
NtRp4528
(dp4529
g74
(dp4530
g94
g95
ssg83
g4524
sg76
(lp4531
g360
asbag69
(g90
g71
NtRp4532
(dp4533
g74
(dp4534
g101
g102
ssg83
g4524
sg76
(lp4535
S':'
asbag69
(g90
g71
NtRp4536
(dp4537
g74
(dp4538
sg83
g4524
sg76
(lp4539
g69
(g70
g71
NtRp4540
(dp4541
g74
(dp4542
g82
I3
ssg83
g4536
sg76
(lp4543
S''
asbasbasbag69
(g85
g71
NtRp4544
(dp4545
g74
(dp4546
sg83
g4480
sg76
(lp4547
g69
(g90
g71
NtRp4548
(dp4549
g74
(dp4550
g94
g95
ssg83
g4544
sg76
(lp4551
g381
asbag69
(g90
g71
NtRp4552
(dp4553
g74
(dp4554
g101
g102
ssg83
g4544
sg76
(lp4555
S':'
asbag69
(g90
g71
NtRp4556
(dp4557
g74
(dp4558
sg83
g4544
sg76
(lp4559
g69
(g70
g71
NtRp4560
(dp4561
g74
(dp4562
g82
I3
ssg83
g4556
sg76
(lp4563
S''
asbasbasbag69
(g85
g71
NtRp4564
(dp4565
g74
(dp4566
sg83
g4480
sg76
(lp4567
g69
(g90
g71
NtRp4568
(dp4569
g74
(dp4570
g94
g95
ssg83
g4564
sg76
(lp4571
g402
asbag69
(g90
g71
NtRp4572
(dp4573
g74
(dp4574
g101
g102
ssg83
g4564
sg76
(lp4575
S':'
asbag69
(g90
g71
NtRp4576
(dp4577
g74
(dp4578
sg83
g4564
sg76
(lp4579
g69
(g70
g71
NtRp4580
(dp4581
g74
(dp4582
g82
I3
ssg83
g4576
sg76
(lp4583
S''
asbasbasbag69
(g85
g71
NtRp4584
(dp4585
g74
(dp4586
sg83
g4480
sg76
(lp4587
g69
(g90
g71
NtRp4588
(dp4589
g74
(dp4590
g94
g95
ssg83
g4584
sg76
(lp4591
g423
asbag69
(g90
g71
NtRp4592
(dp4593
g74
(dp4594
g101
g102
ssg83
g4584
sg76
(lp4595
S':'
asbag69
(g90
g71
NtRp4596
(dp4597
g74
(dp4598
sg83
g4584
sg76
(lp4599
g69
(g70
g71
NtRp4600
(dp4601
g74
(dp4602
g82
I3
ssg83
g4596
sg76
(lp4603
S'/'
asbasbasbag69
(g85
g71
NtRp4604
(dp4605
g74
(dp4606
sg83
g4480
sg76
(lp4607
g69
(g90
g71
NtRp4608
(dp4609
g74
(dp4610
g94
g95
ssg83
g4604
sg76
(lp4611
g444
asbag69
(g90
g71
NtRp4612
(dp4613
g74
(dp4614
g101
g102
ssg83
g4604
sg76
(lp4615
S':'
asbag69
(g90
g71
NtRp4616
(dp4617
g74
(dp4618
sg83
g4604
sg76
(lp4619
g69
(g70
g71
NtRp4620
(dp4621
g74
(dp4622
g82
I3
ssg83
g4616
sg76
(lp4623
S''
asbasbasbag69
(g85
g71
NtRp4624
(dp4625
g74
(dp4626
sg83
g4480
sg76
(lp4627
g69
(g90
g71
NtRp4628
(dp4629
g74
(dp4630
g94
g95
ssg83
g4624
sg76
(lp4631
g465
asbag69
(g90
g71
NtRp4632
(dp4633
g74
(dp4634
g101
g102
ssg83
g4624
sg76
(lp4635
S':'
asbag69
(g90
g71
NtRp4636
(dp4637
g74
(dp4638
sg83
g4624
sg76
(lp4639
g69
(g70
g71
NtRp4640
(dp4641
g74
(dp4642
g82
I3
ssg83
g4636
sg76
(lp4643
S''
asbasbasbasbasbasbasbasbasbasbasbag69
(g85
g71
NtRp4644
(dp4645
g74
(dp4646
sg83
g4410
sg76
(lp4647
g69
(g90
g71
NtRp4648
(dp4649
g74
(dp4650
g94
g95
ssg83
g4644
sg76
(lp4651
S'delimiters'
p4652
asbag69
(g90
g71
NtRp4653
(dp4654
g74
(dp4655
g101
g102
ssg83
g4644
sg76
(lp4656
S':'
asbag69
(g90
g71
NtRp4657
(dp4658
g74
(dp4659
sg83
g4644
sg76
(lp4660
g69
(g70
g71
NtRp4661
(dp4662
g74
(dp4663
g82
I5
ssg83
g4657
sg76
(lp4664
g69
(g78
g71
NtRp4665
(dp4666
g74
(dp4667
g82
I4
ssg83
Nsg76
(lp4668
g69
(g85
g71
NtRp4669
(dp4670
g74
(dp4671
sg83
g4665
sg76
(lp4672
g69
(g90
g71
NtRp4673
(dp4674
g74
(dp4675
sg83
g4669
sg76
(lp4676
g69
(g70
g71
NtRp4677
(dp4678
g74
(dp4679
g82
I4
ssg83
g4673
sg76
(lp4680
S'{{'
p4681
asbasbasbag69
(g85
g71
NtRp4682
(dp4683
g74
(dp4684
sg83
g4665
sg76
(lp4685
g69
(g90
g71
NtRp4686
(dp4687
g74
(dp4688
sg83
g4682
sg76
(lp4689
g69
(g70
g71
NtRp4690
(dp4691
g74
(dp4692
g82
I4
ssg83
g4686
sg76
(lp4693
S'}}'
p4694
asbasbasbasbasbasbasbag69
(g85
g71
NtRp4695
(dp4696
g74
(dp4697
sg83
g4410
sg76
(lp4698
g69
(g90
g71
NtRp4699
(dp4700
g74
(dp4701
g94
g95
ssg83
g4695
sg76
(lp4702
S'files'
p4703
asbag69
(g90
g71
NtRp4704
(dp4705
g74
(dp4706
g101
g102
ssg83
g4695
sg76
(lp4707
S':'
asbag69
(g90
g71
NtRp4708
(dp4709
g74
(dp4710
sg83
g4695
sg76
(lp4711
g69
(g70
g71
NtRp4712
(dp4713
g74
(dp4714
g82
I5
ssg83
g4708
sg76
(lp4715
g69
(g78
g71
NtRp4716
(dp4717
g74
(dp4718
g82
I4
ssg83
Nsg76
(lp4719
sbasbasbasbag69
(g85
g71
NtRp4720
(dp4721
g74
(dp4722
sg83
g4410
sg76
(lp4723
g69
(g90
g71
NtRp4724
(dp4725
g74
(dp4726
g94
g95
ssg83
g4720
sg76
(lp4727
S'flash'
p4728
asbag69
(g90
g71
NtRp4729
(dp4730
g74
(dp4731
g101
g102
ssg83
g4720
sg76
(lp4732
S':'
asbag69
(g90
g71
NtRp4733
(dp4734
g74
(dp4735
sg83
g4720
sg76
(lp4736
g69
(g70
g71
NtRp4737
(dp4738
g74
(dp4739
g82
I5
ssg83
g4733
sg76
(lp4740
cgluon.languages
lazyT_unpickle
p4741
(S's\x08\x00\x00\x00Success!'
tRp4742
asbasbasbag69
(g85
g71
NtRp4743
(dp4744
g74
(dp4745
sg83
g4410
sg76
(lp4746
g69
(g90
g71
NtRp4747
(dp4748
g74
(dp4749
g94
g95
ssg83
g4743
sg76
(lp4750
S'generic_patterns'
p4751
asbag69
(g90
g71
NtRp4752
(dp4753
g74
(dp4754
g101
g102
ssg83
g4743
sg76
(lp4755
S':'
asbag69
(g90
g71
NtRp4756
(dp4757
g74
(dp4758
sg83
g4743
sg76
(lp4759
g69
(g70
g71
NtRp4760
(dp4761
g74
(dp4762
g82
I5
ssg83
g4756
sg76
(lp4763
g69
(g78
g71
NtRp4764
(dp4765
g74
(dp4766
g82
I4
ssg83
Nsg76
(lp4767
g69
(g85
g71
NtRp4768
(dp4769
g74
(dp4770
sg83
g4764
sg76
(lp4771
g69
(g90
g71
NtRp4772
(dp4773
g74
(dp4774
sg83
g4768
sg76
(lp4775
g69
(g70
g71
NtRp4776
(dp4777
g74
(dp4778
g82
I4
ssg83
g4772
sg76
(lp4779
S'*'
asbasbasbasbasbasbasbag69
(g85
g71
NtRp4780
(dp4781
g74
(dp4782
sg83
g4410
sg76
(lp4783
g69
(g90
g71
NtRp4784
(dp4785
g74
(dp4786
g94
g95
ssg83
g4780
sg76
(lp4787
S'google_analytics_id'
p4788
asbag69
(g90
g71
NtRp4789
(dp4790
g74
(dp4791
g101
g102
ssg83
g4780
sg76
(lp4792
S':'
asbag69
(g90
g71
NtRp4793
(dp4794
g74
(dp4795
sg83
g4780
sg76
(lp4796
g69
(g70
g71
NtRp4797
(dp4798
g74
(dp4799
g82
I5
ssg83
g4793
sg76
(lp4800
S'None'
p4801
asbasbasbag69
(g85
g71
NtRp4802
(dp4803
g74
(dp4804
sg83
g4410
sg76
(lp4805
g69
(g90
g71
NtRp4806
(dp4807
g74
(dp4808
g94
g95
ssg83
g4802
sg76
(lp4809
S'headers'
p4810
asbag69
(g90
g71
NtRp4811
(dp4812
g74
(dp4813
g101
g102
ssg83
g4802
sg76
(lp4814
S':'
asbag69
(g90
g71
NtRp4815
(dp4816
g74
(dp4817
sg83
g4802
sg76
(lp4818
g69
(g70
g71
NtRp4819
(dp4820
g74
(dp4821
g82
I5
ssg83
g4815
sg76
(lp4822
g69
(g78
g71
NtRp4823
(dp4824
g74
(dp4825
g82
I4
ssg83
Nsg76
(lp4826
g69
(g85
g71
NtRp4827
(dp4828
g74
(dp4829
sg83
g4823
sg76
(lp4830
g69
(g90
g71
NtRp4831
(dp4832
g74
(dp4833
g94
g95
ssg83
g4827
sg76
(lp4834
S'X-Powered-By'
p4835
asbag69
(g90
g71
NtRp4836
(dp4837
g74
(dp4838
g101
g102
ssg83
g4827
sg76
(lp4839
S':'
asbag69
(g90
g71
NtRp4840
(dp4841
g74
(dp4842
sg83
g4827
sg76
(lp4843
g69
(g70
g71
NtRp4844
(dp4845
g74
(dp4846
g82
I4
ssg83
g4840
sg76
(lp4847
S'web2py'
p4848
asbasbasbasbasbasbasbag69
(g85
g71
NtRp4849
(dp4850
g74
(dp4851
sg83
g4410
sg76
(lp4852
g69
(g90
g71
NtRp4853
(dp4854
g74
(dp4855
g94
g95
ssg83
g4849
sg76
(lp4856
S'menu'
p4857
asbag69
(g90
g71
NtRp4858
(dp4859
g74
(dp4860
g101
g102
ssg83
g4849
sg76
(lp4861
S':'
asbag69
(g90
g71
NtRp4862
(dp4863
g74
(dp4864
sg83
g4849
sg76
(lp4865
g69
(g70
g71
NtRp4866
(dp4867
g74
(dp4868
g82
I5
ssg83
g4862
sg76
(lp4869
g69
(g78
g71
NtRp4870
(dp4871
g74
(dp4872
g82
I4
ssg83
Nsg76
(lp4873
g69
(g85
g71
NtRp4874
(dp4875
g74
(dp4876
sg83
g4870
sg76
(lp4877
g69
(g90
g71
NtRp4878
(dp4879
g74
(dp4880
sg83
g4874
sg76
(lp4881
g69
(g70
g71
NtRp4882
(dp4883
g74
(dp4884
g82
I4
ssg83
g4878
sg76
(lp4885
g69
(g78
g71
NtRp4886
(dp4887
g74
(dp4888
g82
I3
ssg83
Nsg76
(lp4889
g69
(g85
g71
NtRp4890
(dp4891
g74
(dp4892
sg83
g4886
sg76
(lp4893
g69
(g90
g71
NtRp4894
(dp4895
g74
(dp4896
sg83
g4890
sg76
(lp4897
g69
(g70
g71
NtRp4898
(dp4899
g74
(dp4900
g82
I3
ssg83
g4894
sg76
(lp4901
g4741
(S't\x08\x00\x00\x00Overview'
tRp4902
asbasbasbag69
(g85
g71
NtRp4903
(dp4904
g74
(dp4905
sg83
g4886
sg76
(lp4906
g69
(g90
g71
NtRp4907
(dp4908
g74
(dp4909
sg83
g4903
sg76
(lp4910
g69
(g70
g71
NtRp4911
(dp4912
g74
(dp4913
g82
I3
ssg83
g4907
sg76
(lp4914
g112
asbasbasbag69
(g85
g71
NtRp4915
(dp4916
g74
(dp4917
sg83
g4886
sg76
(lp4918
g69
(g90
g71
NtRp4919
(dp4920
g74
(dp4921
sg83
g4915
sg76
(lp4922
g69
(g70
g71
NtRp4923
(dp4924
g74
(dp4925
g82
I3
ssg83
g4919
sg76
(lp4926
S'/rideshare/default/index'
p4927
asbasbasbag69
(g85
g71
NtRp4928
(dp4929
g74
(dp4930
sg83
g4886
sg76
(lp4931
g69
(g90
g71
NtRp4932
(dp4933
g74
(dp4934
sg83
g4928
sg76
(lp4935
g69
(g70
g71
NtRp4936
(dp4937
g74
(dp4938
g82
I3
ssg83
g4932
sg76
(lp4939
g69
(g78
g71
NtRp4940
(dp4941
g74
(dp4942
g82
I2
ssg83
Nsg76
(lp4943
sbasbasbasbasbasbasbasbag69
(g85
g71
NtRp4944
(dp4945
g74
(dp4946
sg83
g4870
sg76
(lp4947
g69
(g90
g71
NtRp4948
(dp4949
g74
(dp4950
sg83
g4944
sg76
(lp4951
g69
(g70
g71
NtRp4952
(dp4953
g74
(dp4954
g82
I4
ssg83
g4948
sg76
(lp4955
g69
(g78
g71
NtRp4956
(dp4957
g74
(dp4958
g82
I3
ssg83
Nsg76
(lp4959
g69
(g85
g71
NtRp4960
(dp4961
g74
(dp4962
sg83
g4956
sg76
(lp4963
g69
(g90
g71
NtRp4964
(dp4965
g74
(dp4966
sg83
g4960
sg76
(lp4967
g69
(g70
g71
NtRp4968
(dp4969
g74
(dp4970
g82
I3
ssg83
g4964
sg76
(lp4971
g69
(cgluon.html
SPAN
p4972
g71
NtRp4973
(dp4974
g74
(dp4975
S'_class'
p4976
S'highlighted'
p4977
ssg83
Nsg76
(lp4978
g4848
asbasbasbasbag69
(g85
g71
NtRp4979
(dp4980
g74
(dp4981
sg83
g4956
sg76
(lp4982
g69
(g90
g71
NtRp4983
(dp4984
g74
(dp4985
sg83
g4979
sg76
(lp4986
g69
(g70
g71
NtRp4987
(dp4988
g74
(dp4989
g82
I3
ssg83
g4983
sg76
(lp4990
g112
asbasbasbag69
(g85
g71
NtRp4991
(dp4992
g74
(dp4993
sg83
g4956
sg76
(lp4994
g69
(g90
g71
NtRp4995
(dp4996
g74
(dp4997
sg83
g4991
sg76
(lp4998
g69
(g70
g71
NtRp4999
(dp5000
g74
(dp5001
g82
I3
ssg83
g4995
sg76
(lp5002
S'http://web2py.com'
p5003
asbasbasbag69
(g85
g71
NtRp5004
(dp5005
g74
(dp5006
sg83
g4956
sg76
(lp5007
g69
(g90
g71
NtRp5008
(dp5009
g74
(dp5010
sg83
g5004
sg76
(lp5011
g69
(g70
g71
NtRp5012
(dp5013
g74
(dp5014
g82
I3
ssg83
g5008
sg76
(lp5015
g69
(g78
g71
NtRp5016
(dp5017
g74
(dp5018
g82
I2
ssg83
Nsg76
(lp5019
g69
(g85
g71
NtRp5020
(dp5021
g74
(dp5022
sg83
g5016
sg76
(lp5023
g69
(g90
g71
NtRp5024
(dp5025
g74
(dp5026
sg83
g5020
sg76
(lp5027
g69
(g70
g71
NtRp5028
(dp5029
g74
(dp5030
g82
I2
ssg83
g5024
sg76
(lp5031
g69
(g78
g71
NtRp5032
(dp5033
g74
(dp5034
g82
I1
ssg83
Nsg76
(lp5035
g69
(g85
g71
NtRp5036
(dp5037
g74
(dp5038
sg83
g5032
sg76
(lp5039
g69
(g90
g71
NtRp5040
(dp5041
g74
(dp5042
sg83
g5036
sg76
(lp5043
g69
(g70
g71
NtRp5044
(dp5045
g74
(dp5046
g82
I1
ssg83
g5040
sg76
(lp5047
g4741
(S's\x08\x00\x00\x00My Sites'
tRp5048
asbasbasbag69
(g85
g71
NtRp5049
(dp5050
g74
(dp5051
sg83
g5032
sg76
(lp5052
g69
(g90
g71
NtRp5053
(dp5054
g74
(dp5055
sg83
g5049
sg76
(lp5056
g69
(g70
g71
NtRp5057
(dp5058
g74
(dp5059
g82
I1
ssg83
g5053
sg76
(lp5060
I00
asbasbasbag69
(g85
g71
NtRp5061
(dp5062
g74
(dp5063
sg83
g5032
sg76
(lp5064
g69
(g90
g71
NtRp5065
(dp5066
g74
(dp5067
sg83
g5061
sg76
(lp5068
g69
(g70
g71
NtRp5069
(dp5070
g74
(dp5071
g82
I1
ssg83
g5065
sg76
(lp5072
S'/admin/default/site'
p5073
asbasbasbasbasbasbasbag69
(g85
g71
NtRp5074
(dp5075
g74
(dp5076
sg83
g5016
sg76
(lp5077
g69
(g90
g71
NtRp5078
(dp5079
g74
(dp5080
sg83
g5074
sg76
(lp5081
g69
(g70
g71
NtRp5082
(dp5083
g74
(dp5084
g82
I2
ssg83
g5078
sg76
(lp5085
g69
(g78
g71
NtRp5086
(dp5087
g74
(dp5088
g82
I1
ssg83
Nsg76
(lp5089
g69
(g85
g71
NtRp5090
(dp5091
g74
(dp5092
sg83
g5086
sg76
(lp5093
g69
(g90
g71
NtRp5094
(dp5095
g74
(dp5096
sg83
g5090
sg76
(lp5097
g69
(g70
g71
NtRp5098
(dp5099
g74
(dp5100
g82
I1
ssg83
g5094
sg76
(lp5101
g4741
(S's\x08\x00\x00\x00This App'
tRp5102
asbasbasbag69
(g85
g71
NtRp5103
(dp5104
g74
(dp5105
sg83
g5086
sg76
(lp5106
g69
(g90
g71
NtRp5107
(dp5108
g74
(dp5109
sg83
g5103
sg76
(lp5110
g69
(g70
g71
NtRp5111
(dp5112
g74
(dp5113
g82
I1
ssg83
g5107
sg76
(lp5114
I00
asbasbasbag69
(g85
g71
NtRp5115
(dp5116
g74
(dp5117
sg83
g5086
sg76
(lp5118
g69
(g90
g71
NtRp5119
(dp5120
g74
(dp5121
sg83
g5115
sg76
(lp5122
g69
(g70
g71
NtRp5123
(dp5124
g74
(dp5125
g82
I1
ssg83
g5119
sg76
(lp5126
S'/admin/default/design/rideshare'
p5127
asbasbasbag69
(g85
g71
NtRp5128
(dp5129
g74
(dp5130
sg83
g5086
sg76
(lp5131
g69
(g90
g71
NtRp5132
(dp5133
g74
(dp5134
sg83
g5128
sg76
(lp5135
g69
(g70
g71
NtRp5136
(dp5137
g74
(dp5138
g82
I1
ssg83
g5132
sg76
(lp5139
(lp5140
(g4741
(S't\n\x00\x00\x00Controller'
tRp5141
I00
S'/admin/default/edit/rideshare/controllers/default.py'
tp5142
a(g4741
(S't\x04\x00\x00\x00View'
tRp5143
I00
S'/admin/default/edit/rideshare/views/default/add_comment.html'
tp5144
a(g4741
(S't\x06\x00\x00\x00Layout'
tRp5145
I00
S'/admin/default/edit/rideshare/views/layout.html'
tp5146
a(g4741
(S't\n\x00\x00\x00Stylesheet'
tRp5147
I00
S'/admin/default/edit/rideshare/static/css/web2py.css'
tp5148
a(g4741
(S's\x08\x00\x00\x00DB Model'
tRp5149
I00
S'/admin/default/edit/rideshare/models/db.py'
tp5150
a(g4741
(S's\n\x00\x00\x00Menu Model'
tRp5151
I00
S'/admin/default/edit/rideshare/models/menu.py'
tp5152
a(g4741
(S't\x08\x00\x00\x00Database'
tRp5153
I00
S'/rideshare/appadmin/index'
tp5154
a(g4741
(S't\x06\x00\x00\x00Errors'
tRp5155
I00
S'/admin/default/errors/rideshare'
tp5156
a(g4741
(S't\x05\x00\x00\x00About'
tRp5157
I00
S'/admin/default/about/rideshare'
tp5158
aasbasbasbasbasbasbasbag69
(g85
g71
NtRp5159
(dp5160
g74
(dp5161
sg83
g5016
sg76
(lp5162
g69
(g90
g71
NtRp5163
(dp5164
g74
(dp5165
sg83
g5159
sg76
(lp5166
g69
(g70
g71
NtRp5167
(dp5168
g74
(dp5169
g82
I2
ssg83
g5163
sg76
(lp5170
g69
(g78
g71
NtRp5171
(dp5172
g74
(dp5173
g82
I1
ssg83
Nsg76
(lp5174
g69
(g85
g71
NtRp5175
(dp5176
g74
(dp5177
sg83
g5171
sg76
(lp5178
g69
(g90
g71
NtRp5179
(dp5180
g74
(dp5181
sg83
g5175
sg76
(lp5182
g69
(g70
g71
NtRp5183
(dp5184
g74
(dp5185
g82
I1
ssg83
g5179
sg76
(lp5186
S'web2py.com'
p5187
asbasbasbag69
(g85
g71
NtRp5188
(dp5189
g74
(dp5190
sg83
g5171
sg76
(lp5191
g69
(g90
g71
NtRp5192
(dp5193
g74
(dp5194
sg83
g5188
sg76
(lp5195
g69
(g70
g71
NtRp5196
(dp5197
g74
(dp5198
g82
I1
ssg83
g5192
sg76
(lp5199
I00
asbasbasbag69
(g85
g71
NtRp5200
(dp5201
g74
(dp5202
sg83
g5171
sg76
(lp5203
g69
(g90
g71
NtRp5204
(dp5205
g74
(dp5206
sg83
g5200
sg76
(lp5207
g69
(g70
g71
NtRp5208
(dp5209
g74
(dp5210
g82
I1
ssg83
g5204
sg76
(lp5211
S'http://www.web2py.com'
p5212
asbasbasbag69
(g85
g71
NtRp5213
(dp5214
g74
(dp5215
sg83
g5171
sg76
(lp5216
g69
(g90
g71
NtRp5217
(dp5218
g74
(dp5219
sg83
g5213
sg76
(lp5220
g69
(g70
g71
NtRp5221
(dp5222
g74
(dp5223
g82
I1
ssg83
g5217
sg76
(lp5224
(lp5225
(g4741
(S't\x08\x00\x00\x00Download'
tRp5226
I00
S'http://www.web2py.com/examples/default/download'
p5227
tp5228
a(g4741
(S't\x07\x00\x00\x00Support'
tRp5229
I00
S'http://www.web2py.com/examples/default/support'
p5230
tp5231
a(g4741
(S't\x04\x00\x00\x00Demo'
tRp5232
I00
S'http://web2py.com/demo_admin'
p5233
tp5234
a(g4741
(S's\x0e\x00\x00\x00Quick Examples'
tRp5235
I00
S'http://web2py.com/examples/default/examples'
p5236
tp5237
a(g4741
(S't\x03\x00\x00\x00FAQ'
tRp5238
I00
S'http://web2py.com/AlterEgo'
p5239
tp5240
a(g4741
(S't\x06\x00\x00\x00Videos'
tRp5241
I00
S'http://www.web2py.com/examples/default/videos/'
p5242
tp5243
a(g4741
(S's\x11\x00\x00\x00Free Applications'
tRp5244
I00
S'http://web2py.com/appliances'
p5245
tp5246
a(g4741
(S't\x07\x00\x00\x00Plugins'
tRp5247
I00
S'http://web2py.com/plugins'
p5248
tp5249
a(g4741
(S't\x07\x00\x00\x00Layouts'
tRp5250
I00
S'http://web2py.com/layouts'
p5251
tp5252
a(g4741
(S't\x07\x00\x00\x00Recipes'
tRp5253
I00
S'http://web2pyslices.com/'
p5254
tp5255
a(g4741
(S't\x08\x00\x00\x00Semantic'
tRp5256
I00
S'http://web2py.com/semantic'
p5257
tp5258
aasbasbasbasbasbasbasbag69
(g85
g71
NtRp5259
(dp5260
g74
(dp5261
sg83
g5016
sg76
(lp5262
g69
(g90
g71
NtRp5263
(dp5264
g74
(dp5265
sg83
g5259
sg76
(lp5266
g69
(g70
g71
NtRp5267
(dp5268
g74
(dp5269
g82
I2
ssg83
g5263
sg76
(lp5270
g69
(g78
g71
NtRp5271
(dp5272
g74
(dp5273
g82
I1
ssg83
Nsg76
(lp5274
g69
(g85
g71
NtRp5275
(dp5276
g74
(dp5277
sg83
g5271
sg76
(lp5278
g69
(g90
g71
NtRp5279
(dp5280
g74
(dp5281
sg83
g5275
sg76
(lp5282
g69
(g70
g71
NtRp5283
(dp5284
g74
(dp5285
g82
I1
ssg83
g5279
sg76
(lp5286
g4741
(S't\r\x00\x00\x00Documentation'
tRp5287
asbasbasbag69
(g85
g71
NtRp5288
(dp5289
g74
(dp5290
sg83
g5271
sg76
(lp5291
g69
(g90
g71
NtRp5292
(dp5293
g74
(dp5294
sg83
g5288
sg76
(lp5295
g69
(g70
g71
NtRp5296
(dp5297
g74
(dp5298
g82
I1
ssg83
g5292
sg76
(lp5299
I00
asbasbasbag69
(g85
g71
NtRp5300
(dp5301
g74
(dp5302
sg83
g5271
sg76
(lp5303
g69
(g90
g71
NtRp5304
(dp5305
g74
(dp5306
sg83
g5300
sg76
(lp5307
g69
(g70
g71
NtRp5308
(dp5309
g74
(dp5310
g82
I1
ssg83
g5304
sg76
(lp5311
S'http://www.web2py.com/book'
p5312
asbasbasbag69
(g85
g71
NtRp5313
(dp5314
g74
(dp5315
sg83
g5271
sg76
(lp5316
g69
(g90
g71
NtRp5317
(dp5318
g74
(dp5319
sg83
g5313
sg76
(lp5320
g69
(g70
g71
NtRp5321
(dp5322
g74
(dp5323
g82
I1
ssg83
g5317
sg76
(lp5324
(lp5325
(g4741
(S't\x07\x00\x00\x00Preface'
tRp5326
I00
S'http://www.web2py.com/book/default/chapter/00'
p5327
tp5328
a(g4741
(S't\x0c\x00\x00\x00Introduction'
tRp5329
I00
S'http://www.web2py.com/book/default/chapter/01'
p5330
tp5331
a(g4741
(S't\x06\x00\x00\x00Python'
tRp5332
I00
S'http://www.web2py.com/book/default/chapter/02'
p5333
tp5334
a(g4741
(S't\x08\x00\x00\x00Overview'
tRp5335
I00
S'http://www.web2py.com/book/default/chapter/03'
p5336
tp5337
a(g4741
(S's\x08\x00\x00\x00The Core'
tRp5338
I00
S'http://www.web2py.com/book/default/chapter/04'
p5339
tp5340
a(g4741
(S's\t\x00\x00\x00The Views'
tRp5341
I00
S'http://www.web2py.com/book/default/chapter/05'
p5342
tp5343
a(g4741
(S't\x08\x00\x00\x00Database'
tRp5344
I00
S'http://www.web2py.com/book/default/chapter/06'
p5345
tp5346
a(g4741
(S's\x14\x00\x00\x00Forms and Validators'
tRp5347
I00
S'http://www.web2py.com/book/default/chapter/07'
p5348
tp5349
a(g4741
(S's\r\x00\x00\x00Email and SMS'
tRp5350
I00
S'http://www.web2py.com/book/default/chapter/08'
p5351
tp5352
a(g4741
(S's\x0e\x00\x00\x00Access Control'
tRp5353
I00
S'http://www.web2py.com/book/default/chapter/09'
p5354
tp5355
a(g4741
(S't\x08\x00\x00\x00Services'
tRp5356
I00
S'http://www.web2py.com/book/default/chapter/10'
p5357
tp5358
a(g4741
(S's\x0c\x00\x00\x00Ajax Recipes'
tRp5359
I00
S'http://www.web2py.com/book/default/chapter/11'
p5360
tp5361
a(g4741
(S's\x16\x00\x00\x00Components and Plugins'
tRp5362
I00
S'http://www.web2py.com/book/default/chapter/12'
p5363
tp5364
a(g4741
(S's\x12\x00\x00\x00Deployment Recipes'
tRp5365
I00
S'http://www.web2py.com/book/default/chapter/13'
p5366
tp5367
a(g4741
(S's\r\x00\x00\x00Other Recipes'
tRp5368
I00
S'http://www.web2py.com/book/default/chapter/14'
p5369
tp5370
a(g4741
(S's\r\x00\x00\x00Buy this book'
tRp5371
I00
S'http://stores.lulu.com/web2py'
p5372
tp5373
aasbasbasbasbasbasbasbag69
(g85
g71
NtRp5374
(dp5375
g74
(dp5376
sg83
g5016
sg76
(lp5377
g69
(g90
g71
NtRp5378
(dp5379
g74
(dp5380
sg83
g5374
sg76
(lp5381
g69
(g70
g71
NtRp5382
(dp5383
g74
(dp5384
g82
I2
ssg83
g5378
sg76
(lp5385
g69
(g78
g71
NtRp5386
(dp5387
g74
(dp5388
g82
I1
ssg83
Nsg76
(lp5389
g69
(g85
g71
NtRp5390
(dp5391
g74
(dp5392
sg83
g5386
sg76
(lp5393
g69
(g90
g71
NtRp5394
(dp5395
g74
(dp5396
sg83
g5390
sg76
(lp5397
g69
(g70
g71
NtRp5398
(dp5399
g74
(dp5400
g82
I1
ssg83
g5394
sg76
(lp5401
g4741
(S't\t\x00\x00\x00Community'
tRp5402
asbasbasbag69
(g85
g71
NtRp5403
(dp5404
g74
(dp5405
sg83
g5386
sg76
(lp5406
g69
(g90
g71
NtRp5407
(dp5408
g74
(dp5409
sg83
g5403
sg76
(lp5410
g69
(g70
g71
NtRp5411
(dp5412
g74
(dp5413
g82
I1
ssg83
g5407
sg76
(lp5414
I00
asbasbasbag69
(g85
g71
NtRp5415
(dp5416
g74
(dp5417
sg83
g5386
sg76
(lp5418
g69
(g90
g71
NtRp5419
(dp5420
g74
(dp5421
sg83
g5415
sg76
(lp5422
g69
(g70
g71
NtRp5423
(dp5424
g74
(dp5425
g82
I1
ssg83
g5419
sg76
(lp5426
Nasbasbasbag69
(g85
g71
NtRp5427
(dp5428
g74
(dp5429
sg83
g5386
sg76
(lp5430
g69
(g90
g71
NtRp5431
(dp5432
g74
(dp5433
sg83
g5427
sg76
(lp5434
g69
(g70
g71
NtRp5435
(dp5436
g74
(dp5437
g82
I1
ssg83
g5431
sg76
(lp5438
(lp5439
(g4741
(S't\x06\x00\x00\x00Groups'
tRp5440
I00
S'http://www.web2py.com/examples/default/usergroups'
p5441
tp5442
a(g4741
(S't\x07\x00\x00\x00Twitter'
tRp5443
I00
S'http://twitter.com/web2py'
p5444
tp5445
a(g4741
(S's\t\x00\x00\x00Live Chat'
tRp5446
I00
S'http://webchat.freenode.net/?channels=web2py'
p5447
tp5448
aasbasbasbasbasbasbasbag69
(g85
g71
NtRp5449
(dp5450
g74
(dp5451
sg83
g5016
sg76
(lp5452
g69
(g90
g71
NtRp5453
(dp5454
g74
(dp5455
sg83
g5449
sg76
(lp5456
g69
(g70
g71
NtRp5457
(dp5458
g74
(dp5459
g82
I2
ssg83
g5453
sg76
(lp5460
g69
(g78
g71
NtRp5461
(dp5462
g74
(dp5463
g82
I1
ssg83
Nsg76
(lp5464
g69
(g85
g71
NtRp5465
(dp5466
g74
(dp5467
sg83
g5461
sg76
(lp5468
g69
(g90
g71
NtRp5469
(dp5470
g74
(dp5471
sg83
g5465
sg76
(lp5472
g69
(g70
g71
NtRp5473
(dp5474
g74
(dp5475
g82
I1
ssg83
g5469
sg76
(lp5476
g4741
(S't\x07\x00\x00\x00Plugins'
tRp5477
asbasbasbag69
(g85
g71
NtRp5478
(dp5479
g74
(dp5480
sg83
g5461
sg76
(lp5481
g69
(g90
g71
NtRp5482
(dp5483
g74
(dp5484
sg83
g5478
sg76
(lp5485
g69
(g70
g71
NtRp5486
(dp5487
g74
(dp5488
g82
I1
ssg83
g5482
sg76
(lp5489
I00
asbasbasbag69
(g85
g71
NtRp5490
(dp5491
g74
(dp5492
sg83
g5461
sg76
(lp5493
g69
(g90
g71
NtRp5494
(dp5495
g74
(dp5496
sg83
g5490
sg76
(lp5497
g69
(g70
g71
NtRp5498
(dp5499
g74
(dp5500
g82
I1
ssg83
g5494
sg76
(lp5501
Nasbasbasbag69
(g85
g71
NtRp5502
(dp5503
g74
(dp5504
sg83
g5461
sg76
(lp5505
g69
(g90
g71
NtRp5506
(dp5507
g74
(dp5508
sg83
g5502
sg76
(lp5509
g69
(g70
g71
NtRp5510
(dp5511
g74
(dp5512
g82
I1
ssg83
g5506
sg76
(lp5513
(lp5514
(S'plugin_wiki'
p5515
I00
S'http://web2py.com/examples/default/download'
p5516
tp5517
a(g4741
(S's\r\x00\x00\x00Other Plugins'
tRp5518
I00
g5248
tp5519
a(g4741
(S's\x0e\x00\x00\x00Layout Plugins'
tRp5520
I00
g5251
tp5521
aasbasbasbasbasbasbasbasbasbasbasbasbasbasbasbasbasbasbasbag69
(g85
g71
NtRp5522
(dp5523
g74
(dp5524
sg83
g4410
sg76
(lp5525
g69
(g90
g71
NtRp5526
(dp5527
g74
(dp5528
g94
g95
ssg83
g5522
sg76
(lp5529
S'meta'
p5530
asbag69
(g90
g71
NtRp5531
(dp5532
g74
(dp5533
g101
g102
ssg83
g5522
sg76
(lp5534
S':'
asbag69
(g90
g71
NtRp5535
(dp5536
g74
(dp5537
sg83
g5522
sg76
(lp5538
g69
(g70
g71
NtRp5539
(dp5540
g74
(dp5541
g82
I5
ssg83
g5535
sg76
(lp5542
g69
(g78
g71
NtRp5543
(dp5544
g74
(dp5545
g82
I4
ssg83
Nsg76
(lp5546
g69
(g85
g71
NtRp5547
(dp5548
g74
(dp5549
sg83
g5543
sg76
(lp5550
g69
(g90
g71
NtRp5551
(dp5552
g74
(dp5553
g94
g95
ssg83
g5547
sg76
(lp5554
S'author'
p5555
asbag69
(g90
g71
NtRp5556
(dp5557
g74
(dp5558
g101
g102
ssg83
g5547
sg76
(lp5559
S':'
asbag69
(g90
g71
NtRp5560
(dp5561
g74
(dp5562
sg83
g5547
sg76
(lp5563
g69
(g70
g71
NtRp5564
(dp5565
g74
(dp5566
g82
I4
ssg83
g5560
sg76
(lp5567
S'Your Name <you@example.com>'
p5568
asbasbasbag69
(g85
g71
NtRp5569
(dp5570
g74
(dp5571
sg83
g5543
sg76
(lp5572
g69
(g90
g71
NtRp5573
(dp5574
g74
(dp5575
g94
g95
ssg83
g5569
sg76
(lp5576
S'description'
p5577
asbag69
(g90
g71
NtRp5578
(dp5579
g74
(dp5580
g101
g102
ssg83
g5569
sg76
(lp5581
S':'
asbag69
(g90
g71
NtRp5582
(dp5583
g74
(dp5584
sg83
g5569
sg76
(lp5585
g69
(g70
g71
NtRp5586
(dp5587
g74
(dp5588
g82
I4
ssg83
g5582
sg76
(lp5589
S'a cool new app'
p5590
asbasbasbag69
(g85
g71
NtRp5591
(dp5592
g74
(dp5593
sg83
g5543
sg76
(lp5594
g69
(g90
g71
NtRp5595
(dp5596
g74
(dp5597
g94
g95
ssg83
g5591
sg76
(lp5598
S'generator'
p5599
asbag69
(g90
g71
NtRp5600
(dp5601
g74
(dp5602
g101
g102
ssg83
g5591
sg76
(lp5603
S':'
asbag69
(g90
g71
NtRp5604
(dp5605
g74
(dp5606
sg83
g5591
sg76
(lp5607
g69
(g70
g71
NtRp5608
(dp5609
g74
(dp5610
g82
I4
ssg83
g5604
sg76
(lp5611
S'Web2py Web Framework'
p5612
asbasbasbag69
(g85
g71
NtRp5613
(dp5614
g74
(dp5615
sg83
g5543
sg76
(lp5616
g69
(g90
g71
NtRp5617
(dp5618
g74
(dp5619
g94
g95
ssg83
g5613
sg76
(lp5620
S'keywords'
p5621
asbag69
(g90
g71
NtRp5622
(dp5623
g74
(dp5624
g101
g102
ssg83
g5613
sg76
(lp5625
S':'
asbag69
(g90
g71
NtRp5626
(dp5627
g74
(dp5628
sg83
g5613
sg76
(lp5629
g69
(g70
g71
NtRp5630
(dp5631
g74
(dp5632
g82
I4
ssg83
g5626
sg76
(lp5633
S'web2py, python, framework'
p5634
asbasbasbasbasbasbasbag69
(g85
g71
NtRp5635
(dp5636
g74
(dp5637
sg83
g4410
sg76
(lp5638
g69
(g90
g71
NtRp5639
(dp5640
g74
(dp5641
g94
g95
ssg83
g5635
sg76
(lp5642
S'models_to_run'
p5643
asbag69
(g90
g71
NtRp5644
(dp5645
g74
(dp5646
g101
g102
ssg83
g5635
sg76
(lp5647
S':'
asbag69
(g90
g71
NtRp5648
(dp5649
g74
(dp5650
sg83
g5635
sg76
(lp5651
g69
(g70
g71
NtRp5652
(dp5653
g74
(dp5654
g82
I5
ssg83
g5648
sg76
(lp5655
g69
(g78
g71
NtRp5656
(dp5657
g74
(dp5658
g82
I4
ssg83
Nsg76
(lp5659
g69
(g85
g71
NtRp5660
(dp5661
g74
(dp5662
sg83
g5656
sg76
(lp5663
g69
(g90
g71
NtRp5664
(dp5665
g74
(dp5666
sg83
g5660
sg76
(lp5667
g69
(g70
g71
NtRp5668
(dp5669
g74
(dp5670
g82
I4
ssg83
g5664
sg76
(lp5671
S'^\\w+\\.py$'
p5672
asbasbasbag69
(g85
g71
NtRp5673
(dp5674
g74
(dp5675
sg83
g5656
sg76
(lp5676
g69
(g90
g71
NtRp5677
(dp5678
g74
(dp5679
sg83
g5673
sg76
(lp5680
g69
(g70
g71
NtRp5681
(dp5682
g74
(dp5683
g82
I4
ssg83
g5677
sg76
(lp5684
S'^default/\\w+\\.py$'
p5685
asbasbasbag69
(g85
g71
NtRp5686
(dp5687
g74
(dp5688
sg83
g5656
sg76
(lp5689
g69
(g90
g71
NtRp5690
(dp5691
g74
(dp5692
sg83
g5686
sg76
(lp5693
g69
(g70
g71
NtRp5694
(dp5695
g74
(dp5696
g82
I4
ssg83
g5690
sg76
(lp5697
S'^default/add_comment/\\w+\\.py$'
p5698
asbasbasbasbasbasbasbag69
(g85
g71
NtRp5699
(dp5700
g74
(dp5701
sg83
g4410
sg76
(lp5702
g69
(g90
g71
NtRp5703
(dp5704
g74
(dp5705
g94
g95
ssg83
g5699
sg76
(lp5706
S'postprocessing'
p5707
asbag69
(g90
g71
NtRp5708
(dp5709
g74
(dp5710
g101
g102
ssg83
g5699
sg76
(lp5711
S':'
asbag69
(g90
g71
NtRp5712
(dp5713
g74
(dp5714
sg83
g5699
sg76
(lp5715
g69
(g70
g71
NtRp5716
(dp5717
g74
(dp5718
g82
I5
ssg83
g5712
sg76
(lp5719
g69
(g78
g71
NtRp5720
(dp5721
g74
(dp5722
g82
I4
ssg83
Nsg76
(lp5723
sbasbasbasbag69
(g85
g71
NtRp5724
(dp5725
g74
(dp5726
sg83
g4410
sg76
(lp5727
g69
(g90
g71
NtRp5728
(dp5729
g74
(dp5730
g94
g95
ssg83
g5724
sg76
(lp5731
S'session_file'
p5732
asbag69
(g90
g71
NtRp5733
(dp5734
g74
(dp5735
g101
g102
ssg83
g5724
sg76
(lp5736
S':'
asbag69
(g90
g71
NtRp5737
(dp5738
g74
(dp5739
sg83
g5724
sg76
(lp5740
g69
(g70
g71
NtRp5741
(dp5742
g74
(dp5743
g82
I5
ssg83
g5737
sg76
(lp5744
S"<open file 'C:\\Users\\Owner\\Desktop\\web2py\\applications\\rideshare\\sessions\\127.0.0.1-76981bb4-a11c-4445-975f-4668a2e996ed', mode 'rb+' at 0x068BE2E0>"
p5745
asbasbasbag69
(g85
g71
NtRp5746
(dp5747
g74
(dp5748
sg83
g4410
sg76
(lp5749
g69
(g90
g71
NtRp5750
(dp5751
g74
(dp5752
g94
g95
ssg83
g5746
sg76
(lp5753
S'session_filename'
p5754
asbag69
(g90
g71
NtRp5755
(dp5756
g74
(dp5757
g101
g102
ssg83
g5746
sg76
(lp5758
S':'
asbag69
(g90
g71
NtRp5759
(dp5760
g74
(dp5761
sg83
g5746
sg76
(lp5762
g69
(g70
g71
NtRp5763
(dp5764
g74
(dp5765
g82
I5
ssg83
g5759
sg76
(lp5766
S'C:\\Users\\Owner\\Desktop\\web2py\\applications\\rideshare\\sessions\\127.0.0.1-76981bb4-a11c-4445-975f-4668a2e996ed'
p5767
asbasbasbag69
(g85
g71
NtRp5768
(dp5769
g74
(dp5770
sg83
g4410
sg76
(lp5771
g69
(g90
g71
NtRp5772
(dp5773
g74
(dp5774
g94
g95
ssg83
g5768
sg76
(lp5775
S'session_id'
p5776
asbag69
(g90
g71
NtRp5777
(dp5778
g74
(dp5779
g101
g102
ssg83
g5768
sg76
(lp5780
S':'
asbag69
(g90
g71
NtRp5781
(dp5782
g74
(dp5783
sg83
g5768
sg76
(lp5784
g69
(g70
g71
NtRp5785
(dp5786
g74
(dp5787
g82
I5
ssg83
g5781
sg76
(lp5788
g685
asbasbasbag69
(g85
g71
NtRp5789
(dp5790
g74
(dp5791
sg83
g4410
sg76
(lp5792
g69
(g90
g71
NtRp5793
(dp5794
g74
(dp5795
g94
g95
ssg83
g5789
sg76
(lp5796
S'session_id_name'
p5797
asbag69
(g90
g71
NtRp5798
(dp5799
g74
(dp5800
g101
g102
ssg83
g5789
sg76
(lp5801
S':'
asbag69
(g90
g71
NtRp5802
(dp5803
g74
(dp5804
sg83
g5789
sg76
(lp5805
g69
(g70
g71
NtRp5806
(dp5807
g74
(dp5808
g82
I5
ssg83
g5802
sg76
(lp5809
g4467
asbasbasbag69
(g85
g71
NtRp5810
(dp5811
g74
(dp5812
sg83
g4410
sg76
(lp5813
g69
(g90
g71
NtRp5814
(dp5815
g74
(dp5816
g94
g95
ssg83
g5810
sg76
(lp5817
S'session_locked'
p5818
asbag69
(g90
g71
NtRp5819
(dp5820
g74
(dp5821
g101
g102
ssg83
g5810
sg76
(lp5822
S':'
asbag69
(g90
g71
NtRp5823
(dp5824
g74
(dp5825
sg83
g5810
sg76
(lp5826
g69
(g70
g71
NtRp5827
(dp5828
g74
(dp5829
g82
I5
ssg83
g5823
sg76
(lp5830
g2369
asbasbasbag69
(g85
g71
NtRp5831
(dp5832
g74
(dp5833
sg83
g4410
sg76
(lp5834
g69
(g90
g71
NtRp5835
(dp5836
g74
(dp5837
g94
g95
ssg83
g5831
sg76
(lp5838
S'session_new'
p5839
asbag69
(g90
g71
NtRp5840
(dp5841
g74
(dp5842
g101
g102
ssg83
g5831
sg76
(lp5843
S':'
asbag69
(g90
g71
NtRp5844
(dp5845
g74
(dp5846
sg83
g5831
sg76
(lp5847
g69
(g70
g71
NtRp5848
(dp5849
g74
(dp5850
g82
I5
ssg83
g5844
sg76
(lp5851
g112
asbasbasbag69
(g85
g71
NtRp5852
(dp5853
g74
(dp5854
sg83
g4410
sg76
(lp5855
g69
(g90
g71
NtRp5856
(dp5857
g74
(dp5858
g94
g95
ssg83
g5852
sg76
(lp5859
S'status'
p5860
asbag69
(g90
g71
NtRp5861
(dp5862
g74
(dp5863
g101
g102
ssg83
g5852
sg76
(lp5864
S':'
asbag69
(g90
g71
NtRp5865
(dp5866
g74
(dp5867
sg83
g5852
sg76
(lp5868
g69
(g70
g71
NtRp5869
(dp5870
g74
(dp5871
g82
I5
ssg83
g5865
sg76
(lp5872
S'200'
p5873
asbasbasbag69
(g85
g71
NtRp5874
(dp5875
g74
(dp5876
sg83
g4410
sg76
(lp5877
g69
(g90
g71
NtRp5878
(dp5879
g74
(dp5880
g94
g95
ssg83
g5874
sg76
(lp5881
S'subtitle'
p5882
asbag69
(g90
g71
NtRp5883
(dp5884
g74
(dp5885
g101
g102
ssg83
g5874
sg76
(lp5886
S':'
asbag69
(g90
g71
NtRp5887
(dp5888
g74
(dp5889
sg83
g5874
sg76
(lp5890
g69
(g70
g71
NtRp5891
(dp5892
g74
(dp5893
g82
I5
ssg83
g5887
sg76
(lp5894
g4741
(S's\x1f\x00\x00\x00Where all your rides come true!'
tRp5895
asbasbasbag69
(g85
g71
NtRp5896
(dp5897
g74
(dp5898
sg83
g4410
sg76
(lp5899
g69
(g90
g71
NtRp5900
(dp5901
g74
(dp5902
g94
g95
ssg83
g5896
sg76
(lp5903
S'title'
p5904
asbag69
(g90
g71
NtRp5905
(dp5906
g74
(dp5907
g101
g102
ssg83
g5896
sg76
(lp5908
S':'
asbag69
(g90
g71
NtRp5909
(dp5910
g74
(dp5911
sg83
g5896
sg76
(lp5912
g69
(g70
g71
NtRp5913
(dp5914
g74
(dp5915
g82
I5
ssg83
g5909
sg76
(lp5916
g4741
(S't\t\x00\x00\x00Rideshare'
tRp5917
asbasbasbag69
(g85
g71
NtRp5918
(dp5919
g74
(dp5920
sg83
g4410
sg76
(lp5921
g69
(g90
g71
NtRp5922
(dp5923
g74
(dp5924
g94
g95
ssg83
g5918
sg76
(lp5925
S'view'
p5926
asbag69
(g90
g71
NtRp5927
(dp5928
g74
(dp5929
g101
g102
ssg83
g5918
sg76
(lp5930
S':'
asbag69
(g90
g71
NtRp5931
(dp5932
g74
(dp5933
sg83
g5918
sg76
(lp5934
g69
(g70
g71
NtRp5935
(dp5936
g74
(dp5937
g82
I5
ssg83
g5931
sg76
(lp5938
S'default/add_comment.html'
p5939
asbasbasbasbasbsS'locals'
p5940
(dp5941
S'update_fields'
p5942
g21
sS'fields'
p5943
S'[]'
p5944
sS'self'
p5945
S'<Set (ride.id = 3)>'
p5946
sS'db'
p5947
S'<DAL sqlite://storage.sqlite>'
p5948
sS'tablename'
p5949
S"'ride'"
p5950
sS'table'
p5951
S'<Table ride (id,meeting_location,destination,dep...omments,price,riders,number_of_seats_open,owner)>'
p5952
sssS'traceback'
p5953
S'Traceback (most recent call last):\n  File "gluon/restricted.py", line 209, in restricted\n  File "C:\\Users\\Owner\\Desktop\\web2py\\applications\\rideshare\\controllers/default.py", line 196, in <module>\n  File "gluon/globals.py", line 186, in <lambda>\n  File "gluon/tools.py", line 2809, in f\n  File "C:\\Users\\Owner\\Desktop\\web2py\\applications\\rideshare\\controllers/default.py", line 43, in add_comment\n  File "gluon/dal.py", line 8878, in __call__\n  File "gluon/dal.py", line 8789, in update\nSyntaxError: No fields to update\n'
p5954
s.