(dp1
S'output'
p2
S"<type 'exceptions.SyntaxError'> Field: unknown field type: list:text for comments"
p3
sS'layer'
p4
S'C:\\Users\\Owner\\Desktop\\web2py\\applications\\rideshare\\models\\rideshare.py'
p5
sS'code'
p6
S"# coding: utf8\n                \ndb.define_table('ride',\n                Field('meeting_location', 'string', requires=IS_NOT_EMPTY()),\n                Field('destination', 'string', requires=IS_NOT_EMPTY()),\n                Field('departure_date', 'date', requires=IS_DATE()),\n                Field('departure_time', 'time', requires=IS_TIME()),\n                Field('trip_length', 'string'),\n                Field('comments', 'list:text'),\n                Field('price', 'string'),\n                Field('riders', 'list:reference auth_user', default=auth.user_id),\n                Field('number_of_seats_open', 'integer', requires=IS_IN_SET(['0', '1', '2','3','4','5'])),\n                Field('owner', db.auth_user, default=auth.user_id))\n\ndb.ride.riders.writable = db.ride.riders.readable = False\ndb.ride.owner.writable = db.ride.owner.readable = False\ndb.ride.id.readable = db.ride.id.writable = False\n"
p7
sS'snapshot'
p8
(dp9
S'exception'
p10
(dp11
S'__getslice__'
p12
S"<method-wrapper '__getslice__' of exceptions.SyntaxError object>"
p13
sS'text'
p14
S'None'
p15
sS'__str__'
p16
S"<method-wrapper '__str__' of exceptions.SyntaxError object>"
p17
sS'__reduce__'
p18
S'<built-in method __reduce__ of exceptions.SyntaxError object>'
p19
sS'__dict__'
p20
S'{}'
p21
sS'__sizeof__'
p22
S'<built-in method __sizeof__ of exceptions.SyntaxError object>'
p23
sS'__init__'
p24
S"<method-wrapper '__init__' of exceptions.SyntaxError object>"
p25
sS'__setattr__'
p26
S"<method-wrapper '__setattr__' of exceptions.SyntaxError object>"
p27
sS'__reduce_ex__'
p28
S'<built-in method __reduce_ex__ of exceptions.SyntaxError object>'
p29
sS'__new__'
p30
S'<built-in method __new__ of type object>'
p31
sS'__format__'
p32
S'<built-in method __format__ of exceptions.SyntaxError object>'
p33
sS'__class__'
p34
S"<type 'exceptions.SyntaxError'>"
p35
sS'filename'
p36
S'None'
p37
sS'lineno'
p38
S'None'
p39
sS'msg'
p40
S"'Field: unknown field type: list:text for comments'"
p41
sS'__doc__'
p42
S"'Invalid syntax.'"
p43
sS'__getitem__'
p44
S"<method-wrapper '__getitem__' of exceptions.SyntaxError object>"
p45
sS'__setstate__'
p46
S'<built-in method __setstate__ of exceptions.SyntaxError object>'
p47
sS'__getattribute__'
p48
S"<method-wrapper '__getattribute__' of exceptions.SyntaxError object>"
p49
sS'print_file_and_line'
p50
S'None'
p51
sS'args'
p52
S"('Field: unknown field type: list:text for comments',)"
p53
sS'__subclasshook__'
p54
S'<built-in method __subclasshook__ of type object>'
p55
sS'offset'
p56
S'None'
p57
sS'__unicode__'
p58
S'<built-in method __unicode__ of exceptions.SyntaxError object>'
p59
sS'__delattr__'
p60
S"<method-wrapper '__delattr__' of exceptions.SyntaxError object>"
p61
sS'__repr__'
p62
S"<method-wrapper '__repr__' of exceptions.SyntaxError object>"
p63
sS'__hash__'
p64
S"<method-wrapper '__hash__' of exceptions.SyntaxError object>"
p65
ssS'evalue'
p66
S'Field: unknown field type: list:text for comments'
p67
sS'request'
p68
ccopy_reg
_reconstructor
p69
(cgluon.html
BEAUTIFY
p70
c__builtin__
object
p71
NtRp72
(dp73
S'attributes'
p74
(dp75
sS'components'
p76
(lp77
g69
(cgluon.html
TABLE
p78
g71
NtRp79
(dp80
g74
(dp81
S'level'
p82
I5
ssS'parent'
p83
Nsg76
(lp84
g69
(cgluon.html
TR
p85
g71
NtRp86
(dp87
g74
(dp88
sg83
g79
sg76
(lp89
g69
(cgluon.html
TD
p90
g71
NtRp91
(dp92
g74
(dp93
S'_style'
p94
S'font-weight:bold;vertical-align:top'
p95
ssg83
g86
sg76
(lp96
S'ajax'
p97
asbag69
(g90
g71
NtRp98
(dp99
g74
(dp100
S'_valign'
p101
S'top'
p102
ssg83
g86
sg76
(lp103
S':'
asbag69
(g90
g71
NtRp104
(dp105
g74
(dp106
sg83
g86
sg76
(lp107
g69
(g70
g71
NtRp108
(dp109
g74
(dp110
g82
I5
ssg83
g104
sg76
(lp111
S'False'
p112
asbasbasbag69
(g85
g71
NtRp113
(dp114
g74
(dp115
sg83
g79
sg76
(lp116
g69
(g90
g71
NtRp117
(dp118
g74
(dp119
g94
g95
ssg83
g113
sg76
(lp120
S'application'
p121
asbag69
(g90
g71
NtRp122
(dp123
g74
(dp124
g101
g102
ssg83
g113
sg76
(lp125
S':'
asbag69
(g90
g71
NtRp126
(dp127
g74
(dp128
sg83
g113
sg76
(lp129
g69
(g70
g71
NtRp130
(dp131
g74
(dp132
g82
I5
ssg83
g126
sg76
(lp133
S'rideshare'
p134
asbasbasbag69
(g85
g71
NtRp135
(dp136
g74
(dp137
sg83
g79
sg76
(lp138
g69
(g90
g71
NtRp139
(dp140
g74
(dp141
g94
g95
ssg83
g135
sg76
(lp142
g52
asbag69
(g90
g71
NtRp143
(dp144
g74
(dp145
g101
g102
ssg83
g135
sg76
(lp146
S':'
asbag69
(g90
g71
NtRp147
(dp148
g74
(dp149
sg83
g135
sg76
(lp150
g69
(g70
g71
NtRp151
(dp152
g74
(dp153
g82
I5
ssg83
g147
sg76
(lp154
g69
(g78
g71
NtRp155
(dp156
g74
(dp157
g82
I4
ssg83
Nsg76
(lp158
sbasbasbasbag69
(g85
g71
NtRp159
(dp160
g74
(dp161
sg83
g79
sg76
(lp162
g69
(g90
g71
NtRp163
(dp164
g74
(dp165
g94
g95
ssg83
g159
sg76
(lp166
S'body'
p167
asbag69
(g90
g71
NtRp168
(dp169
g74
(dp170
g101
g102
ssg83
g159
sg76
(lp171
S':'
asbag69
(g90
g71
NtRp172
(dp173
g74
(dp174
sg83
g159
sg76
(lp175
g69
(g70
g71
NtRp176
(dp177
g74
(dp178
g82
I5
ssg83
g172
sg76
(lp179
S'<cStringIO.StringO object at 0x078ABB00>'
p180
asbasbasbag69
(g85
g71
NtRp181
(dp182
g74
(dp183
sg83
g79
sg76
(lp184
g69
(g90
g71
NtRp185
(dp186
g74
(dp187
g94
g95
ssg83
g181
sg76
(lp188
S'cid'
p189
asbag69
(g90
g71
NtRp190
(dp191
g74
(dp192
g101
g102
ssg83
g181
sg76
(lp193
S':'
asbag69
(g90
g71
NtRp194
(dp195
g74
(dp196
sg83
g181
sg76
(lp197
g69
(g70
g71
NtRp198
(dp199
g74
(dp200
g82
I5
ssg83
g194
sg76
(lp201
S'None'
p202
asbasbasbag69
(g85
g71
NtRp203
(dp204
g74
(dp205
sg83
g79
sg76
(lp206
g69
(g90
g71
NtRp207
(dp208
g74
(dp209
g94
g95
ssg83
g203
sg76
(lp210
S'client'
p211
asbag69
(g90
g71
NtRp212
(dp213
g74
(dp214
g101
g102
ssg83
g203
sg76
(lp215
S':'
asbag69
(g90
g71
NtRp216
(dp217
g74
(dp218
sg83
g203
sg76
(lp219
g69
(g70
g71
NtRp220
(dp221
g74
(dp222
g82
I5
ssg83
g216
sg76
(lp223
S'127.0.0.1'
p224
asbasbasbag69
(g85
g71
NtRp225
(dp226
g74
(dp227
sg83
g79
sg76
(lp228
g69
(g90
g71
NtRp229
(dp230
g74
(dp231
g94
g95
ssg83
g225
sg76
(lp232
S'controller'
p233
asbag69
(g90
g71
NtRp234
(dp235
g74
(dp236
g101
g102
ssg83
g225
sg76
(lp237
S':'
asbag69
(g90
g71
NtRp238
(dp239
g74
(dp240
sg83
g225
sg76
(lp241
g69
(g70
g71
NtRp242
(dp243
g74
(dp244
g82
I5
ssg83
g238
sg76
(lp245
S'default'
p246
asbasbasbag69
(g85
g71
NtRp247
(dp248
g74
(dp249
sg83
g79
sg76
(lp250
g69
(g90
g71
NtRp251
(dp252
g74
(dp253
g94
g95
ssg83
g247
sg76
(lp254
S'cookies'
p255
asbag69
(g90
g71
NtRp256
(dp257
g74
(dp258
g101
g102
ssg83
g247
sg76
(lp259
S':'
asbag69
(g90
g71
NtRp260
(dp261
g74
(dp262
sg83
g247
sg76
(lp263
g69
(g70
g71
NtRp264
(dp265
g74
(dp266
g82
I5
ssg83
g260
sg76
(lp267
g69
(g78
g71
NtRp268
(dp269
g74
(dp270
g82
I4
ssg83
Nsg76
(lp271
g69
(g85
g71
NtRp272
(dp273
g74
(dp274
sg83
g268
sg76
(lp275
g69
(g90
g71
NtRp276
(dp277
g74
(dp278
g94
g95
ssg83
g272
sg76
(lp279
S'session_id_admin'
p280
asbag69
(g90
g71
NtRp281
(dp282
g74
(dp283
g101
g102
ssg83
g272
sg76
(lp284
S':'
asbag69
(g90
g71
NtRp285
(dp286
g74
(dp287
sg83
g272
sg76
(lp288
g69
(g70
g71
NtRp289
(dp290
g74
(dp291
g82
I4
ssg83
g285
sg76
(lp292
S'127.0.0.1-4f70e2b1-5bb0-4ebf-987e-4f2631c11c02'
p293
ag69
(g78
g71
NtRp294
(dp295
g74
(dp296
g82
I3
ssg83
Nsg76
(lp297
g69
(g85
g71
NtRp298
(dp299
g74
(dp300
sg83
g294
sg76
(lp301
g69
(g90
g71
NtRp302
(dp303
g74
(dp304
g94
g95
ssg83
g298
sg76
(lp305
S'comment'
p306
asbag69
(g90
g71
NtRp307
(dp308
g74
(dp309
g101
g102
ssg83
g298
sg76
(lp310
S':'
asbag69
(g90
g71
NtRp311
(dp312
g74
(dp313
sg83
g298
sg76
(lp314
g69
(g70
g71
NtRp315
(dp316
g74
(dp317
g82
I3
ssg83
g311
sg76
(lp318
S''
asbasbasbag69
(g85
g71
NtRp319
(dp320
g74
(dp321
sg83
g294
sg76
(lp322
g69
(g90
g71
NtRp323
(dp324
g74
(dp325
g94
g95
ssg83
g319
sg76
(lp326
S'domain'
p327
asbag69
(g90
g71
NtRp328
(dp329
g74
(dp330
g101
g102
ssg83
g319
sg76
(lp331
S':'
asbag69
(g90
g71
NtRp332
(dp333
g74
(dp334
sg83
g319
sg76
(lp335
g69
(g70
g71
NtRp336
(dp337
g74
(dp338
g82
I3
ssg83
g332
sg76
(lp339
S''
asbasbasbag69
(g85
g71
NtRp340
(dp341
g74
(dp342
sg83
g294
sg76
(lp343
g69
(g90
g71
NtRp344
(dp345
g74
(dp346
g94
g95
ssg83
g340
sg76
(lp347
S'expires'
p348
asbag69
(g90
g71
NtRp349
(dp350
g74
(dp351
g101
g102
ssg83
g340
sg76
(lp352
S':'
asbag69
(g90
g71
NtRp353
(dp354
g74
(dp355
sg83
g340
sg76
(lp356
g69
(g70
g71
NtRp357
(dp358
g74
(dp359
g82
I3
ssg83
g353
sg76
(lp360
S''
asbasbasbag69
(g85
g71
NtRp361
(dp362
g74
(dp363
sg83
g294
sg76
(lp364
g69
(g90
g71
NtRp365
(dp366
g74
(dp367
g94
g95
ssg83
g361
sg76
(lp368
S'httponly'
p369
asbag69
(g90
g71
NtRp370
(dp371
g74
(dp372
g101
g102
ssg83
g361
sg76
(lp373
S':'
asbag69
(g90
g71
NtRp374
(dp375
g74
(dp376
sg83
g361
sg76
(lp377
g69
(g70
g71
NtRp378
(dp379
g74
(dp380
g82
I3
ssg83
g374
sg76
(lp381
S''
asbasbasbag69
(g85
g71
NtRp382
(dp383
g74
(dp384
sg83
g294
sg76
(lp385
g69
(g90
g71
NtRp386
(dp387
g74
(dp388
g94
g95
ssg83
g382
sg76
(lp389
S'max-age'
p390
asbag69
(g90
g71
NtRp391
(dp392
g74
(dp393
g101
g102
ssg83
g382
sg76
(lp394
S':'
asbag69
(g90
g71
NtRp395
(dp396
g74
(dp397
sg83
g382
sg76
(lp398
g69
(g70
g71
NtRp399
(dp400
g74
(dp401
g82
I3
ssg83
g395
sg76
(lp402
S''
asbasbasbag69
(g85
g71
NtRp403
(dp404
g74
(dp405
sg83
g294
sg76
(lp406
g69
(g90
g71
NtRp407
(dp408
g74
(dp409
g94
g95
ssg83
g403
sg76
(lp410
S'path'
p411
asbag69
(g90
g71
NtRp412
(dp413
g74
(dp414
g101
g102
ssg83
g403
sg76
(lp415
S':'
asbag69
(g90
g71
NtRp416
(dp417
g74
(dp418
sg83
g403
sg76
(lp419
g69
(g70
g71
NtRp420
(dp421
g74
(dp422
g82
I3
ssg83
g416
sg76
(lp423
S''
asbasbasbag69
(g85
g71
NtRp424
(dp425
g74
(dp426
sg83
g294
sg76
(lp427
g69
(g90
g71
NtRp428
(dp429
g74
(dp430
g94
g95
ssg83
g424
sg76
(lp431
S'secure'
p432
asbag69
(g90
g71
NtRp433
(dp434
g74
(dp435
g101
g102
ssg83
g424
sg76
(lp436
S':'
asbag69
(g90
g71
NtRp437
(dp438
g74
(dp439
sg83
g424
sg76
(lp440
g69
(g70
g71
NtRp441
(dp442
g74
(dp443
g82
I3
ssg83
g437
sg76
(lp444
S''
asbasbasbag69
(g85
g71
NtRp445
(dp446
g74
(dp447
sg83
g294
sg76
(lp448
g69
(g90
g71
NtRp449
(dp450
g74
(dp451
g94
g95
ssg83
g445
sg76
(lp452
S'version'
p453
asbag69
(g90
g71
NtRp454
(dp455
g74
(dp456
g101
g102
ssg83
g445
sg76
(lp457
S':'
asbag69
(g90
g71
NtRp458
(dp459
g74
(dp460
sg83
g445
sg76
(lp461
g69
(g70
g71
NtRp462
(dp463
g74
(dp464
g82
I3
ssg83
g458
sg76
(lp465
S''
asbasbasbasbasbasbasbag69
(g85
g71
NtRp466
(dp467
g74
(dp468
sg83
g268
sg76
(lp469
g69
(g90
g71
NtRp470
(dp471
g74
(dp472
g94
g95
ssg83
g466
sg76
(lp473
S'session_id_fresh_light'
p474
asbag69
(g90
g71
NtRp475
(dp476
g74
(dp477
g101
g102
ssg83
g466
sg76
(lp478
S':'
asbag69
(g90
g71
NtRp479
(dp480
g74
(dp481
sg83
g466
sg76
(lp482
g69
(g70
g71
NtRp483
(dp484
g74
(dp485
g82
I4
ssg83
g479
sg76
(lp486
S'127.0.0.1-abdb80ae-e769-4c7f-b431-193578ef9ec6'
p487
ag69
(g78
g71
NtRp488
(dp489
g74
(dp490
g82
I3
ssg83
Nsg76
(lp491
g69
(g85
g71
NtRp492
(dp493
g74
(dp494
sg83
g488
sg76
(lp495
g69
(g90
g71
NtRp496
(dp497
g74
(dp498
g94
g95
ssg83
g492
sg76
(lp499
g306
asbag69
(g90
g71
NtRp500
(dp501
g74
(dp502
g101
g102
ssg83
g492
sg76
(lp503
S':'
asbag69
(g90
g71
NtRp504
(dp505
g74
(dp506
sg83
g492
sg76
(lp507
g69
(g70
g71
NtRp508
(dp509
g74
(dp510
g82
I3
ssg83
g504
sg76
(lp511
S''
asbasbasbag69
(g85
g71
NtRp512
(dp513
g74
(dp514
sg83
g488
sg76
(lp515
g69
(g90
g71
NtRp516
(dp517
g74
(dp518
g94
g95
ssg83
g512
sg76
(lp519
g327
asbag69
(g90
g71
NtRp520
(dp521
g74
(dp522
g101
g102
ssg83
g512
sg76
(lp523
S':'
asbag69
(g90
g71
NtRp524
(dp525
g74
(dp526
sg83
g512
sg76
(lp527
g69
(g70
g71
NtRp528
(dp529
g74
(dp530
g82
I3
ssg83
g524
sg76
(lp531
S''
asbasbasbag69
(g85
g71
NtRp532
(dp533
g74
(dp534
sg83
g488
sg76
(lp535
g69
(g90
g71
NtRp536
(dp537
g74
(dp538
g94
g95
ssg83
g532
sg76
(lp539
g348
asbag69
(g90
g71
NtRp540
(dp541
g74
(dp542
g101
g102
ssg83
g532
sg76
(lp543
S':'
asbag69
(g90
g71
NtRp544
(dp545
g74
(dp546
sg83
g532
sg76
(lp547
g69
(g70
g71
NtRp548
(dp549
g74
(dp550
g82
I3
ssg83
g544
sg76
(lp551
S''
asbasbasbag69
(g85
g71
NtRp552
(dp553
g74
(dp554
sg83
g488
sg76
(lp555
g69
(g90
g71
NtRp556
(dp557
g74
(dp558
g94
g95
ssg83
g552
sg76
(lp559
g369
asbag69
(g90
g71
NtRp560
(dp561
g74
(dp562
g101
g102
ssg83
g552
sg76
(lp563
S':'
asbag69
(g90
g71
NtRp564
(dp565
g74
(dp566
sg83
g552
sg76
(lp567
g69
(g70
g71
NtRp568
(dp569
g74
(dp570
g82
I3
ssg83
g564
sg76
(lp571
S''
asbasbasbag69
(g85
g71
NtRp572
(dp573
g74
(dp574
sg83
g488
sg76
(lp575
g69
(g90
g71
NtRp576
(dp577
g74
(dp578
g94
g95
ssg83
g572
sg76
(lp579
g390
asbag69
(g90
g71
NtRp580
(dp581
g74
(dp582
g101
g102
ssg83
g572
sg76
(lp583
S':'
asbag69
(g90
g71
NtRp584
(dp585
g74
(dp586
sg83
g572
sg76
(lp587
g69
(g70
g71
NtRp588
(dp589
g74
(dp590
g82
I3
ssg83
g584
sg76
(lp591
S''
asbasbasbag69
(g85
g71
NtRp592
(dp593
g74
(dp594
sg83
g488
sg76
(lp595
g69
(g90
g71
NtRp596
(dp597
g74
(dp598
g94
g95
ssg83
g592
sg76
(lp599
g411
asbag69
(g90
g71
NtRp600
(dp601
g74
(dp602
g101
g102
ssg83
g592
sg76
(lp603
S':'
asbag69
(g90
g71
NtRp604
(dp605
g74
(dp606
sg83
g592
sg76
(lp607
g69
(g70
g71
NtRp608
(dp609
g74
(dp610
g82
I3
ssg83
g604
sg76
(lp611
S''
asbasbasbag69
(g85
g71
NtRp612
(dp613
g74
(dp614
sg83
g488
sg76
(lp615
g69
(g90
g71
NtRp616
(dp617
g74
(dp618
g94
g95
ssg83
g612
sg76
(lp619
g432
asbag69
(g90
g71
NtRp620
(dp621
g74
(dp622
g101
g102
ssg83
g612
sg76
(lp623
S':'
asbag69
(g90
g71
NtRp624
(dp625
g74
(dp626
sg83
g612
sg76
(lp627
g69
(g70
g71
NtRp628
(dp629
g74
(dp630
g82
I3
ssg83
g624
sg76
(lp631
S''
asbasbasbag69
(g85
g71
NtRp632
(dp633
g74
(dp634
sg83
g488
sg76
(lp635
g69
(g90
g71
NtRp636
(dp637
g74
(dp638
g94
g95
ssg83
g632
sg76
(lp639
g453
asbag69
(g90
g71
NtRp640
(dp641
g74
(dp642
g101
g102
ssg83
g632
sg76
(lp643
S':'
asbag69
(g90
g71
NtRp644
(dp645
g74
(dp646
sg83
g632
sg76
(lp647
g69
(g70
g71
NtRp648
(dp649
g74
(dp650
g82
I3
ssg83
g644
sg76
(lp651
S''
asbasbasbasbasbasbasbag69
(g85
g71
NtRp652
(dp653
g74
(dp654
sg83
g268
sg76
(lp655
g69
(g90
g71
NtRp656
(dp657
g74
(dp658
g94
g95
ssg83
g652
sg76
(lp659
S'session_id_rideshare'
p660
asbag69
(g90
g71
NtRp661
(dp662
g74
(dp663
g101
g102
ssg83
g652
sg76
(lp664
S':'
asbag69
(g90
g71
NtRp665
(dp666
g74
(dp667
sg83
g652
sg76
(lp668
g69
(g70
g71
NtRp669
(dp670
g74
(dp671
g82
I4
ssg83
g665
sg76
(lp672
S'127.0.0.1-76981bb4-a11c-4445-975f-4668a2e996ed'
p673
ag69
(g78
g71
NtRp674
(dp675
g74
(dp676
g82
I3
ssg83
Nsg76
(lp677
g69
(g85
g71
NtRp678
(dp679
g74
(dp680
sg83
g674
sg76
(lp681
g69
(g90
g71
NtRp682
(dp683
g74
(dp684
g94
g95
ssg83
g678
sg76
(lp685
g306
asbag69
(g90
g71
NtRp686
(dp687
g74
(dp688
g101
g102
ssg83
g678
sg76
(lp689
S':'
asbag69
(g90
g71
NtRp690
(dp691
g74
(dp692
sg83
g678
sg76
(lp693
g69
(g70
g71
NtRp694
(dp695
g74
(dp696
g82
I3
ssg83
g690
sg76
(lp697
S''
asbasbasbag69
(g85
g71
NtRp698
(dp699
g74
(dp700
sg83
g674
sg76
(lp701
g69
(g90
g71
NtRp702
(dp703
g74
(dp704
g94
g95
ssg83
g698
sg76
(lp705
g327
asbag69
(g90
g71
NtRp706
(dp707
g74
(dp708
g101
g102
ssg83
g698
sg76
(lp709
S':'
asbag69
(g90
g71
NtRp710
(dp711
g74
(dp712
sg83
g698
sg76
(lp713
g69
(g70
g71
NtRp714
(dp715
g74
(dp716
g82
I3
ssg83
g710
sg76
(lp717
S''
asbasbasbag69
(g85
g71
NtRp718
(dp719
g74
(dp720
sg83
g674
sg76
(lp721
g69
(g90
g71
NtRp722
(dp723
g74
(dp724
g94
g95
ssg83
g718
sg76
(lp725
g348
asbag69
(g90
g71
NtRp726
(dp727
g74
(dp728
g101
g102
ssg83
g718
sg76
(lp729
S':'
asbag69
(g90
g71
NtRp730
(dp731
g74
(dp732
sg83
g718
sg76
(lp733
g69
(g70
g71
NtRp734
(dp735
g74
(dp736
g82
I3
ssg83
g730
sg76
(lp737
S''
asbasbasbag69
(g85
g71
NtRp738
(dp739
g74
(dp740
sg83
g674
sg76
(lp741
g69
(g90
g71
NtRp742
(dp743
g74
(dp744
g94
g95
ssg83
g738
sg76
(lp745
g369
asbag69
(g90
g71
NtRp746
(dp747
g74
(dp748
g101
g102
ssg83
g738
sg76
(lp749
S':'
asbag69
(g90
g71
NtRp750
(dp751
g74
(dp752
sg83
g738
sg76
(lp753
g69
(g70
g71
NtRp754
(dp755
g74
(dp756
g82
I3
ssg83
g750
sg76
(lp757
S''
asbasbasbag69
(g85
g71
NtRp758
(dp759
g74
(dp760
sg83
g674
sg76
(lp761
g69
(g90
g71
NtRp762
(dp763
g74
(dp764
g94
g95
ssg83
g758
sg76
(lp765
g390
asbag69
(g90
g71
NtRp766
(dp767
g74
(dp768
g101
g102
ssg83
g758
sg76
(lp769
S':'
asbag69
(g90
g71
NtRp770
(dp771
g74
(dp772
sg83
g758
sg76
(lp773
g69
(g70
g71
NtRp774
(dp775
g74
(dp776
g82
I3
ssg83
g770
sg76
(lp777
S''
asbasbasbag69
(g85
g71
NtRp778
(dp779
g74
(dp780
sg83
g674
sg76
(lp781
g69
(g90
g71
NtRp782
(dp783
g74
(dp784
g94
g95
ssg83
g778
sg76
(lp785
g411
asbag69
(g90
g71
NtRp786
(dp787
g74
(dp788
g101
g102
ssg83
g778
sg76
(lp789
S':'
asbag69
(g90
g71
NtRp790
(dp791
g74
(dp792
sg83
g778
sg76
(lp793
g69
(g70
g71
NtRp794
(dp795
g74
(dp796
g82
I3
ssg83
g790
sg76
(lp797
S''
asbasbasbag69
(g85
g71
NtRp798
(dp799
g74
(dp800
sg83
g674
sg76
(lp801
g69
(g90
g71
NtRp802
(dp803
g74
(dp804
g94
g95
ssg83
g798
sg76
(lp805
g432
asbag69
(g90
g71
NtRp806
(dp807
g74
(dp808
g101
g102
ssg83
g798
sg76
(lp809
S':'
asbag69
(g90
g71
NtRp810
(dp811
g74
(dp812
sg83
g798
sg76
(lp813
g69
(g70
g71
NtRp814
(dp815
g74
(dp816
g82
I3
ssg83
g810
sg76
(lp817
S''
asbasbasbag69
(g85
g71
NtRp818
(dp819
g74
(dp820
sg83
g674
sg76
(lp821
g69
(g90
g71
NtRp822
(dp823
g74
(dp824
g94
g95
ssg83
g818
sg76
(lp825
g453
asbag69
(g90
g71
NtRp826
(dp827
g74
(dp828
g101
g102
ssg83
g818
sg76
(lp829
S':'
asbag69
(g90
g71
NtRp830
(dp831
g74
(dp832
sg83
g818
sg76
(lp833
g69
(g70
g71
NtRp834
(dp835
g74
(dp836
g82
I3
ssg83
g830
sg76
(lp837
S''
asbasbasbasbasbasbasbag69
(g85
g71
NtRp838
(dp839
g74
(dp840
sg83
g268
sg76
(lp841
g69
(g90
g71
NtRp842
(dp843
g74
(dp844
g94
g95
ssg83
g838
sg76
(lp845
S'session_id_ridesharetest'
p846
asbag69
(g90
g71
NtRp847
(dp848
g74
(dp849
g101
g102
ssg83
g838
sg76
(lp850
S':'
asbag69
(g90
g71
NtRp851
(dp852
g74
(dp853
sg83
g838
sg76
(lp854
g69
(g70
g71
NtRp855
(dp856
g74
(dp857
g82
I4
ssg83
g851
sg76
(lp858
S'127.0.0.1-1b82f8e9-8437-46f1-a88e-d1a82c8a726d'
p859
ag69
(g78
g71
NtRp860
(dp861
g74
(dp862
g82
I3
ssg83
Nsg76
(lp863
g69
(g85
g71
NtRp864
(dp865
g74
(dp866
sg83
g860
sg76
(lp867
g69
(g90
g71
NtRp868
(dp869
g74
(dp870
g94
g95
ssg83
g864
sg76
(lp871
g306
asbag69
(g90
g71
NtRp872
(dp873
g74
(dp874
g101
g102
ssg83
g864
sg76
(lp875
S':'
asbag69
(g90
g71
NtRp876
(dp877
g74
(dp878
sg83
g864
sg76
(lp879
g69
(g70
g71
NtRp880
(dp881
g74
(dp882
g82
I3
ssg83
g876
sg76
(lp883
S''
asbasbasbag69
(g85
g71
NtRp884
(dp885
g74
(dp886
sg83
g860
sg76
(lp887
g69
(g90
g71
NtRp888
(dp889
g74
(dp890
g94
g95
ssg83
g884
sg76
(lp891
g327
asbag69
(g90
g71
NtRp892
(dp893
g74
(dp894
g101
g102
ssg83
g884
sg76
(lp895
S':'
asbag69
(g90
g71
NtRp896
(dp897
g74
(dp898
sg83
g884
sg76
(lp899
g69
(g70
g71
NtRp900
(dp901
g74
(dp902
g82
I3
ssg83
g896
sg76
(lp903
S''
asbasbasbag69
(g85
g71
NtRp904
(dp905
g74
(dp906
sg83
g860
sg76
(lp907
g69
(g90
g71
NtRp908
(dp909
g74
(dp910
g94
g95
ssg83
g904
sg76
(lp911
g348
asbag69
(g90
g71
NtRp912
(dp913
g74
(dp914
g101
g102
ssg83
g904
sg76
(lp915
S':'
asbag69
(g90
g71
NtRp916
(dp917
g74
(dp918
sg83
g904
sg76
(lp919
g69
(g70
g71
NtRp920
(dp921
g74
(dp922
g82
I3
ssg83
g916
sg76
(lp923
S''
asbasbasbag69
(g85
g71
NtRp924
(dp925
g74
(dp926
sg83
g860
sg76
(lp927
g69
(g90
g71
NtRp928
(dp929
g74
(dp930
g94
g95
ssg83
g924
sg76
(lp931
g369
asbag69
(g90
g71
NtRp932
(dp933
g74
(dp934
g101
g102
ssg83
g924
sg76
(lp935
S':'
asbag69
(g90
g71
NtRp936
(dp937
g74
(dp938
sg83
g924
sg76
(lp939
g69
(g70
g71
NtRp940
(dp941
g74
(dp942
g82
I3
ssg83
g936
sg76
(lp943
S''
asbasbasbag69
(g85
g71
NtRp944
(dp945
g74
(dp946
sg83
g860
sg76
(lp947
g69
(g90
g71
NtRp948
(dp949
g74
(dp950
g94
g95
ssg83
g944
sg76
(lp951
g390
asbag69
(g90
g71
NtRp952
(dp953
g74
(dp954
g101
g102
ssg83
g944
sg76
(lp955
S':'
asbag69
(g90
g71
NtRp956
(dp957
g74
(dp958
sg83
g944
sg76
(lp959
g69
(g70
g71
NtRp960
(dp961
g74
(dp962
g82
I3
ssg83
g956
sg76
(lp963
S''
asbasbasbag69
(g85
g71
NtRp964
(dp965
g74
(dp966
sg83
g860
sg76
(lp967
g69
(g90
g71
NtRp968
(dp969
g74
(dp970
g94
g95
ssg83
g964
sg76
(lp971
g411
asbag69
(g90
g71
NtRp972
(dp973
g74
(dp974
g101
g102
ssg83
g964
sg76
(lp975
S':'
asbag69
(g90
g71
NtRp976
(dp977
g74
(dp978
sg83
g964
sg76
(lp979
g69
(g70
g71
NtRp980
(dp981
g74
(dp982
g82
I3
ssg83
g976
sg76
(lp983
S''
asbasbasbag69
(g85
g71
NtRp984
(dp985
g74
(dp986
sg83
g860
sg76
(lp987
g69
(g90
g71
NtRp988
(dp989
g74
(dp990
g94
g95
ssg83
g984
sg76
(lp991
g432
asbag69
(g90
g71
NtRp992
(dp993
g74
(dp994
g101
g102
ssg83
g984
sg76
(lp995
S':'
asbag69
(g90
g71
NtRp996
(dp997
g74
(dp998
sg83
g984
sg76
(lp999
g69
(g70
g71
NtRp1000
(dp1001
g74
(dp1002
g82
I3
ssg83
g996
sg76
(lp1003
S''
asbasbasbag69
(g85
g71
NtRp1004
(dp1005
g74
(dp1006
sg83
g860
sg76
(lp1007
g69
(g90
g71
NtRp1008
(dp1009
g74
(dp1010
g94
g95
ssg83
g1004
sg76
(lp1011
g453
asbag69
(g90
g71
NtRp1012
(dp1013
g74
(dp1014
g101
g102
ssg83
g1004
sg76
(lp1015
S':'
asbag69
(g90
g71
NtRp1016
(dp1017
g74
(dp1018
sg83
g1004
sg76
(lp1019
g69
(g70
g71
NtRp1020
(dp1021
g74
(dp1022
g82
I3
ssg83
g1016
sg76
(lp1023
S''
asbasbasbasbasbasbasbag69
(g85
g71
NtRp1024
(dp1025
g74
(dp1026
sg83
g268
sg76
(lp1027
g69
(g90
g71
NtRp1028
(dp1029
g74
(dp1030
g94
g95
ssg83
g1024
sg76
(lp1031
S'session_id_rsharetest'
p1032
asbag69
(g90
g71
NtRp1033
(dp1034
g74
(dp1035
g101
g102
ssg83
g1024
sg76
(lp1036
S':'
asbag69
(g90
g71
NtRp1037
(dp1038
g74
(dp1039
sg83
g1024
sg76
(lp1040
g69
(g70
g71
NtRp1041
(dp1042
g74
(dp1043
g82
I4
ssg83
g1037
sg76
(lp1044
S'127.0.0.1-17db44d3-6c70-47f0-9d72-ece020d9a50a'
p1045
ag69
(g78
g71
NtRp1046
(dp1047
g74
(dp1048
g82
I3
ssg83
Nsg76
(lp1049
g69
(g85
g71
NtRp1050
(dp1051
g74
(dp1052
sg83
g1046
sg76
(lp1053
g69
(g90
g71
NtRp1054
(dp1055
g74
(dp1056
g94
g95
ssg83
g1050
sg76
(lp1057
g306
asbag69
(g90
g71
NtRp1058
(dp1059
g74
(dp1060
g101
g102
ssg83
g1050
sg76
(lp1061
S':'
asbag69
(g90
g71
NtRp1062
(dp1063
g74
(dp1064
sg83
g1050
sg76
(lp1065
g69
(g70
g71
NtRp1066
(dp1067
g74
(dp1068
g82
I3
ssg83
g1062
sg76
(lp1069
S''
asbasbasbag69
(g85
g71
NtRp1070
(dp1071
g74
(dp1072
sg83
g1046
sg76
(lp1073
g69
(g90
g71
NtRp1074
(dp1075
g74
(dp1076
g94
g95
ssg83
g1070
sg76
(lp1077
g327
asbag69
(g90
g71
NtRp1078
(dp1079
g74
(dp1080
g101
g102
ssg83
g1070
sg76
(lp1081
S':'
asbag69
(g90
g71
NtRp1082
(dp1083
g74
(dp1084
sg83
g1070
sg76
(lp1085
g69
(g70
g71
NtRp1086
(dp1087
g74
(dp1088
g82
I3
ssg83
g1082
sg76
(lp1089
S''
asbasbasbag69
(g85
g71
NtRp1090
(dp1091
g74
(dp1092
sg83
g1046
sg76
(lp1093
g69
(g90
g71
NtRp1094
(dp1095
g74
(dp1096
g94
g95
ssg83
g1090
sg76
(lp1097
g348
asbag69
(g90
g71
NtRp1098
(dp1099
g74
(dp1100
g101
g102
ssg83
g1090
sg76
(lp1101
S':'
asbag69
(g90
g71
NtRp1102
(dp1103
g74
(dp1104
sg83
g1090
sg76
(lp1105
g69
(g70
g71
NtRp1106
(dp1107
g74
(dp1108
g82
I3
ssg83
g1102
sg76
(lp1109
S''
asbasbasbag69
(g85
g71
NtRp1110
(dp1111
g74
(dp1112
sg83
g1046
sg76
(lp1113
g69
(g90
g71
NtRp1114
(dp1115
g74
(dp1116
g94
g95
ssg83
g1110
sg76
(lp1117
g369
asbag69
(g90
g71
NtRp1118
(dp1119
g74
(dp1120
g101
g102
ssg83
g1110
sg76
(lp1121
S':'
asbag69
(g90
g71
NtRp1122
(dp1123
g74
(dp1124
sg83
g1110
sg76
(lp1125
g69
(g70
g71
NtRp1126
(dp1127
g74
(dp1128
g82
I3
ssg83
g1122
sg76
(lp1129
S''
asbasbasbag69
(g85
g71
NtRp1130
(dp1131
g74
(dp1132
sg83
g1046
sg76
(lp1133
g69
(g90
g71
NtRp1134
(dp1135
g74
(dp1136
g94
g95
ssg83
g1130
sg76
(lp1137
g390
asbag69
(g90
g71
NtRp1138
(dp1139
g74
(dp1140
g101
g102
ssg83
g1130
sg76
(lp1141
S':'
asbag69
(g90
g71
NtRp1142
(dp1143
g74
(dp1144
sg83
g1130
sg76
(lp1145
g69
(g70
g71
NtRp1146
(dp1147
g74
(dp1148
g82
I3
ssg83
g1142
sg76
(lp1149
S''
asbasbasbag69
(g85
g71
NtRp1150
(dp1151
g74
(dp1152
sg83
g1046
sg76
(lp1153
g69
(g90
g71
NtRp1154
(dp1155
g74
(dp1156
g94
g95
ssg83
g1150
sg76
(lp1157
g411
asbag69
(g90
g71
NtRp1158
(dp1159
g74
(dp1160
g101
g102
ssg83
g1150
sg76
(lp1161
S':'
asbag69
(g90
g71
NtRp1162
(dp1163
g74
(dp1164
sg83
g1150
sg76
(lp1165
g69
(g70
g71
NtRp1166
(dp1167
g74
(dp1168
g82
I3
ssg83
g1162
sg76
(lp1169
S''
asbasbasbag69
(g85
g71
NtRp1170
(dp1171
g74
(dp1172
sg83
g1046
sg76
(lp1173
g69
(g90
g71
NtRp1174
(dp1175
g74
(dp1176
g94
g95
ssg83
g1170
sg76
(lp1177
g432
asbag69
(g90
g71
NtRp1178
(dp1179
g74
(dp1180
g101
g102
ssg83
g1170
sg76
(lp1181
S':'
asbag69
(g90
g71
NtRp1182
(dp1183
g74
(dp1184
sg83
g1170
sg76
(lp1185
g69
(g70
g71
NtRp1186
(dp1187
g74
(dp1188
g82
I3
ssg83
g1182
sg76
(lp1189
S''
asbasbasbag69
(g85
g71
NtRp1190
(dp1191
g74
(dp1192
sg83
g1046
sg76
(lp1193
g69
(g90
g71
NtRp1194
(dp1195
g74
(dp1196
g94
g95
ssg83
g1190
sg76
(lp1197
g453
asbag69
(g90
g71
NtRp1198
(dp1199
g74
(dp1200
g101
g102
ssg83
g1190
sg76
(lp1201
S':'
asbag69
(g90
g71
NtRp1202
(dp1203
g74
(dp1204
sg83
g1190
sg76
(lp1205
g69
(g70
g71
NtRp1206
(dp1207
g74
(dp1208
g82
I3
ssg83
g1202
sg76
(lp1209
S''
asbasbasbasbasbasbasbag69
(g85
g71
NtRp1210
(dp1211
g74
(dp1212
sg83
g268
sg76
(lp1213
g69
(g90
g71
NtRp1214
(dp1215
g74
(dp1216
g94
g95
ssg83
g1210
sg76
(lp1217
S'session_id_welcome'
p1218
asbag69
(g90
g71
NtRp1219
(dp1220
g74
(dp1221
g101
g102
ssg83
g1210
sg76
(lp1222
S':'
asbag69
(g90
g71
NtRp1223
(dp1224
g74
(dp1225
sg83
g1210
sg76
(lp1226
g69
(g70
g71
NtRp1227
(dp1228
g74
(dp1229
g82
I4
ssg83
g1223
sg76
(lp1230
S'127.0.0.1-e8eea386-4697-4b76-ab09-0a0be6604008'
p1231
ag69
(g78
g71
NtRp1232
(dp1233
g74
(dp1234
g82
I3
ssg83
Nsg76
(lp1235
g69
(g85
g71
NtRp1236
(dp1237
g74
(dp1238
sg83
g1232
sg76
(lp1239
g69
(g90
g71
NtRp1240
(dp1241
g74
(dp1242
g94
g95
ssg83
g1236
sg76
(lp1243
g306
asbag69
(g90
g71
NtRp1244
(dp1245
g74
(dp1246
g101
g102
ssg83
g1236
sg76
(lp1247
S':'
asbag69
(g90
g71
NtRp1248
(dp1249
g74
(dp1250
sg83
g1236
sg76
(lp1251
g69
(g70
g71
NtRp1252
(dp1253
g74
(dp1254
g82
I3
ssg83
g1248
sg76
(lp1255
S''
asbasbasbag69
(g85
g71
NtRp1256
(dp1257
g74
(dp1258
sg83
g1232
sg76
(lp1259
g69
(g90
g71
NtRp1260
(dp1261
g74
(dp1262
g94
g95
ssg83
g1256
sg76
(lp1263
g327
asbag69
(g90
g71
NtRp1264
(dp1265
g74
(dp1266
g101
g102
ssg83
g1256
sg76
(lp1267
S':'
asbag69
(g90
g71
NtRp1268
(dp1269
g74
(dp1270
sg83
g1256
sg76
(lp1271
g69
(g70
g71
NtRp1272
(dp1273
g74
(dp1274
g82
I3
ssg83
g1268
sg76
(lp1275
S''
asbasbasbag69
(g85
g71
NtRp1276
(dp1277
g74
(dp1278
sg83
g1232
sg76
(lp1279
g69
(g90
g71
NtRp1280
(dp1281
g74
(dp1282
g94
g95
ssg83
g1276
sg76
(lp1283
g348
asbag69
(g90
g71
NtRp1284
(dp1285
g74
(dp1286
g101
g102
ssg83
g1276
sg76
(lp1287
S':'
asbag69
(g90
g71
NtRp1288
(dp1289
g74
(dp1290
sg83
g1276
sg76
(lp1291
g69
(g70
g71
NtRp1292
(dp1293
g74
(dp1294
g82
I3
ssg83
g1288
sg76
(lp1295
S''
asbasbasbag69
(g85
g71
NtRp1296
(dp1297
g74
(dp1298
sg83
g1232
sg76
(lp1299
g69
(g90
g71
NtRp1300
(dp1301
g74
(dp1302
g94
g95
ssg83
g1296
sg76
(lp1303
g369
asbag69
(g90
g71
NtRp1304
(dp1305
g74
(dp1306
g101
g102
ssg83
g1296
sg76
(lp1307
S':'
asbag69
(g90
g71
NtRp1308
(dp1309
g74
(dp1310
sg83
g1296
sg76
(lp1311
g69
(g70
g71
NtRp1312
(dp1313
g74
(dp1314
g82
I3
ssg83
g1308
sg76
(lp1315
S''
asbasbasbag69
(g85
g71
NtRp1316
(dp1317
g74
(dp1318
sg83
g1232
sg76
(lp1319
g69
(g90
g71
NtRp1320
(dp1321
g74
(dp1322
g94
g95
ssg83
g1316
sg76
(lp1323
g390
asbag69
(g90
g71
NtRp1324
(dp1325
g74
(dp1326
g101
g102
ssg83
g1316
sg76
(lp1327
S':'
asbag69
(g90
g71
NtRp1328
(dp1329
g74
(dp1330
sg83
g1316
sg76
(lp1331
g69
(g70
g71
NtRp1332
(dp1333
g74
(dp1334
g82
I3
ssg83
g1328
sg76
(lp1335
S''
asbasbasbag69
(g85
g71
NtRp1336
(dp1337
g74
(dp1338
sg83
g1232
sg76
(lp1339
g69
(g90
g71
NtRp1340
(dp1341
g74
(dp1342
g94
g95
ssg83
g1336
sg76
(lp1343
g411
asbag69
(g90
g71
NtRp1344
(dp1345
g74
(dp1346
g101
g102
ssg83
g1336
sg76
(lp1347
S':'
asbag69
(g90
g71
NtRp1348
(dp1349
g74
(dp1350
sg83
g1336
sg76
(lp1351
g69
(g70
g71
NtRp1352
(dp1353
g74
(dp1354
g82
I3
ssg83
g1348
sg76
(lp1355
S''
asbasbasbag69
(g85
g71
NtRp1356
(dp1357
g74
(dp1358
sg83
g1232
sg76
(lp1359
g69
(g90
g71
NtRp1360
(dp1361
g74
(dp1362
g94
g95
ssg83
g1356
sg76
(lp1363
g432
asbag69
(g90
g71
NtRp1364
(dp1365
g74
(dp1366
g101
g102
ssg83
g1356
sg76
(lp1367
S':'
asbag69
(g90
g71
NtRp1368
(dp1369
g74
(dp1370
sg83
g1356
sg76
(lp1371
g69
(g70
g71
NtRp1372
(dp1373
g74
(dp1374
g82
I3
ssg83
g1368
sg76
(lp1375
S''
asbasbasbag69
(g85
g71
NtRp1376
(dp1377
g74
(dp1378
sg83
g1232
sg76
(lp1379
g69
(g90
g71
NtRp1380
(dp1381
g74
(dp1382
g94
g95
ssg83
g1376
sg76
(lp1383
g453
asbag69
(g90
g71
NtRp1384
(dp1385
g74
(dp1386
g101
g102
ssg83
g1376
sg76
(lp1387
S':'
asbag69
(g90
g71
NtRp1388
(dp1389
g74
(dp1390
sg83
g1376
sg76
(lp1391
g69
(g70
g71
NtRp1392
(dp1393
g74
(dp1394
g82
I3
ssg83
g1388
sg76
(lp1395
S''
asbasbasbasbasbasbasbasbasbasbasbag69
(g85
g71
NtRp1396
(dp1397
g74
(dp1398
sg83
g79
sg76
(lp1399
g69
(g90
g71
NtRp1400
(dp1401
g74
(dp1402
g94
g95
ssg83
g1396
sg76
(lp1403
S'env'
p1404
asbag69
(g90
g71
NtRp1405
(dp1406
g74
(dp1407
g101
g102
ssg83
g1396
sg76
(lp1408
S':'
asbag69
(g90
g71
NtRp1409
(dp1410
g74
(dp1411
sg83
g1396
sg76
(lp1412
g69
(g70
g71
NtRp1413
(dp1414
g74
(dp1415
g82
I5
ssg83
g1409
sg76
(lp1416
g69
(g78
g71
NtRp1417
(dp1418
g74
(dp1419
g82
I4
ssg83
Nsg76
(lp1420
g69
(g85
g71
NtRp1421
(dp1422
g74
(dp1423
sg83
g1417
sg76
(lp1424
g69
(g90
g71
NtRp1425
(dp1426
g74
(dp1427
g94
g95
ssg83
g1421
sg76
(lp1428
S'app_folders'
p1429
asbag69
(g90
g71
NtRp1430
(dp1431
g74
(dp1432
g101
g102
ssg83
g1421
sg76
(lp1433
S':'
asbag69
(g90
g71
NtRp1434
(dp1435
g74
(dp1436
sg83
g1421
sg76
(lp1437
g69
(g70
g71
NtRp1438
(dp1439
g74
(dp1440
g82
I4
ssg83
g1434
sg76
(lp1441
S"set(['C:\\\\Users\\\\Owner\\\\Desktop\\\\web2py\\\\applications\\\\rideshare\\\\', 'C:\\\\Users\\\\Owner\\\\Desktop\\\\web2py\\\\applications\\\\admin\\\\', 'C:\\\\Users\\\\Owner\\\\Desktop\\\\web2py\\\\applications\\\\welcome\\\\'])"
p1442
asbasbasbag69
(g85
g71
NtRp1443
(dp1444
g74
(dp1445
sg83
g1417
sg76
(lp1446
g69
(g90
g71
NtRp1447
(dp1448
g74
(dp1449
g94
g95
ssg83
g1443
sg76
(lp1450
S'applications_parent'
p1451
asbag69
(g90
g71
NtRp1452
(dp1453
g74
(dp1454
g101
g102
ssg83
g1443
sg76
(lp1455
S':'
asbag69
(g90
g71
NtRp1456
(dp1457
g74
(dp1458
sg83
g1443
sg76
(lp1459
g69
(g70
g71
NtRp1460
(dp1461
g74
(dp1462
g82
I4
ssg83
g1456
sg76
(lp1463
S'C:\\Users\\Owner\\Desktop\\web2py'
p1464
asbasbasbag69
(g85
g71
NtRp1465
(dp1466
g74
(dp1467
sg83
g1417
sg76
(lp1468
g69
(g90
g71
NtRp1469
(dp1470
g74
(dp1471
g94
g95
ssg83
g1465
sg76
(lp1472
S'cmd_args'
p1473
asbag69
(g90
g71
NtRp1474
(dp1475
g74
(dp1476
g101
g102
ssg83
g1465
sg76
(lp1477
S':'
asbag69
(g90
g71
NtRp1478
(dp1479
g74
(dp1480
sg83
g1465
sg76
(lp1481
g69
(g70
g71
NtRp1482
(dp1483
g74
(dp1484
g82
I4
ssg83
g1478
sg76
(lp1485
g69
(g78
g71
NtRp1486
(dp1487
g74
(dp1488
g82
I3
ssg83
Nsg76
(lp1489
sbasbasbasbag69
(g85
g71
NtRp1490
(dp1491
g74
(dp1492
sg83
g1417
sg76
(lp1493
g69
(g90
g71
NtRp1494
(dp1495
g74
(dp1496
g94
g95
ssg83
g1490
sg76
(lp1497
S'cmd_options'
p1498
asbag69
(g90
g71
NtRp1499
(dp1500
g74
(dp1501
g101
g102
ssg83
g1490
sg76
(lp1502
S':'
asbag69
(g90
g71
NtRp1503
(dp1504
g74
(dp1505
sg83
g1490
sg76
(lp1506
g69
(g70
g71
NtRp1507
(dp1508
g74
(dp1509
g82
I4
ssg83
g1503
sg76
(lp1510
S"<Values at 0x2bc9030: {'verbose': False, 'ip': '127.0.0.1', 'with_scheduler': False, 'ips': [], 'shutdown_timeout': 5, 'taskbar': False, 'port': 8000, 'maxthreads': None, 'softcron': False, 'server_name': 'Owner-PC', 'bpython': False, 'nogui': False, 'nocron': False, 'extcron': False, 'run_system_tests': False, 'test': None, 'folder': 'C:\\\\Users\\\\Owner\\\\Desktop\\\\web2py', 'config': '', 'import_models': False, 'winservice': '', 'shell': None, 'run': '', 'log_filename': 'httpserver.log', 'debuglevel': 30, 'args': [''], 'socket_timeout': 5, 'ssl_ca_certificate': None, 'scheduler': None, 'profiler_filename': None, 'ssl_private_key': '', 'scheduler_groups': None, 'password': '<ask>', 'request_queue_size': 5, 'ssl_certificate': '', 'cronjob': False, 'numthreads': None, 'quiet': False, 'interfaces': None, 'minthreads': None, 'timeout': 10, 'plain': False, 'nobanner': False, 'pid_filename': 'httpserver.pid'}>"
p1511
asbasbasbag69
(g85
g71
NtRp1512
(dp1513
g74
(dp1514
sg83
g1417
sg76
(lp1515
g69
(g90
g71
NtRp1516
(dp1517
g74
(dp1518
g94
g95
ssg83
g1512
sg76
(lp1519
S'db_sessions'
p1520
asbag69
(g90
g71
NtRp1521
(dp1522
g74
(dp1523
g101
g102
ssg83
g1512
sg76
(lp1524
S':'
asbag69
(g90
g71
NtRp1525
(dp1526
g74
(dp1527
sg83
g1512
sg76
(lp1528
g69
(g70
g71
NtRp1529
(dp1530
g74
(dp1531
g82
I4
ssg83
g1525
sg76
(lp1532
S'set([])'
p1533
asbasbasbag69
(g85
g71
NtRp1534
(dp1535
g74
(dp1536
sg83
g1417
sg76
(lp1537
g69
(g90
g71
NtRp1538
(dp1539
g74
(dp1540
g94
g95
ssg83
g1534
sg76
(lp1541
S'debugging'
p1542
asbag69
(g90
g71
NtRp1543
(dp1544
g74
(dp1545
g101
g102
ssg83
g1534
sg76
(lp1546
S':'
asbag69
(g90
g71
NtRp1547
(dp1548
g74
(dp1549
sg83
g1534
sg76
(lp1550
g69
(g70
g71
NtRp1551
(dp1552
g74
(dp1553
g82
I4
ssg83
g1547
sg76
(lp1554
g112
asbasbasbag69
(g85
g71
NtRp1555
(dp1556
g74
(dp1557
sg83
g1417
sg76
(lp1558
g69
(g90
g71
NtRp1559
(dp1560
g74
(dp1561
g94
g95
ssg83
g1555
sg76
(lp1562
S'gluon_parent'
p1563
asbag69
(g90
g71
NtRp1564
(dp1565
g74
(dp1566
g101
g102
ssg83
g1555
sg76
(lp1567
S':'
asbag69
(g90
g71
NtRp1568
(dp1569
g74
(dp1570
sg83
g1555
sg76
(lp1571
g69
(g70
g71
NtRp1572
(dp1573
g74
(dp1574
g82
I4
ssg83
g1568
sg76
(lp1575
S'C:\\Users\\Owner\\Desktop\\web2py'
p1576
asbasbasbag69
(g85
g71
NtRp1577
(dp1578
g74
(dp1579
sg83
g1417
sg76
(lp1580
g69
(g90
g71
NtRp1581
(dp1582
g74
(dp1583
g94
g95
ssg83
g1577
sg76
(lp1584
S'http_accept'
p1585
asbag69
(g90
g71
NtRp1586
(dp1587
g74
(dp1588
g101
g102
ssg83
g1577
sg76
(lp1589
S':'
asbag69
(g90
g71
NtRp1590
(dp1591
g74
(dp1592
sg83
g1577
sg76
(lp1593
g69
(g70
g71
NtRp1594
(dp1595
g74
(dp1596
g82
I4
ssg83
g1590
sg76
(lp1597
S'text/html,application/xhtml+xml,application/xml;q=0.9,*/*;q=0.8'
p1598
asbasbasbag69
(g85
g71
NtRp1599
(dp1600
g74
(dp1601
sg83
g1417
sg76
(lp1602
g69
(g90
g71
NtRp1603
(dp1604
g74
(dp1605
g94
g95
ssg83
g1599
sg76
(lp1606
S'http_accept_encoding'
p1607
asbag69
(g90
g71
NtRp1608
(dp1609
g74
(dp1610
g101
g102
ssg83
g1599
sg76
(lp1611
S':'
asbag69
(g90
g71
NtRp1612
(dp1613
g74
(dp1614
sg83
g1599
sg76
(lp1615
g69
(g70
g71
NtRp1616
(dp1617
g74
(dp1618
g82
I4
ssg83
g1612
sg76
(lp1619
S'gzip, deflate'
p1620
asbasbasbag69
(g85
g71
NtRp1621
(dp1622
g74
(dp1623
sg83
g1417
sg76
(lp1624
g69
(g90
g71
NtRp1625
(dp1626
g74
(dp1627
g94
g95
ssg83
g1621
sg76
(lp1628
S'http_accept_language'
p1629
asbag69
(g90
g71
NtRp1630
(dp1631
g74
(dp1632
g101
g102
ssg83
g1621
sg76
(lp1633
S':'
asbag69
(g90
g71
NtRp1634
(dp1635
g74
(dp1636
sg83
g1621
sg76
(lp1637
g69
(g70
g71
NtRp1638
(dp1639
g74
(dp1640
g82
I4
ssg83
g1634
sg76
(lp1641
S'en-us,en;q=0.5'
p1642
asbasbasbag69
(g85
g71
NtRp1643
(dp1644
g74
(dp1645
sg83
g1417
sg76
(lp1646
g69
(g90
g71
NtRp1647
(dp1648
g74
(dp1649
g94
g95
ssg83
g1643
sg76
(lp1650
S'http_connection'
p1651
asbag69
(g90
g71
NtRp1652
(dp1653
g74
(dp1654
g101
g102
ssg83
g1643
sg76
(lp1655
S':'
asbag69
(g90
g71
NtRp1656
(dp1657
g74
(dp1658
sg83
g1643
sg76
(lp1659
g69
(g70
g71
NtRp1660
(dp1661
g74
(dp1662
g82
I4
ssg83
g1656
sg76
(lp1663
S'keep-alive'
p1664
asbasbasbag69
(g85
g71
NtRp1665
(dp1666
g74
(dp1667
sg83
g1417
sg76
(lp1668
g69
(g90
g71
NtRp1669
(dp1670
g74
(dp1671
g94
g95
ssg83
g1665
sg76
(lp1672
S'http_cookie'
p1673
asbag69
(g90
g71
NtRp1674
(dp1675
g74
(dp1676
g101
g102
ssg83
g1665
sg76
(lp1677
S':'
asbag69
(g90
g71
NtRp1678
(dp1679
g74
(dp1680
sg83
g1665
sg76
(lp1681
g69
(g70
g71
NtRp1682
(dp1683
g74
(dp1684
g82
I4
ssg83
g1678
sg76
(lp1685
S'session_id_welcome=127.0.0.1-e8eea386-4697-4b76-ab09-0a0be6604008; session_id_fresh_light=127.0.0.1-abdb80ae-e769-4c7f-b431-193578ef9ec6; session_id_ridesharetest=127.0.0.1-1b82f8e9-8437-46f1-a88e-d1a82c8a726d; session_id_rsharetest=127.0.0.1-17db44d3-6c70-47f0-9d72-ece020d9a50a; session_id_admin=127.0.0.1-4f70e2b1-5bb0-4ebf-987e-4f2631c11c02; session_id_rideshare=127.0.0.1-76981bb4-a11c-4445-975f-4668a2e996ed'
p1686
asbasbasbag69
(g85
g71
NtRp1687
(dp1688
g74
(dp1689
sg83
g1417
sg76
(lp1690
g69
(g90
g71
NtRp1691
(dp1692
g74
(dp1693
g94
g95
ssg83
g1687
sg76
(lp1694
S'http_host'
p1695
asbag69
(g90
g71
NtRp1696
(dp1697
g74
(dp1698
g101
g102
ssg83
g1687
sg76
(lp1699
S':'
asbag69
(g90
g71
NtRp1700
(dp1701
g74
(dp1702
sg83
g1687
sg76
(lp1703
g69
(g70
g71
NtRp1704
(dp1705
g74
(dp1706
g82
I4
ssg83
g1700
sg76
(lp1707
S'127.0.0.1:8000'
p1708
asbasbasbag69
(g85
g71
NtRp1709
(dp1710
g74
(dp1711
sg83
g1417
sg76
(lp1712
g69
(g90
g71
NtRp1713
(dp1714
g74
(dp1715
g94
g95
ssg83
g1709
sg76
(lp1716
S'http_referer'
p1717
asbag69
(g90
g71
NtRp1718
(dp1719
g74
(dp1720
g101
g102
ssg83
g1709
sg76
(lp1721
S':'
asbag69
(g90
g71
NtRp1722
(dp1723
g74
(dp1724
sg83
g1709
sg76
(lp1725
g69
(g70
g71
NtRp1726
(dp1727
g74
(dp1728
g82
I4
ssg83
g1722
sg76
(lp1729
S'http://127.0.0.1:8000/admin/default/design/rideshare'
p1730
asbasbasbag69
(g85
g71
NtRp1731
(dp1732
g74
(dp1733
sg83
g1417
sg76
(lp1734
g69
(g90
g71
NtRp1735
(dp1736
g74
(dp1737
g94
g95
ssg83
g1731
sg76
(lp1738
S'http_user_agent'
p1739
asbag69
(g90
g71
NtRp1740
(dp1741
g74
(dp1742
g101
g102
ssg83
g1731
sg76
(lp1743
S':'
asbag69
(g90
g71
NtRp1744
(dp1745
g74
(dp1746
sg83
g1731
sg76
(lp1747
g69
(g70
g71
NtRp1748
(dp1749
g74
(dp1750
g82
I4
ssg83
g1744
sg76
(lp1751
S'Mozilla/5.0 (Windows NT 6.1; WOW64; rv:14.0) Gecko/20100101 Firefox/14.0.1'
p1752
asbasbasbag69
(g85
g71
NtRp1753
(dp1754
g74
(dp1755
sg83
g1417
sg76
(lp1756
g69
(g90
g71
NtRp1757
(dp1758
g74
(dp1759
g94
g95
ssg83
g1753
sg76
(lp1760
S'is_jython'
p1761
asbag69
(g90
g71
NtRp1762
(dp1763
g74
(dp1764
g101
g102
ssg83
g1753
sg76
(lp1765
S':'
asbag69
(g90
g71
NtRp1766
(dp1767
g74
(dp1768
sg83
g1753
sg76
(lp1769
g69
(g70
g71
NtRp1770
(dp1771
g74
(dp1772
g82
I4
ssg83
g1766
sg76
(lp1773
g112
asbasbasbag69
(g85
g71
NtRp1774
(dp1775
g74
(dp1776
sg83
g1417
sg76
(lp1777
g69
(g90
g71
NtRp1778
(dp1779
g74
(dp1780
g94
g95
ssg83
g1774
sg76
(lp1781
S'is_pypy'
p1782
asbag69
(g90
g71
NtRp1783
(dp1784
g74
(dp1785
g101
g102
ssg83
g1774
sg76
(lp1786
S':'
asbag69
(g90
g71
NtRp1787
(dp1788
g74
(dp1789
sg83
g1774
sg76
(lp1790
g69
(g70
g71
NtRp1791
(dp1792
g74
(dp1793
g82
I4
ssg83
g1787
sg76
(lp1794
g112
asbasbasbag69
(g85
g71
NtRp1795
(dp1796
g74
(dp1797
sg83
g1417
sg76
(lp1798
g69
(g90
g71
NtRp1799
(dp1800
g74
(dp1801
g94
g95
ssg83
g1795
sg76
(lp1802
S'path_info'
p1803
asbag69
(g90
g71
NtRp1804
(dp1805
g74
(dp1806
g101
g102
ssg83
g1795
sg76
(lp1807
S':'
asbag69
(g90
g71
NtRp1808
(dp1809
g74
(dp1810
sg83
g1795
sg76
(lp1811
g69
(g70
g71
NtRp1812
(dp1813
g74
(dp1814
g82
I4
ssg83
g1808
sg76
(lp1815
S'/rideshare/default/index'
p1816
asbasbasbag69
(g85
g71
NtRp1817
(dp1818
g74
(dp1819
sg83
g1417
sg76
(lp1820
g69
(g90
g71
NtRp1821
(dp1822
g74
(dp1823
g94
g95
ssg83
g1817
sg76
(lp1824
S'query_string'
p1825
asbag69
(g90
g71
NtRp1826
(dp1827
g74
(dp1828
g101
g102
ssg83
g1817
sg76
(lp1829
S':'
asbag69
(g90
g71
NtRp1830
(dp1831
g74
(dp1832
sg83
g1817
sg76
(lp1833
g69
(g70
g71
NtRp1834
(dp1835
g74
(dp1836
g82
I4
ssg83
g1830
sg76
(lp1837
S''
asbasbasbag69
(g85
g71
NtRp1838
(dp1839
g74
(dp1840
sg83
g1417
sg76
(lp1841
g69
(g90
g71
NtRp1842
(dp1843
g74
(dp1844
g94
g95
ssg83
g1838
sg76
(lp1845
S'remote_addr'
p1846
asbag69
(g90
g71
NtRp1847
(dp1848
g74
(dp1849
g101
g102
ssg83
g1838
sg76
(lp1850
S':'
asbag69
(g90
g71
NtRp1851
(dp1852
g74
(dp1853
sg83
g1838
sg76
(lp1854
g69
(g70
g71
NtRp1855
(dp1856
g74
(dp1857
g82
I4
ssg83
g1851
sg76
(lp1858
g224
asbasbasbag69
(g85
g71
NtRp1859
(dp1860
g74
(dp1861
sg83
g1417
sg76
(lp1862
g69
(g90
g71
NtRp1863
(dp1864
g74
(dp1865
g94
g95
ssg83
g1859
sg76
(lp1866
S'remote_port'
p1867
asbag69
(g90
g71
NtRp1868
(dp1869
g74
(dp1870
g101
g102
ssg83
g1859
sg76
(lp1871
S':'
asbag69
(g90
g71
NtRp1872
(dp1873
g74
(dp1874
sg83
g1859
sg76
(lp1875
g69
(g70
g71
NtRp1876
(dp1877
g74
(dp1878
g82
I4
ssg83
g1872
sg76
(lp1879
S'51196'
p1880
asbasbasbag69
(g85
g71
NtRp1881
(dp1882
g74
(dp1883
sg83
g1417
sg76
(lp1884
g69
(g90
g71
NtRp1885
(dp1886
g74
(dp1887
g94
g95
ssg83
g1881
sg76
(lp1888
S'request_method'
p1889
asbag69
(g90
g71
NtRp1890
(dp1891
g74
(dp1892
g101
g102
ssg83
g1881
sg76
(lp1893
S':'
asbag69
(g90
g71
NtRp1894
(dp1895
g74
(dp1896
sg83
g1881
sg76
(lp1897
g69
(g70
g71
NtRp1898
(dp1899
g74
(dp1900
g82
I4
ssg83
g1894
sg76
(lp1901
S'GET'
p1902
asbasbasbag69
(g85
g71
NtRp1903
(dp1904
g74
(dp1905
sg83
g1417
sg76
(lp1906
g69
(g90
g71
NtRp1907
(dp1908
g74
(dp1909
g94
g95
ssg83
g1903
sg76
(lp1910
S'request_uri'
p1911
asbag69
(g90
g71
NtRp1912
(dp1913
g74
(dp1914
g101
g102
ssg83
g1903
sg76
(lp1915
S':'
asbag69
(g90
g71
NtRp1916
(dp1917
g74
(dp1918
sg83
g1903
sg76
(lp1919
g69
(g70
g71
NtRp1920
(dp1921
g74
(dp1922
g82
I4
ssg83
g1916
sg76
(lp1923
g1816
asbasbasbag69
(g85
g71
NtRp1924
(dp1925
g74
(dp1926
sg83
g1417
sg76
(lp1927
g69
(g90
g71
NtRp1928
(dp1929
g74
(dp1930
g94
g95
ssg83
g1924
sg76
(lp1931
S'script_name'
p1932
asbag69
(g90
g71
NtRp1933
(dp1934
g74
(dp1935
g101
g102
ssg83
g1924
sg76
(lp1936
S':'
asbag69
(g90
g71
NtRp1937
(dp1938
g74
(dp1939
sg83
g1924
sg76
(lp1940
g69
(g70
g71
NtRp1941
(dp1942
g74
(dp1943
g82
I4
ssg83
g1937
sg76
(lp1944
S''
asbasbasbag69
(g85
g71
NtRp1945
(dp1946
g74
(dp1947
sg83
g1417
sg76
(lp1948
g69
(g90
g71
NtRp1949
(dp1950
g74
(dp1951
g94
g95
ssg83
g1945
sg76
(lp1952
S'server_name'
p1953
asbag69
(g90
g71
NtRp1954
(dp1955
g74
(dp1956
g101
g102
ssg83
g1945
sg76
(lp1957
S':'
asbag69
(g90
g71
NtRp1958
(dp1959
g74
(dp1960
sg83
g1945
sg76
(lp1961
g69
(g70
g71
NtRp1962
(dp1963
g74
(dp1964
g82
I4
ssg83
g1958
sg76
(lp1965
S'Owner-PC'
p1966
asbasbasbag69
(g85
g71
NtRp1967
(dp1968
g74
(dp1969
sg83
g1417
sg76
(lp1970
g69
(g90
g71
NtRp1971
(dp1972
g74
(dp1973
g94
g95
ssg83
g1967
sg76
(lp1974
S'server_port'
p1975
asbag69
(g90
g71
NtRp1976
(dp1977
g74
(dp1978
g101
g102
ssg83
g1967
sg76
(lp1979
S':'
asbag69
(g90
g71
NtRp1980
(dp1981
g74
(dp1982
sg83
g1967
sg76
(lp1983
g69
(g70
g71
NtRp1984
(dp1985
g74
(dp1986
g82
I4
ssg83
g1980
sg76
(lp1987
S'8000'
p1988
asbasbasbag69
(g85
g71
NtRp1989
(dp1990
g74
(dp1991
sg83
g1417
sg76
(lp1992
g69
(g90
g71
NtRp1993
(dp1994
g74
(dp1995
g94
g95
ssg83
g1989
sg76
(lp1996
S'server_protocol'
p1997
asbag69
(g90
g71
NtRp1998
(dp1999
g74
(dp2000
g101
g102
ssg83
g1989
sg76
(lp2001
S':'
asbag69
(g90
g71
NtRp2002
(dp2003
g74
(dp2004
sg83
g1989
sg76
(lp2005
g69
(g70
g71
NtRp2006
(dp2007
g74
(dp2008
g82
I4
ssg83
g2002
sg76
(lp2009
S'HTTP/1.1'
p2010
asbasbasbag69
(g85
g71
NtRp2011
(dp2012
g74
(dp2013
sg83
g1417
sg76
(lp2014
g69
(g90
g71
NtRp2015
(dp2016
g74
(dp2017
g94
g95
ssg83
g2011
sg76
(lp2018
S'server_software'
p2019
asbag69
(g90
g71
NtRp2020
(dp2021
g74
(dp2022
g101
g102
ssg83
g2011
sg76
(lp2023
S':'
asbag69
(g90
g71
NtRp2024
(dp2025
g74
(dp2026
sg83
g2011
sg76
(lp2027
g69
(g70
g71
NtRp2028
(dp2029
g74
(dp2030
g82
I4
ssg83
g2024
sg76
(lp2031
S'Rocket 1.2.4'
p2032
asbasbasbag69
(g85
g71
NtRp2033
(dp2034
g74
(dp2035
sg83
g1417
sg76
(lp2036
g69
(g90
g71
NtRp2037
(dp2038
g74
(dp2039
g94
g95
ssg83
g2033
sg76
(lp2040
S'web2py_crontype'
p2041
asbag69
(g90
g71
NtRp2042
(dp2043
g74
(dp2044
g101
g102
ssg83
g2033
sg76
(lp2045
S':'
asbag69
(g90
g71
NtRp2046
(dp2047
g74
(dp2048
sg83
g2033
sg76
(lp2049
g69
(g70
g71
NtRp2050
(dp2051
g74
(dp2052
g82
I4
ssg83
g2046
sg76
(lp2053
S'hard'
p2054
asbasbasbag69
(g85
g71
NtRp2055
(dp2056
g74
(dp2057
sg83
g1417
sg76
(lp2058
g69
(g90
g71
NtRp2059
(dp2060
g74
(dp2061
g94
g95
ssg83
g2055
sg76
(lp2062
S'web2py_path'
p2063
asbag69
(g90
g71
NtRp2064
(dp2065
g74
(dp2066
g101
g102
ssg83
g2055
sg76
(lp2067
S':'
asbag69
(g90
g71
NtRp2068
(dp2069
g74
(dp2070
sg83
g2055
sg76
(lp2071
g69
(g70
g71
NtRp2072
(dp2073
g74
(dp2074
g82
I4
ssg83
g2068
sg76
(lp2075
g1464
asbasbasbag69
(g85
g71
NtRp2076
(dp2077
g74
(dp2078
sg83
g1417
sg76
(lp2079
g69
(g90
g71
NtRp2080
(dp2081
g74
(dp2082
g94
g95
ssg83
g2076
sg76
(lp2083
S'web2py_version'
p2084
asbag69
(g90
g71
NtRp2085
(dp2086
g74
(dp2087
g101
g102
ssg83
g2076
sg76
(lp2088
S':'
asbag69
(g90
g71
NtRp2089
(dp2090
g74
(dp2091
sg83
g2076
sg76
(lp2092
g69
(g70
g71
NtRp2093
(dp2094
g74
(dp2095
g82
I4
ssg83
g2089
sg76
(lp2096
g69
(g78
g71
NtRp2097
(dp2098
g74
(dp2099
g82
I3
ssg83
Nsg76
(lp2100
g69
(g85
g71
NtRp2101
(dp2102
g74
(dp2103
sg83
g2097
sg76
(lp2104
g69
(g90
g71
NtRp2105
(dp2106
g74
(dp2107
sg83
g2101
sg76
(lp2108
g69
(g70
g71
NtRp2109
(dp2110
g74
(dp2111
g82
I3
ssg83
g2105
sg76
(lp2112
S'2'
asbasbasbag69
(g85
g71
NtRp2113
(dp2114
g74
(dp2115
sg83
g2097
sg76
(lp2116
g69
(g90
g71
NtRp2117
(dp2118
g74
(dp2119
sg83
g2113
sg76
(lp2120
g69
(g70
g71
NtRp2121
(dp2122
g74
(dp2123
g82
I3
ssg83
g2117
sg76
(lp2124
S'0'
asbasbasbag69
(g85
g71
NtRp2125
(dp2126
g74
(dp2127
sg83
g2097
sg76
(lp2128
g69
(g90
g71
NtRp2129
(dp2130
g74
(dp2131
sg83
g2125
sg76
(lp2132
g69
(g70
g71
NtRp2133
(dp2134
g74
(dp2135
g82
I3
ssg83
g2129
sg76
(lp2136
S'9'
asbasbasbag69
(g85
g71
NtRp2137
(dp2138
g74
(dp2139
sg83
g2097
sg76
(lp2140
g69
(g90
g71
NtRp2141
(dp2142
g74
(dp2143
sg83
g2137
sg76
(lp2144
g69
(g70
g71
NtRp2145
(dp2146
g74
(dp2147
g82
I3
ssg83
g2141
sg76
(lp2148
S'datetime.datetime(2012, 9, 13, 23, 51, 30)'
p2149
asbasbasbag69
(g85
g71
NtRp2150
(dp2151
g74
(dp2152
sg83
g2097
sg76
(lp2153
g69
(g90
g71
NtRp2154
(dp2155
g74
(dp2156
sg83
g2150
sg76
(lp2157
g69
(g70
g71
NtRp2158
(dp2159
g74
(dp2160
g82
I3
ssg83
g2154
sg76
(lp2161
S'stable'
p2162
asbasbasbasbasbasbasbag69
(g85
g71
NtRp2163
(dp2164
g74
(dp2165
sg83
g1417
sg76
(lp2166
g69
(g90
g71
NtRp2167
(dp2168
g74
(dp2169
g94
g95
ssg83
g2163
sg76
(lp2170
S'wsgi_errors'
p2171
asbag69
(g90
g71
NtRp2172
(dp2173
g74
(dp2174
g101
g102
ssg83
g2163
sg76
(lp2175
S':'
asbag69
(g90
g71
NtRp2176
(dp2177
g74
(dp2178
sg83
g2163
sg76
(lp2179
g69
(g70
g71
NtRp2180
(dp2181
g74
(dp2182
g82
I4
ssg83
g2176
sg76
(lp2183
S"<open file '<stderr>', mode 'w' at 0x01DA50D0>"
p2184
asbasbasbag69
(g85
g71
NtRp2185
(dp2186
g74
(dp2187
sg83
g1417
sg76
(lp2188
g69
(g90
g71
NtRp2189
(dp2190
g74
(dp2191
g94
g95
ssg83
g2185
sg76
(lp2192
S'wsgi_file_wrapper'
p2193
asbag69
(g90
g71
NtRp2194
(dp2195
g74
(dp2196
g101
g102
ssg83
g2185
sg76
(lp2197
S':'
asbag69
(g90
g71
NtRp2198
(dp2199
g74
(dp2200
sg83
g2185
sg76
(lp2201
g69
(g70
g71
NtRp2202
(dp2203
g74
(dp2204
g82
I4
ssg83
g2198
sg76
(lp2205
S'<class wsgiref.util.FileWrapper at 0x02B58688>'
p2206
asbasbasbag69
(g85
g71
NtRp2207
(dp2208
g74
(dp2209
sg83
g1417
sg76
(lp2210
g69
(g90
g71
NtRp2211
(dp2212
g74
(dp2213
g94
g95
ssg83
g2207
sg76
(lp2214
S'wsgi_input'
p2215
asbag69
(g90
g71
NtRp2216
(dp2217
g74
(dp2218
g101
g102
ssg83
g2207
sg76
(lp2219
S':'
asbag69
(g90
g71
NtRp2220
(dp2221
g74
(dp2222
sg83
g2207
sg76
(lp2223
g69
(g70
g71
NtRp2224
(dp2225
g74
(dp2226
g82
I4
ssg83
g2220
sg76
(lp2227
S'<socket._fileobject object at 0x075C97B0>'
p2228
asbasbasbag69
(g85
g71
NtRp2229
(dp2230
g74
(dp2231
sg83
g1417
sg76
(lp2232
g69
(g90
g71
NtRp2233
(dp2234
g74
(dp2235
g94
g95
ssg83
g2229
sg76
(lp2236
S'wsgi_multiprocess'
p2237
asbag69
(g90
g71
NtRp2238
(dp2239
g74
(dp2240
g101
g102
ssg83
g2229
sg76
(lp2241
S':'
asbag69
(g90
g71
NtRp2242
(dp2243
g74
(dp2244
sg83
g2229
sg76
(lp2245
g69
(g70
g71
NtRp2246
(dp2247
g74
(dp2248
g82
I4
ssg83
g2242
sg76
(lp2249
g112
asbasbasbag69
(g85
g71
NtRp2250
(dp2251
g74
(dp2252
sg83
g1417
sg76
(lp2253
g69
(g90
g71
NtRp2254
(dp2255
g74
(dp2256
g94
g95
ssg83
g2250
sg76
(lp2257
S'wsgi_multithread'
p2258
asbag69
(g90
g71
NtRp2259
(dp2260
g74
(dp2261
g101
g102
ssg83
g2250
sg76
(lp2262
S':'
asbag69
(g90
g71
NtRp2263
(dp2264
g74
(dp2265
sg83
g2250
sg76
(lp2266
g69
(g70
g71
NtRp2267
(dp2268
g74
(dp2269
g82
I4
ssg83
g2263
sg76
(lp2270
S'True'
p2271
asbasbasbag69
(g85
g71
NtRp2272
(dp2273
g74
(dp2274
sg83
g1417
sg76
(lp2275
g69
(g90
g71
NtRp2276
(dp2277
g74
(dp2278
g94
g95
ssg83
g2272
sg76
(lp2279
S'wsgi_run_once'
p2280
asbag69
(g90
g71
NtRp2281
(dp2282
g74
(dp2283
g101
g102
ssg83
g2272
sg76
(lp2284
S':'
asbag69
(g90
g71
NtRp2285
(dp2286
g74
(dp2287
sg83
g2272
sg76
(lp2288
g69
(g70
g71
NtRp2289
(dp2290
g74
(dp2291
g82
I4
ssg83
g2285
sg76
(lp2292
g112
asbasbasbag69
(g85
g71
NtRp2293
(dp2294
g74
(dp2295
sg83
g1417
sg76
(lp2296
g69
(g90
g71
NtRp2297
(dp2298
g74
(dp2299
g94
g95
ssg83
g2293
sg76
(lp2300
S'wsgi_url_scheme'
p2301
asbag69
(g90
g71
NtRp2302
(dp2303
g74
(dp2304
g101
g102
ssg83
g2293
sg76
(lp2305
S':'
asbag69
(g90
g71
NtRp2306
(dp2307
g74
(dp2308
sg83
g2293
sg76
(lp2309
g69
(g70
g71
NtRp2310
(dp2311
g74
(dp2312
g82
I4
ssg83
g2306
sg76
(lp2313
S'http'
p2314
asbasbasbag69
(g85
g71
NtRp2315
(dp2316
g74
(dp2317
sg83
g1417
sg76
(lp2318
g69
(g90
g71
NtRp2319
(dp2320
g74
(dp2321
g94
g95
ssg83
g2315
sg76
(lp2322
S'wsgi_version'
p2323
asbag69
(g90
g71
NtRp2324
(dp2325
g74
(dp2326
g101
g102
ssg83
g2315
sg76
(lp2327
S':'
asbag69
(g90
g71
NtRp2328
(dp2329
g74
(dp2330
sg83
g2315
sg76
(lp2331
g69
(g70
g71
NtRp2332
(dp2333
g74
(dp2334
g82
I4
ssg83
g2328
sg76
(lp2335
g69
(g78
g71
NtRp2336
(dp2337
g74
(dp2338
g82
I3
ssg83
Nsg76
(lp2339
g69
(g85
g71
NtRp2340
(dp2341
g74
(dp2342
sg83
g2336
sg76
(lp2343
g69
(g90
g71
NtRp2344
(dp2345
g74
(dp2346
sg83
g2340
sg76
(lp2347
g69
(g70
g71
NtRp2348
(dp2349
g74
(dp2350
g82
I3
ssg83
g2344
sg76
(lp2351
S'1'
asbasbasbag69
(g85
g71
NtRp2352
(dp2353
g74
(dp2354
sg83
g2336
sg76
(lp2355
g69
(g90
g71
NtRp2356
(dp2357
g74
(dp2358
sg83
g2352
sg76
(lp2359
g69
(g70
g71
NtRp2360
(dp2361
g74
(dp2362
g82
I3
ssg83
g2356
sg76
(lp2363
S'0'
asbasbasbasbasbasbasbasbasbasbasbag69
(g85
g71
NtRp2364
(dp2365
g74
(dp2366
sg83
g79
sg76
(lp2367
g69
(g90
g71
NtRp2368
(dp2369
g74
(dp2370
g94
g95
ssg83
g2364
sg76
(lp2371
S'extension'
p2372
asbag69
(g90
g71
NtRp2373
(dp2374
g74
(dp2375
g101
g102
ssg83
g2364
sg76
(lp2376
S':'
asbag69
(g90
g71
NtRp2377
(dp2378
g74
(dp2379
sg83
g2364
sg76
(lp2380
g69
(g70
g71
NtRp2381
(dp2382
g74
(dp2383
g82
I5
ssg83
g2377
sg76
(lp2384
S'html'
p2385
asbasbasbag69
(g85
g71
NtRp2386
(dp2387
g74
(dp2388
sg83
g79
sg76
(lp2389
g69
(g90
g71
NtRp2390
(dp2391
g74
(dp2392
g94
g95
ssg83
g2386
sg76
(lp2393
S'folder'
p2394
asbag69
(g90
g71
NtRp2395
(dp2396
g74
(dp2397
g101
g102
ssg83
g2386
sg76
(lp2398
S':'
asbag69
(g90
g71
NtRp2399
(dp2400
g74
(dp2401
sg83
g2386
sg76
(lp2402
g69
(g70
g71
NtRp2403
(dp2404
g74
(dp2405
g82
I5
ssg83
g2399
sg76
(lp2406
S'C:\\Users\\Owner\\Desktop\\web2py\\applications\\rideshare\\'
p2407
asbasbasbag69
(g85
g71
NtRp2408
(dp2409
g74
(dp2410
sg83
g79
sg76
(lp2411
g69
(g90
g71
NtRp2412
(dp2413
g74
(dp2414
g94
g95
ssg83
g2408
sg76
(lp2415
S'function'
p2416
asbag69
(g90
g71
NtRp2417
(dp2418
g74
(dp2419
g101
g102
ssg83
g2408
sg76
(lp2420
S':'
asbag69
(g90
g71
NtRp2421
(dp2422
g74
(dp2423
sg83
g2408
sg76
(lp2424
g69
(g70
g71
NtRp2425
(dp2426
g74
(dp2427
g82
I5
ssg83
g2421
sg76
(lp2428
S'index'
p2429
asbasbasbag69
(g85
g71
NtRp2430
(dp2431
g74
(dp2432
sg83
g79
sg76
(lp2433
g69
(g90
g71
NtRp2434
(dp2435
g74
(dp2436
g94
g95
ssg83
g2430
sg76
(lp2437
S'get_vars'
p2438
asbag69
(g90
g71
NtRp2439
(dp2440
g74
(dp2441
g101
g102
ssg83
g2430
sg76
(lp2442
S':'
asbag69
(g90
g71
NtRp2443
(dp2444
g74
(dp2445
sg83
g2430
sg76
(lp2446
g69
(g70
g71
NtRp2447
(dp2448
g74
(dp2449
g82
I5
ssg83
g2443
sg76
(lp2450
g69
(g78
g71
NtRp2451
(dp2452
g74
(dp2453
g82
I4
ssg83
Nsg76
(lp2454
sbasbasbasbag69
(g85
g71
NtRp2455
(dp2456
g74
(dp2457
sg83
g79
sg76
(lp2458
g69
(g90
g71
NtRp2459
(dp2460
g74
(dp2461
g94
g95
ssg83
g2455
sg76
(lp2462
S'global_settings'
p2463
asbag69
(g90
g71
NtRp2464
(dp2465
g74
(dp2466
g101
g102
ssg83
g2455
sg76
(lp2467
S':'
asbag69
(g90
g71
NtRp2468
(dp2469
g74
(dp2470
sg83
g2455
sg76
(lp2471
g69
(g70
g71
NtRp2472
(dp2473
g74
(dp2474
g82
I5
ssg83
g2468
sg76
(lp2475
g69
(g78
g71
NtRp2476
(dp2477
g74
(dp2478
g82
I4
ssg83
Nsg76
(lp2479
g69
(g85
g71
NtRp2480
(dp2481
g74
(dp2482
sg83
g2476
sg76
(lp2483
g69
(g90
g71
NtRp2484
(dp2485
g74
(dp2486
g94
g95
ssg83
g2480
sg76
(lp2487
g1429
asbag69
(g90
g71
NtRp2488
(dp2489
g74
(dp2490
g101
g102
ssg83
g2480
sg76
(lp2491
S':'
asbag69
(g90
g71
NtRp2492
(dp2493
g74
(dp2494
sg83
g2480
sg76
(lp2495
g69
(g70
g71
NtRp2496
(dp2497
g74
(dp2498
g82
I4
ssg83
g2492
sg76
(lp2499
S"set(['C:\\\\Users\\\\Owner\\\\Desktop\\\\web2py\\\\applications\\\\rideshare\\\\', 'C:\\\\Users\\\\Owner\\\\Desktop\\\\web2py\\\\applications\\\\admin\\\\', 'C:\\\\Users\\\\Owner\\\\Desktop\\\\web2py\\\\applications\\\\welcome\\\\'])"
p2500
asbasbasbag69
(g85
g71
NtRp2501
(dp2502
g74
(dp2503
sg83
g2476
sg76
(lp2504
g69
(g90
g71
NtRp2505
(dp2506
g74
(dp2507
g94
g95
ssg83
g2501
sg76
(lp2508
g1451
asbag69
(g90
g71
NtRp2509
(dp2510
g74
(dp2511
g101
g102
ssg83
g2501
sg76
(lp2512
S':'
asbag69
(g90
g71
NtRp2513
(dp2514
g74
(dp2515
sg83
g2501
sg76
(lp2516
g69
(g70
g71
NtRp2517
(dp2518
g74
(dp2519
g82
I4
ssg83
g2513
sg76
(lp2520
g1464
asbasbasbag69
(g85
g71
NtRp2521
(dp2522
g74
(dp2523
sg83
g2476
sg76
(lp2524
g69
(g90
g71
NtRp2525
(dp2526
g74
(dp2527
g94
g95
ssg83
g2521
sg76
(lp2528
g1473
asbag69
(g90
g71
NtRp2529
(dp2530
g74
(dp2531
g101
g102
ssg83
g2521
sg76
(lp2532
S':'
asbag69
(g90
g71
NtRp2533
(dp2534
g74
(dp2535
sg83
g2521
sg76
(lp2536
g69
(g70
g71
NtRp2537
(dp2538
g74
(dp2539
g82
I4
ssg83
g2533
sg76
(lp2540
g69
(g78
g71
NtRp2541
(dp2542
g74
(dp2543
g82
I3
ssg83
Nsg76
(lp2544
sbasbasbasbag69
(g85
g71
NtRp2545
(dp2546
g74
(dp2547
sg83
g2476
sg76
(lp2548
g69
(g90
g71
NtRp2549
(dp2550
g74
(dp2551
g94
g95
ssg83
g2545
sg76
(lp2552
g1498
asbag69
(g90
g71
NtRp2553
(dp2554
g74
(dp2555
g101
g102
ssg83
g2545
sg76
(lp2556
S':'
asbag69
(g90
g71
NtRp2557
(dp2558
g74
(dp2559
sg83
g2545
sg76
(lp2560
g69
(g70
g71
NtRp2561
(dp2562
g74
(dp2563
g82
I4
ssg83
g2557
sg76
(lp2564
S"<Values at 0x2bc9030: {'verbose': False, 'ip': '127.0.0.1', 'with_scheduler': False, 'ips': [], 'shutdown_timeout': 5, 'taskbar': False, 'port': 8000, 'maxthreads': None, 'softcron': False, 'server_name': 'Owner-PC', 'bpython': False, 'nogui': False, 'nocron': False, 'extcron': False, 'run_system_tests': False, 'test': None, 'folder': 'C:\\\\Users\\\\Owner\\\\Desktop\\\\web2py', 'config': '', 'import_models': False, 'winservice': '', 'shell': None, 'run': '', 'log_filename': 'httpserver.log', 'debuglevel': 30, 'args': [''], 'socket_timeout': 5, 'ssl_ca_certificate': None, 'scheduler': None, 'profiler_filename': None, 'ssl_private_key': '', 'scheduler_groups': None, 'password': '<ask>', 'request_queue_size': 5, 'ssl_certificate': '', 'cronjob': False, 'numthreads': None, 'quiet': False, 'interfaces': None, 'minthreads': None, 'timeout': 10, 'plain': False, 'nobanner': False, 'pid_filename': 'httpserver.pid'}>"
p2565
asbasbasbag69
(g85
g71
NtRp2566
(dp2567
g74
(dp2568
sg83
g2476
sg76
(lp2569
g69
(g90
g71
NtRp2570
(dp2571
g74
(dp2572
g94
g95
ssg83
g2566
sg76
(lp2573
g1520
asbag69
(g90
g71
NtRp2574
(dp2575
g74
(dp2576
g101
g102
ssg83
g2566
sg76
(lp2577
S':'
asbag69
(g90
g71
NtRp2578
(dp2579
g74
(dp2580
sg83
g2566
sg76
(lp2581
g69
(g70
g71
NtRp2582
(dp2583
g74
(dp2584
g82
I4
ssg83
g2578
sg76
(lp2585
S'set([])'
p2586
asbasbasbag69
(g85
g71
NtRp2587
(dp2588
g74
(dp2589
sg83
g2476
sg76
(lp2590
g69
(g90
g71
NtRp2591
(dp2592
g74
(dp2593
g94
g95
ssg83
g2587
sg76
(lp2594
g1542
asbag69
(g90
g71
NtRp2595
(dp2596
g74
(dp2597
g101
g102
ssg83
g2587
sg76
(lp2598
S':'
asbag69
(g90
g71
NtRp2599
(dp2600
g74
(dp2601
sg83
g2587
sg76
(lp2602
g69
(g70
g71
NtRp2603
(dp2604
g74
(dp2605
g82
I4
ssg83
g2599
sg76
(lp2606
g112
asbasbasbag69
(g85
g71
NtRp2607
(dp2608
g74
(dp2609
sg83
g2476
sg76
(lp2610
g69
(g90
g71
NtRp2611
(dp2612
g74
(dp2613
g94
g95
ssg83
g2607
sg76
(lp2614
g1563
asbag69
(g90
g71
NtRp2615
(dp2616
g74
(dp2617
g101
g102
ssg83
g2607
sg76
(lp2618
S':'
asbag69
(g90
g71
NtRp2619
(dp2620
g74
(dp2621
sg83
g2607
sg76
(lp2622
g69
(g70
g71
NtRp2623
(dp2624
g74
(dp2625
g82
I4
ssg83
g2619
sg76
(lp2626
g1576
asbasbasbag69
(g85
g71
NtRp2627
(dp2628
g74
(dp2629
sg83
g2476
sg76
(lp2630
g69
(g90
g71
NtRp2631
(dp2632
g74
(dp2633
g94
g95
ssg83
g2627
sg76
(lp2634
g1761
asbag69
(g90
g71
NtRp2635
(dp2636
g74
(dp2637
g101
g102
ssg83
g2627
sg76
(lp2638
S':'
asbag69
(g90
g71
NtRp2639
(dp2640
g74
(dp2641
sg83
g2627
sg76
(lp2642
g69
(g70
g71
NtRp2643
(dp2644
g74
(dp2645
g82
I4
ssg83
g2639
sg76
(lp2646
g112
asbasbasbag69
(g85
g71
NtRp2647
(dp2648
g74
(dp2649
sg83
g2476
sg76
(lp2650
g69
(g90
g71
NtRp2651
(dp2652
g74
(dp2653
g94
g95
ssg83
g2647
sg76
(lp2654
g1782
asbag69
(g90
g71
NtRp2655
(dp2656
g74
(dp2657
g101
g102
ssg83
g2647
sg76
(lp2658
S':'
asbag69
(g90
g71
NtRp2659
(dp2660
g74
(dp2661
sg83
g2647
sg76
(lp2662
g69
(g70
g71
NtRp2663
(dp2664
g74
(dp2665
g82
I4
ssg83
g2659
sg76
(lp2666
g112
asbasbasbag69
(g85
g71
NtRp2667
(dp2668
g74
(dp2669
sg83
g2476
sg76
(lp2670
g69
(g90
g71
NtRp2671
(dp2672
g74
(dp2673
g94
g95
ssg83
g2667
sg76
(lp2674
g2041
asbag69
(g90
g71
NtRp2675
(dp2676
g74
(dp2677
g101
g102
ssg83
g2667
sg76
(lp2678
S':'
asbag69
(g90
g71
NtRp2679
(dp2680
g74
(dp2681
sg83
g2667
sg76
(lp2682
g69
(g70
g71
NtRp2683
(dp2684
g74
(dp2685
g82
I4
ssg83
g2679
sg76
(lp2686
g2054
asbasbasbag69
(g85
g71
NtRp2687
(dp2688
g74
(dp2689
sg83
g2476
sg76
(lp2690
g69
(g90
g71
NtRp2691
(dp2692
g74
(dp2693
g94
g95
ssg83
g2687
sg76
(lp2694
g2084
asbag69
(g90
g71
NtRp2695
(dp2696
g74
(dp2697
g101
g102
ssg83
g2687
sg76
(lp2698
S':'
asbag69
(g90
g71
NtRp2699
(dp2700
g74
(dp2701
sg83
g2687
sg76
(lp2702
g69
(g70
g71
NtRp2703
(dp2704
g74
(dp2705
g82
I4
ssg83
g2699
sg76
(lp2706
g69
(g78
g71
NtRp2707
(dp2708
g74
(dp2709
g82
I3
ssg83
Nsg76
(lp2710
g69
(g85
g71
NtRp2711
(dp2712
g74
(dp2713
sg83
g2707
sg76
(lp2714
g69
(g90
g71
NtRp2715
(dp2716
g74
(dp2717
sg83
g2711
sg76
(lp2718
g69
(g70
g71
NtRp2719
(dp2720
g74
(dp2721
g82
I3
ssg83
g2715
sg76
(lp2722
S'2'
asbasbasbag69
(g85
g71
NtRp2723
(dp2724
g74
(dp2725
sg83
g2707
sg76
(lp2726
g69
(g90
g71
NtRp2727
(dp2728
g74
(dp2729
sg83
g2723
sg76
(lp2730
g69
(g70
g71
NtRp2731
(dp2732
g74
(dp2733
g82
I3
ssg83
g2727
sg76
(lp2734
S'0'
asbasbasbag69
(g85
g71
NtRp2735
(dp2736
g74
(dp2737
sg83
g2707
sg76
(lp2738
g69
(g90
g71
NtRp2739
(dp2740
g74
(dp2741
sg83
g2735
sg76
(lp2742
g69
(g70
g71
NtRp2743
(dp2744
g74
(dp2745
g82
I3
ssg83
g2739
sg76
(lp2746
S'9'
asbasbasbag69
(g85
g71
NtRp2747
(dp2748
g74
(dp2749
sg83
g2707
sg76
(lp2750
g69
(g90
g71
NtRp2751
(dp2752
g74
(dp2753
sg83
g2747
sg76
(lp2754
g69
(g70
g71
NtRp2755
(dp2756
g74
(dp2757
g82
I3
ssg83
g2751
sg76
(lp2758
S'datetime.datetime(2012, 9, 13, 23, 51, 30)'
p2759
asbasbasbag69
(g85
g71
NtRp2760
(dp2761
g74
(dp2762
sg83
g2707
sg76
(lp2763
g69
(g90
g71
NtRp2764
(dp2765
g74
(dp2766
sg83
g2760
sg76
(lp2767
g69
(g70
g71
NtRp2768
(dp2769
g74
(dp2770
g82
I3
ssg83
g2764
sg76
(lp2771
g2162
asbasbasbasbasbasbasbasbasbasbasbag69
(g85
g71
NtRp2772
(dp2773
g74
(dp2774
sg83
g79
sg76
(lp2775
g69
(g90
g71
NtRp2776
(dp2777
g74
(dp2778
g94
g95
ssg83
g2772
sg76
(lp2779
S'is_https'
p2780
asbag69
(g90
g71
NtRp2781
(dp2782
g74
(dp2783
g101
g102
ssg83
g2772
sg76
(lp2784
S':'
asbag69
(g90
g71
NtRp2785
(dp2786
g74
(dp2787
sg83
g2772
sg76
(lp2788
g69
(g70
g71
NtRp2789
(dp2790
g74
(dp2791
g82
I5
ssg83
g2785
sg76
(lp2792
g112
asbasbasbag69
(g85
g71
NtRp2793
(dp2794
g74
(dp2795
sg83
g79
sg76
(lp2796
g69
(g90
g71
NtRp2797
(dp2798
g74
(dp2799
g94
g95
ssg83
g2793
sg76
(lp2800
S'is_local'
p2801
asbag69
(g90
g71
NtRp2802
(dp2803
g74
(dp2804
g101
g102
ssg83
g2793
sg76
(lp2805
S':'
asbag69
(g90
g71
NtRp2806
(dp2807
g74
(dp2808
sg83
g2793
sg76
(lp2809
g69
(g70
g71
NtRp2810
(dp2811
g74
(dp2812
g82
I5
ssg83
g2806
sg76
(lp2813
g2271
asbasbasbag69
(g85
g71
NtRp2814
(dp2815
g74
(dp2816
sg83
g79
sg76
(lp2817
g69
(g90
g71
NtRp2818
(dp2819
g74
(dp2820
g94
g95
ssg83
g2814
sg76
(lp2821
S'is_restful'
p2822
asbag69
(g90
g71
NtRp2823
(dp2824
g74
(dp2825
g101
g102
ssg83
g2814
sg76
(lp2826
S':'
asbag69
(g90
g71
NtRp2827
(dp2828
g74
(dp2829
sg83
g2814
sg76
(lp2830
g69
(g70
g71
NtRp2831
(dp2832
g74
(dp2833
g82
I5
ssg83
g2827
sg76
(lp2834
g112
asbasbasbag69
(g85
g71
NtRp2835
(dp2836
g74
(dp2837
sg83
g79
sg76
(lp2838
g69
(g90
g71
NtRp2839
(dp2840
g74
(dp2841
g94
g95
ssg83
g2835
sg76
(lp2842
S'now'
p2843
asbag69
(g90
g71
NtRp2844
(dp2845
g74
(dp2846
g101
g102
ssg83
g2835
sg76
(lp2847
S':'
asbag69
(g90
g71
NtRp2848
(dp2849
g74
(dp2850
sg83
g2835
sg76
(lp2851
g69
(g70
g71
NtRp2852
(dp2853
g74
(dp2854
g82
I5
ssg83
g2848
sg76
(lp2855
S'datetime.datetime(2012, 12, 8, 14, 12, 15, 909000)'
p2856
asbasbasbag69
(g85
g71
NtRp2857
(dp2858
g74
(dp2859
sg83
g79
sg76
(lp2860
g69
(g90
g71
NtRp2861
(dp2862
g74
(dp2863
g94
g95
ssg83
g2857
sg76
(lp2864
S'post_vars'
p2865
asbag69
(g90
g71
NtRp2866
(dp2867
g74
(dp2868
g101
g102
ssg83
g2857
sg76
(lp2869
S':'
asbag69
(g90
g71
NtRp2870
(dp2871
g74
(dp2872
sg83
g2857
sg76
(lp2873
g69
(g70
g71
NtRp2874
(dp2875
g74
(dp2876
g82
I5
ssg83
g2870
sg76
(lp2877
g69
(g78
g71
NtRp2878
(dp2879
g74
(dp2880
g82
I4
ssg83
Nsg76
(lp2881
sbasbasbasbag69
(g85
g71
NtRp2882
(dp2883
g74
(dp2884
sg83
g79
sg76
(lp2885
g69
(g90
g71
NtRp2886
(dp2887
g74
(dp2888
g94
g95
ssg83
g2882
sg76
(lp2889
S'raw_args'
p2890
asbag69
(g90
g71
NtRp2891
(dp2892
g74
(dp2893
g101
g102
ssg83
g2882
sg76
(lp2894
S':'
asbag69
(g90
g71
NtRp2895
(dp2896
g74
(dp2897
sg83
g2882
sg76
(lp2898
g69
(g70
g71
NtRp2899
(dp2900
g74
(dp2901
g82
I5
ssg83
g2895
sg76
(lp2902
S'None'
p2903
asbasbasbag69
(g85
g71
NtRp2904
(dp2905
g74
(dp2906
sg83
g79
sg76
(lp2907
g69
(g90
g71
NtRp2908
(dp2909
g74
(dp2910
g94
g95
ssg83
g2904
sg76
(lp2911
S'raw_extension'
p2912
asbag69
(g90
g71
NtRp2913
(dp2914
g74
(dp2915
g101
g102
ssg83
g2904
sg76
(lp2916
S':'
asbag69
(g90
g71
NtRp2917
(dp2918
g74
(dp2919
sg83
g2904
sg76
(lp2920
g69
(g70
g71
NtRp2921
(dp2922
g74
(dp2923
g82
I5
ssg83
g2917
sg76
(lp2924
S'None'
p2925
asbasbasbag69
(g85
g71
NtRp2926
(dp2927
g74
(dp2928
sg83
g79
sg76
(lp2929
g69
(g90
g71
NtRp2930
(dp2931
g74
(dp2932
g94
g95
ssg83
g2926
sg76
(lp2933
S'url'
p2934
asbag69
(g90
g71
NtRp2935
(dp2936
g74
(dp2937
g101
g102
ssg83
g2926
sg76
(lp2938
S':'
asbag69
(g90
g71
NtRp2939
(dp2940
g74
(dp2941
sg83
g2926
sg76
(lp2942
g69
(g70
g71
NtRp2943
(dp2944
g74
(dp2945
g82
I5
ssg83
g2939
sg76
(lp2946
g1816
asbasbasbag69
(g85
g71
NtRp2947
(dp2948
g74
(dp2949
sg83
g79
sg76
(lp2950
g69
(g90
g71
NtRp2951
(dp2952
g74
(dp2953
g94
g95
ssg83
g2947
sg76
(lp2954
S'utcnow'
p2955
asbag69
(g90
g71
NtRp2956
(dp2957
g74
(dp2958
g101
g102
ssg83
g2947
sg76
(lp2959
S':'
asbag69
(g90
g71
NtRp2960
(dp2961
g74
(dp2962
sg83
g2947
sg76
(lp2963
g69
(g70
g71
NtRp2964
(dp2965
g74
(dp2966
g82
I5
ssg83
g2960
sg76
(lp2967
S'datetime.datetime(2012, 12, 8, 22, 12, 15, 909000)'
p2968
asbasbasbag69
(g85
g71
NtRp2969
(dp2970
g74
(dp2971
sg83
g79
sg76
(lp2972
g69
(g90
g71
NtRp2973
(dp2974
g74
(dp2975
g94
g95
ssg83
g2969
sg76
(lp2976
S'uuid'
p2977
asbag69
(g90
g71
NtRp2978
(dp2979
g74
(dp2980
g101
g102
ssg83
g2969
sg76
(lp2981
S':'
asbag69
(g90
g71
NtRp2982
(dp2983
g74
(dp2984
sg83
g2969
sg76
(lp2985
g69
(g70
g71
NtRp2986
(dp2987
g74
(dp2988
g82
I5
ssg83
g2982
sg76
(lp2989
S'rideshare/127.0.0.1.2012-12-08.14-12-15.733d87d6-d63c-4651-9068-e86abfafbbd6'
p2990
asbasbasbag69
(g85
g71
NtRp2991
(dp2992
g74
(dp2993
sg83
g79
sg76
(lp2994
g69
(g90
g71
NtRp2995
(dp2996
g74
(dp2997
g94
g95
ssg83
g2991
sg76
(lp2998
S'vars'
p2999
asbag69
(g90
g71
NtRp3000
(dp3001
g74
(dp3002
g101
g102
ssg83
g2991
sg76
(lp3003
S':'
asbag69
(g90
g71
NtRp3004
(dp3005
g74
(dp3006
sg83
g2991
sg76
(lp3007
g69
(g70
g71
NtRp3008
(dp3009
g74
(dp3010
g82
I5
ssg83
g3004
sg76
(lp3011
g69
(g78
g71
NtRp3012
(dp3013
g74
(dp3014
g82
I4
ssg83
Nsg76
(lp3015
sbasbasbasbag69
(g85
g71
NtRp3016
(dp3017
g74
(dp3018
sg83
g79
sg76
(lp3019
g69
(g90
g71
NtRp3020
(dp3021
g74
(dp3022
g94
g95
ssg83
g3016
sg76
(lp3023
S'wsgi'
p3024
asbag69
(g90
g71
NtRp3025
(dp3026
g74
(dp3027
g101
g102
ssg83
g3016
sg76
(lp3028
S':'
asbag69
(g90
g71
NtRp3029
(dp3030
g74
(dp3031
sg83
g3016
sg76
(lp3032
g69
(g70
g71
NtRp3033
(dp3034
g74
(dp3035
g82
I5
ssg83
g3029
sg76
(lp3036
g69
(g78
g71
NtRp3037
(dp3038
g74
(dp3039
g82
I4
ssg83
Nsg76
(lp3040
g69
(g85
g71
NtRp3041
(dp3042
g74
(dp3043
sg83
g3037
sg76
(lp3044
g69
(g90
g71
NtRp3045
(dp3046
g74
(dp3047
g94
g95
ssg83
g3041
sg76
(lp3048
S'environ'
p3049
asbag69
(g90
g71
NtRp3050
(dp3051
g74
(dp3052
g101
g102
ssg83
g3041
sg76
(lp3053
S':'
asbag69
(g90
g71
NtRp3054
(dp3055
g74
(dp3056
sg83
g3041
sg76
(lp3057
g69
(g70
g71
NtRp3058
(dp3059
g74
(dp3060
g82
I4
ssg83
g3054
sg76
(lp3061
g69
(g78
g71
NtRp3062
(dp3063
g74
(dp3064
g82
I3
ssg83
Nsg76
(lp3065
g69
(g85
g71
NtRp3066
(dp3067
g74
(dp3068
sg83
g3062
sg76
(lp3069
g69
(g90
g71
NtRp3070
(dp3071
g74
(dp3072
g94
g95
ssg83
g3066
sg76
(lp3073
S'HTTP_ACCEPT'
p3074
asbag69
(g90
g71
NtRp3075
(dp3076
g74
(dp3077
g101
g102
ssg83
g3066
sg76
(lp3078
S':'
asbag69
(g90
g71
NtRp3079
(dp3080
g74
(dp3081
sg83
g3066
sg76
(lp3082
g69
(g70
g71
NtRp3083
(dp3084
g74
(dp3085
g82
I3
ssg83
g3079
sg76
(lp3086
g1598
asbasbasbag69
(g85
g71
NtRp3087
(dp3088
g74
(dp3089
sg83
g3062
sg76
(lp3090
g69
(g90
g71
NtRp3091
(dp3092
g74
(dp3093
g94
g95
ssg83
g3087
sg76
(lp3094
S'HTTP_ACCEPT_ENCODING'
p3095
asbag69
(g90
g71
NtRp3096
(dp3097
g74
(dp3098
g101
g102
ssg83
g3087
sg76
(lp3099
S':'
asbag69
(g90
g71
NtRp3100
(dp3101
g74
(dp3102
sg83
g3087
sg76
(lp3103
g69
(g70
g71
NtRp3104
(dp3105
g74
(dp3106
g82
I3
ssg83
g3100
sg76
(lp3107
g1620
asbasbasbag69
(g85
g71
NtRp3108
(dp3109
g74
(dp3110
sg83
g3062
sg76
(lp3111
g69
(g90
g71
NtRp3112
(dp3113
g74
(dp3114
g94
g95
ssg83
g3108
sg76
(lp3115
S'HTTP_ACCEPT_LANGUAGE'
p3116
asbag69
(g90
g71
NtRp3117
(dp3118
g74
(dp3119
g101
g102
ssg83
g3108
sg76
(lp3120
S':'
asbag69
(g90
g71
NtRp3121
(dp3122
g74
(dp3123
sg83
g3108
sg76
(lp3124
g69
(g70
g71
NtRp3125
(dp3126
g74
(dp3127
g82
I3
ssg83
g3121
sg76
(lp3128
g1642
asbasbasbag69
(g85
g71
NtRp3129
(dp3130
g74
(dp3131
sg83
g3062
sg76
(lp3132
g69
(g90
g71
NtRp3133
(dp3134
g74
(dp3135
g94
g95
ssg83
g3129
sg76
(lp3136
S'HTTP_CONNECTION'
p3137
asbag69
(g90
g71
NtRp3138
(dp3139
g74
(dp3140
g101
g102
ssg83
g3129
sg76
(lp3141
S':'
asbag69
(g90
g71
NtRp3142
(dp3143
g74
(dp3144
sg83
g3129
sg76
(lp3145
g69
(g70
g71
NtRp3146
(dp3147
g74
(dp3148
g82
I3
ssg83
g3142
sg76
(lp3149
g1664
asbasbasbag69
(g85
g71
NtRp3150
(dp3151
g74
(dp3152
sg83
g3062
sg76
(lp3153
g69
(g90
g71
NtRp3154
(dp3155
g74
(dp3156
g94
g95
ssg83
g3150
sg76
(lp3157
S'HTTP_COOKIE'
p3158
asbag69
(g90
g71
NtRp3159
(dp3160
g74
(dp3161
g101
g102
ssg83
g3150
sg76
(lp3162
S':'
asbag69
(g90
g71
NtRp3163
(dp3164
g74
(dp3165
sg83
g3150
sg76
(lp3166
g69
(g70
g71
NtRp3167
(dp3168
g74
(dp3169
g82
I3
ssg83
g3163
sg76
(lp3170
g1686
asbasbasbag69
(g85
g71
NtRp3171
(dp3172
g74
(dp3173
sg83
g3062
sg76
(lp3174
g69
(g90
g71
NtRp3175
(dp3176
g74
(dp3177
g94
g95
ssg83
g3171
sg76
(lp3178
S'HTTP_HOST'
p3179
asbag69
(g90
g71
NtRp3180
(dp3181
g74
(dp3182
g101
g102
ssg83
g3171
sg76
(lp3183
S':'
asbag69
(g90
g71
NtRp3184
(dp3185
g74
(dp3186
sg83
g3171
sg76
(lp3187
g69
(g70
g71
NtRp3188
(dp3189
g74
(dp3190
g82
I3
ssg83
g3184
sg76
(lp3191
g1708
asbasbasbag69
(g85
g71
NtRp3192
(dp3193
g74
(dp3194
sg83
g3062
sg76
(lp3195
g69
(g90
g71
NtRp3196
(dp3197
g74
(dp3198
g94
g95
ssg83
g3192
sg76
(lp3199
S'HTTP_REFERER'
p3200
asbag69
(g90
g71
NtRp3201
(dp3202
g74
(dp3203
g101
g102
ssg83
g3192
sg76
(lp3204
S':'
asbag69
(g90
g71
NtRp3205
(dp3206
g74
(dp3207
sg83
g3192
sg76
(lp3208
g69
(g70
g71
NtRp3209
(dp3210
g74
(dp3211
g82
I3
ssg83
g3205
sg76
(lp3212
g1730
asbasbasbag69
(g85
g71
NtRp3213
(dp3214
g74
(dp3215
sg83
g3062
sg76
(lp3216
g69
(g90
g71
NtRp3217
(dp3218
g74
(dp3219
g94
g95
ssg83
g3213
sg76
(lp3220
S'HTTP_USER_AGENT'
p3221
asbag69
(g90
g71
NtRp3222
(dp3223
g74
(dp3224
g101
g102
ssg83
g3213
sg76
(lp3225
S':'
asbag69
(g90
g71
NtRp3226
(dp3227
g74
(dp3228
sg83
g3213
sg76
(lp3229
g69
(g70
g71
NtRp3230
(dp3231
g74
(dp3232
g82
I3
ssg83
g3226
sg76
(lp3233
g1752
asbasbasbag69
(g85
g71
NtRp3234
(dp3235
g74
(dp3236
sg83
g3062
sg76
(lp3237
g69
(g90
g71
NtRp3238
(dp3239
g74
(dp3240
g94
g95
ssg83
g3234
sg76
(lp3241
S'PATH_INFO'
p3242
asbag69
(g90
g71
NtRp3243
(dp3244
g74
(dp3245
g101
g102
ssg83
g3234
sg76
(lp3246
S':'
asbag69
(g90
g71
NtRp3247
(dp3248
g74
(dp3249
sg83
g3234
sg76
(lp3250
g69
(g70
g71
NtRp3251
(dp3252
g74
(dp3253
g82
I3
ssg83
g3247
sg76
(lp3254
g1816
asbasbasbag69
(g85
g71
NtRp3255
(dp3256
g74
(dp3257
sg83
g3062
sg76
(lp3258
g69
(g90
g71
NtRp3259
(dp3260
g74
(dp3261
g94
g95
ssg83
g3255
sg76
(lp3262
S'QUERY_STRING'
p3263
asbag69
(g90
g71
NtRp3264
(dp3265
g74
(dp3266
g101
g102
ssg83
g3255
sg76
(lp3267
S':'
asbag69
(g90
g71
NtRp3268
(dp3269
g74
(dp3270
sg83
g3255
sg76
(lp3271
g69
(g70
g71
NtRp3272
(dp3273
g74
(dp3274
g82
I3
ssg83
g3268
sg76
(lp3275
S''
asbasbasbag69
(g85
g71
NtRp3276
(dp3277
g74
(dp3278
sg83
g3062
sg76
(lp3279
g69
(g90
g71
NtRp3280
(dp3281
g74
(dp3282
g94
g95
ssg83
g3276
sg76
(lp3283
S'REMOTE_ADDR'
p3284
asbag69
(g90
g71
NtRp3285
(dp3286
g74
(dp3287
g101
g102
ssg83
g3276
sg76
(lp3288
S':'
asbag69
(g90
g71
NtRp3289
(dp3290
g74
(dp3291
sg83
g3276
sg76
(lp3292
g69
(g70
g71
NtRp3293
(dp3294
g74
(dp3295
g82
I3
ssg83
g3289
sg76
(lp3296
g224
asbasbasbag69
(g85
g71
NtRp3297
(dp3298
g74
(dp3299
sg83
g3062
sg76
(lp3300
g69
(g90
g71
NtRp3301
(dp3302
g74
(dp3303
g94
g95
ssg83
g3297
sg76
(lp3304
S'REMOTE_PORT'
p3305
asbag69
(g90
g71
NtRp3306
(dp3307
g74
(dp3308
g101
g102
ssg83
g3297
sg76
(lp3309
S':'
asbag69
(g90
g71
NtRp3310
(dp3311
g74
(dp3312
sg83
g3297
sg76
(lp3313
g69
(g70
g71
NtRp3314
(dp3315
g74
(dp3316
g82
I3
ssg83
g3310
sg76
(lp3317
g1880
asbasbasbag69
(g85
g71
NtRp3318
(dp3319
g74
(dp3320
sg83
g3062
sg76
(lp3321
g69
(g90
g71
NtRp3322
(dp3323
g74
(dp3324
g94
g95
ssg83
g3318
sg76
(lp3325
S'REQUEST_METHOD'
p3326
asbag69
(g90
g71
NtRp3327
(dp3328
g74
(dp3329
g101
g102
ssg83
g3318
sg76
(lp3330
S':'
asbag69
(g90
g71
NtRp3331
(dp3332
g74
(dp3333
sg83
g3318
sg76
(lp3334
g69
(g70
g71
NtRp3335
(dp3336
g74
(dp3337
g82
I3
ssg83
g3331
sg76
(lp3338
g1902
asbasbasbag69
(g85
g71
NtRp3339
(dp3340
g74
(dp3341
sg83
g3062
sg76
(lp3342
g69
(g90
g71
NtRp3343
(dp3344
g74
(dp3345
g94
g95
ssg83
g3339
sg76
(lp3346
S'REQUEST_URI'
p3347
asbag69
(g90
g71
NtRp3348
(dp3349
g74
(dp3350
g101
g102
ssg83
g3339
sg76
(lp3351
S':'
asbag69
(g90
g71
NtRp3352
(dp3353
g74
(dp3354
sg83
g3339
sg76
(lp3355
g69
(g70
g71
NtRp3356
(dp3357
g74
(dp3358
g82
I3
ssg83
g3352
sg76
(lp3359
g1816
asbasbasbag69
(g85
g71
NtRp3360
(dp3361
g74
(dp3362
sg83
g3062
sg76
(lp3363
g69
(g90
g71
NtRp3364
(dp3365
g74
(dp3366
g94
g95
ssg83
g3360
sg76
(lp3367
S'SCRIPT_NAME'
p3368
asbag69
(g90
g71
NtRp3369
(dp3370
g74
(dp3371
g101
g102
ssg83
g3360
sg76
(lp3372
S':'
asbag69
(g90
g71
NtRp3373
(dp3374
g74
(dp3375
sg83
g3360
sg76
(lp3376
g69
(g70
g71
NtRp3377
(dp3378
g74
(dp3379
g82
I3
ssg83
g3373
sg76
(lp3380
S''
asbasbasbag69
(g85
g71
NtRp3381
(dp3382
g74
(dp3383
sg83
g3062
sg76
(lp3384
g69
(g90
g71
NtRp3385
(dp3386
g74
(dp3387
g94
g95
ssg83
g3381
sg76
(lp3388
S'SERVER_NAME'
p3389
asbag69
(g90
g71
NtRp3390
(dp3391
g74
(dp3392
g101
g102
ssg83
g3381
sg76
(lp3393
S':'
asbag69
(g90
g71
NtRp3394
(dp3395
g74
(dp3396
sg83
g3381
sg76
(lp3397
g69
(g70
g71
NtRp3398
(dp3399
g74
(dp3400
g82
I3
ssg83
g3394
sg76
(lp3401
g1966
asbasbasbag69
(g85
g71
NtRp3402
(dp3403
g74
(dp3404
sg83
g3062
sg76
(lp3405
g69
(g90
g71
NtRp3406
(dp3407
g74
(dp3408
g94
g95
ssg83
g3402
sg76
(lp3409
S'SERVER_PORT'
p3410
asbag69
(g90
g71
NtRp3411
(dp3412
g74
(dp3413
g101
g102
ssg83
g3402
sg76
(lp3414
S':'
asbag69
(g90
g71
NtRp3415
(dp3416
g74
(dp3417
sg83
g3402
sg76
(lp3418
g69
(g70
g71
NtRp3419
(dp3420
g74
(dp3421
g82
I3
ssg83
g3415
sg76
(lp3422
g1988
asbasbasbag69
(g85
g71
NtRp3423
(dp3424
g74
(dp3425
sg83
g3062
sg76
(lp3426
g69
(g90
g71
NtRp3427
(dp3428
g74
(dp3429
g94
g95
ssg83
g3423
sg76
(lp3430
S'SERVER_PROTOCOL'
p3431
asbag69
(g90
g71
NtRp3432
(dp3433
g74
(dp3434
g101
g102
ssg83
g3423
sg76
(lp3435
S':'
asbag69
(g90
g71
NtRp3436
(dp3437
g74
(dp3438
sg83
g3423
sg76
(lp3439
g69
(g70
g71
NtRp3440
(dp3441
g74
(dp3442
g82
I3
ssg83
g3436
sg76
(lp3443
g2010
asbasbasbag69
(g85
g71
NtRp3444
(dp3445
g74
(dp3446
sg83
g3062
sg76
(lp3447
g69
(g90
g71
NtRp3448
(dp3449
g74
(dp3450
g94
g95
ssg83
g3444
sg76
(lp3451
S'SERVER_SOFTWARE'
p3452
asbag69
(g90
g71
NtRp3453
(dp3454
g74
(dp3455
g101
g102
ssg83
g3444
sg76
(lp3456
S':'
asbag69
(g90
g71
NtRp3457
(dp3458
g74
(dp3459
sg83
g3444
sg76
(lp3460
g69
(g70
g71
NtRp3461
(dp3462
g74
(dp3463
g82
I3
ssg83
g3457
sg76
(lp3464
g2032
asbasbasbag69
(g85
g71
NtRp3465
(dp3466
g74
(dp3467
sg83
g3062
sg76
(lp3468
g69
(g90
g71
NtRp3469
(dp3470
g74
(dp3471
g94
g95
ssg83
g3465
sg76
(lp3472
S'wsgi.errors'
p3473
asbag69
(g90
g71
NtRp3474
(dp3475
g74
(dp3476
g101
g102
ssg83
g3465
sg76
(lp3477
S':'
asbag69
(g90
g71
NtRp3478
(dp3479
g74
(dp3480
sg83
g3465
sg76
(lp3481
g69
(g70
g71
NtRp3482
(dp3483
g74
(dp3484
g82
I3
ssg83
g3478
sg76
(lp3485
S"<open file '<stderr>', mode 'w' at 0x01DA50D0>"
p3486
asbasbasbag69
(g85
g71
NtRp3487
(dp3488
g74
(dp3489
sg83
g3062
sg76
(lp3490
g69
(g90
g71
NtRp3491
(dp3492
g74
(dp3493
g94
g95
ssg83
g3487
sg76
(lp3494
S'wsgi.file_wrapper'
p3495
asbag69
(g90
g71
NtRp3496
(dp3497
g74
(dp3498
g101
g102
ssg83
g3487
sg76
(lp3499
S':'
asbag69
(g90
g71
NtRp3500
(dp3501
g74
(dp3502
sg83
g3487
sg76
(lp3503
g69
(g70
g71
NtRp3504
(dp3505
g74
(dp3506
g82
I3
ssg83
g3500
sg76
(lp3507
S'<class wsgiref.util.FileWrapper at 0x02B58688>'
p3508
asbasbasbag69
(g85
g71
NtRp3509
(dp3510
g74
(dp3511
sg83
g3062
sg76
(lp3512
g69
(g90
g71
NtRp3513
(dp3514
g74
(dp3515
g94
g95
ssg83
g3509
sg76
(lp3516
S'wsgi.input'
p3517
asbag69
(g90
g71
NtRp3518
(dp3519
g74
(dp3520
g101
g102
ssg83
g3509
sg76
(lp3521
S':'
asbag69
(g90
g71
NtRp3522
(dp3523
g74
(dp3524
sg83
g3509
sg76
(lp3525
g69
(g70
g71
NtRp3526
(dp3527
g74
(dp3528
g82
I3
ssg83
g3522
sg76
(lp3529
S'<cStringIO.StringO object at 0x078ABB00>'
p3530
asbasbasbag69
(g85
g71
NtRp3531
(dp3532
g74
(dp3533
sg83
g3062
sg76
(lp3534
g69
(g90
g71
NtRp3535
(dp3536
g74
(dp3537
g94
g95
ssg83
g3531
sg76
(lp3538
S'wsgi.multiprocess'
p3539
asbag69
(g90
g71
NtRp3540
(dp3541
g74
(dp3542
g101
g102
ssg83
g3531
sg76
(lp3543
S':'
asbag69
(g90
g71
NtRp3544
(dp3545
g74
(dp3546
sg83
g3531
sg76
(lp3547
g69
(g70
g71
NtRp3548
(dp3549
g74
(dp3550
g82
I3
ssg83
g3544
sg76
(lp3551
g112
asbasbasbag69
(g85
g71
NtRp3552
(dp3553
g74
(dp3554
sg83
g3062
sg76
(lp3555
g69
(g90
g71
NtRp3556
(dp3557
g74
(dp3558
g94
g95
ssg83
g3552
sg76
(lp3559
S'wsgi.multithread'
p3560
asbag69
(g90
g71
NtRp3561
(dp3562
g74
(dp3563
g101
g102
ssg83
g3552
sg76
(lp3564
S':'
asbag69
(g90
g71
NtRp3565
(dp3566
g74
(dp3567
sg83
g3552
sg76
(lp3568
g69
(g70
g71
NtRp3569
(dp3570
g74
(dp3571
g82
I3
ssg83
g3565
sg76
(lp3572
g2271
asbasbasbag69
(g85
g71
NtRp3573
(dp3574
g74
(dp3575
sg83
g3062
sg76
(lp3576
g69
(g90
g71
NtRp3577
(dp3578
g74
(dp3579
g94
g95
ssg83
g3573
sg76
(lp3580
S'wsgi.run_once'
p3581
asbag69
(g90
g71
NtRp3582
(dp3583
g74
(dp3584
g101
g102
ssg83
g3573
sg76
(lp3585
S':'
asbag69
(g90
g71
NtRp3586
(dp3587
g74
(dp3588
sg83
g3573
sg76
(lp3589
g69
(g70
g71
NtRp3590
(dp3591
g74
(dp3592
g82
I3
ssg83
g3586
sg76
(lp3593
g112
asbasbasbag69
(g85
g71
NtRp3594
(dp3595
g74
(dp3596
sg83
g3062
sg76
(lp3597
g69
(g90
g71
NtRp3598
(dp3599
g74
(dp3600
g94
g95
ssg83
g3594
sg76
(lp3601
S'wsgi.url_scheme'
p3602
asbag69
(g90
g71
NtRp3603
(dp3604
g74
(dp3605
g101
g102
ssg83
g3594
sg76
(lp3606
S':'
asbag69
(g90
g71
NtRp3607
(dp3608
g74
(dp3609
sg83
g3594
sg76
(lp3610
g69
(g70
g71
NtRp3611
(dp3612
g74
(dp3613
g82
I3
ssg83
g3607
sg76
(lp3614
g2314
asbasbasbag69
(g85
g71
NtRp3615
(dp3616
g74
(dp3617
sg83
g3062
sg76
(lp3618
g69
(g90
g71
NtRp3619
(dp3620
g74
(dp3621
g94
g95
ssg83
g3615
sg76
(lp3622
S'wsgi.version'
p3623
asbag69
(g90
g71
NtRp3624
(dp3625
g74
(dp3626
g101
g102
ssg83
g3615
sg76
(lp3627
S':'
asbag69
(g90
g71
NtRp3628
(dp3629
g74
(dp3630
sg83
g3615
sg76
(lp3631
g69
(g70
g71
NtRp3632
(dp3633
g74
(dp3634
g82
I3
ssg83
g3628
sg76
(lp3635
S'1'
asbasbasbasbasbasbasbasbasbasbasbasbasbsS'frames'
p3636
(lp3637
(dp3638
S'file'
p3639
S'C:\\Users\\Owner\\Desktop\\web2py\\gluon\\restricted.py'
p3640
sS'dump'
p3641
(dp3642
sS'lnum'
p3643
I209
sS'lines'
p3644
(dp3645
sS'call'
p3646
S"(code='# coding: utf8\\n                \\ndb.define_table(...b.ride.id.readable = db.ride.id.writable = False\\n', environment={'A': <class 'gluon.html.A'>, 'Auth': <class 'gluon.tools.Auth'>, 'B': <class 'gluon.html.B'>, 'BEAUTIFY': <class 'gluon.html.BEAUTIFY'>, 'BODY': <class 'gluon.html.BODY'>, 'BR': <class 'gluon.html.BR'>, 'BUTTON': <class 'gluon.html.BUTTON'>, 'CAT': <class 'gluon.html.CAT'>, 'CENTER': <class 'gluon.html.CENTER'>, 'CLEANUP': <class 'gluon.validators.CLEANUP'>, ...}, layer=r'C:\\Users\\Owner\\Desktop\\web2py\\applications\\rideshare\\models\\rideshare.py')"
p3647
sS'func'
p3648
S'restricted'
p3649
sa(dp3650
g3639
S'C:\\Users\\Owner\\Desktop\\web2py\\applications\\rideshare\\models\\rideshare.py'
p3651
sg3641
(dp3652
sg3643
I13
sg3644
(dp3653
I8
S"                Field('trip_length', 'string'),"
p3654
sI9
S"                Field('comments', 'list:text'),"
p3655
sI10
S"                Field('price', 'string'),"
p3656
sI11
S"                Field('riders', 'list:reference auth_user', default=auth.user_id),"
p3657
sI12
S"                Field('number_of_seats_open', 'integer', requires=IS_IN_SET(['0', '1', '2','3','4','5'])),"
p3658
sI13
S"                Field('owner', db.auth_user, default=auth.user_id))"
p3659
sI14
S''
sI15
S'db.ride.riders.writable = db.ride.riders.readable = False'
p3660
sI16
S'db.ride.owner.writable = db.ride.owner.readable = False'
p3661
sI17
S'db.ride.id.readable = db.ride.id.writable = False'
p3662
ssg3646
S'()'
p3663
sg3648
S'<module>'
p3664
sa(dp3665
g3639
S'C:\\Users\\Owner\\Desktop\\web2py\\gluon\\dal.py'
p3666
sg3641
(dp3667
sg3643
I7095
sg3644
(dp3668
sg3646
S"(self=<DAL sqlite://storage.sqlite>, tablename='ride', *fields=(<gluon.dal.Field object>, <gluon.dal.Field object>, <gluon.dal.Field object>, <gluon.dal.Field object>, <gluon.dal.Field object>, <gluon.dal.Field object>, <gluon.dal.Field object>, <gluon.dal.Field object>, <gluon.dal.Field object>, <gluon.dal.Field object>), **args={})"
p3669
sg3648
S'define_table'
p3670
sa(dp3671
g3639
S'C:\\Users\\Owner\\Desktop\\web2py\\gluon\\dal.py'
p3672
sg3641
(dp3673
sg3643
I7126
sg3644
(dp3674
sg3646
S"(self=<DAL sqlite://storage.sqlite>, tablename='ride', *fields=(<gluon.dal.Field object>, <gluon.dal.Field object>, <gluon.dal.Field object>, <gluon.dal.Field object>, <gluon.dal.Field object>, <gluon.dal.Field object>, <gluon.dal.Field object>, <gluon.dal.Field object>, <gluon.dal.Field object>, <gluon.dal.Field object>), **args={})"
p3675
sg3648
S'lazy_define_table'
p3676
sa(dp3677
g3639
S'C:\\Users\\Owner\\Desktop\\web2py\\gluon\\dal.py'
p3678
sg3641
(dp3679
sg3643
I809
sg3644
(dp3680
sg3646
S'(self=<gluon.dal.SQLiteAdapter object>, table=<Table ride (id,meeting_location,destination,dep...omments,price,riders,number_of_seats_open,owner)>, migrate=True, fake_migrate=False, polymodel=None)'
p3681
sg3648
S'create_table'
p3682
sasS'pyver'
p3683
S'Python 2.7: C:\\Users\\Owner\\Desktop\\web2py\\web2py.exe'
p3684
sS'session'
p3685
g69
(g70
g71
NtRp3686
(dp3687
g74
(dp3688
sg76
(lp3689
g69
(g78
g71
NtRp3690
(dp3691
g74
(dp3692
g82
I5
ssg83
Nsg76
(lp3693
g69
(g85
g71
NtRp3694
(dp3695
g74
(dp3696
sg83
g3690
sg76
(lp3697
g69
(g90
g71
NtRp3698
(dp3699
g74
(dp3700
g94
g95
ssg83
g3694
sg76
(lp3701
S'auth'
p3702
asbag69
(g90
g71
NtRp3703
(dp3704
g74
(dp3705
g101
g102
ssg83
g3694
sg76
(lp3706
S':'
asbag69
(g90
g71
NtRp3707
(dp3708
g74
(dp3709
sg83
g3694
sg76
(lp3710
g69
(g70
g71
NtRp3711
(dp3712
g74
(dp3713
g82
I5
ssg83
g3707
sg76
(lp3714
g69
(g78
g71
NtRp3715
(dp3716
g74
(dp3717
g82
I4
ssg83
Nsg76
(lp3718
g69
(g85
g71
NtRp3719
(dp3720
g74
(dp3721
sg83
g3715
sg76
(lp3722
g69
(g90
g71
NtRp3723
(dp3724
g74
(dp3725
g94
g95
ssg83
g3719
sg76
(lp3726
S'expiration'
p3727
asbag69
(g90
g71
NtRp3728
(dp3729
g74
(dp3730
g101
g102
ssg83
g3719
sg76
(lp3731
S':'
asbag69
(g90
g71
NtRp3732
(dp3733
g74
(dp3734
sg83
g3719
sg76
(lp3735
g69
(g70
g71
NtRp3736
(dp3737
g74
(dp3738
g82
I4
ssg83
g3732
sg76
(lp3739
S'3600'
p3740
asbasbasbag69
(g85
g71
NtRp3741
(dp3742
g74
(dp3743
sg83
g3715
sg76
(lp3744
g69
(g90
g71
NtRp3745
(dp3746
g74
(dp3747
g94
g95
ssg83
g3741
sg76
(lp3748
S'hmac_key'
p3749
asbag69
(g90
g71
NtRp3750
(dp3751
g74
(dp3752
g101
g102
ssg83
g3741
sg76
(lp3753
S':'
asbag69
(g90
g71
NtRp3754
(dp3755
g74
(dp3756
sg83
g3741
sg76
(lp3757
g69
(g70
g71
NtRp3758
(dp3759
g74
(dp3760
g82
I4
ssg83
g3754
sg76
(lp3761
S'472464cd-9395-4439-900a-4759706a6793'
p3762
asbasbasbag69
(g85
g71
NtRp3763
(dp3764
g74
(dp3765
sg83
g3715
sg76
(lp3766
g69
(g90
g71
NtRp3767
(dp3768
g74
(dp3769
g94
g95
ssg83
g3763
sg76
(lp3770
S'last_visit'
p3771
asbag69
(g90
g71
NtRp3772
(dp3773
g74
(dp3774
g101
g102
ssg83
g3763
sg76
(lp3775
S':'
asbag69
(g90
g71
NtRp3776
(dp3777
g74
(dp3778
sg83
g3763
sg76
(lp3779
g69
(g70
g71
NtRp3780
(dp3781
g74
(dp3782
g82
I4
ssg83
g3776
sg76
(lp3783
S'datetime.datetime(2012, 12, 8, 14, 12, 15, 909000)'
p3784
asbasbasbag69
(g85
g71
NtRp3785
(dp3786
g74
(dp3787
sg83
g3715
sg76
(lp3788
g69
(g90
g71
NtRp3789
(dp3790
g74
(dp3791
g94
g95
ssg83
g3785
sg76
(lp3792
S'remember'
p3793
asbag69
(g90
g71
NtRp3794
(dp3795
g74
(dp3796
g101
g102
ssg83
g3785
sg76
(lp3797
S':'
asbag69
(g90
g71
NtRp3798
(dp3799
g74
(dp3800
sg83
g3785
sg76
(lp3801
g69
(g70
g71
NtRp3802
(dp3803
g74
(dp3804
g82
I4
ssg83
g3798
sg76
(lp3805
g112
asbasbasbag69
(g85
g71
NtRp3806
(dp3807
g74
(dp3808
sg83
g3715
sg76
(lp3809
g69
(g90
g71
NtRp3810
(dp3811
g74
(dp3812
g94
g95
ssg83
g3806
sg76
(lp3813
S'user'
p3814
asbag69
(g90
g71
NtRp3815
(dp3816
g74
(dp3817
g101
g102
ssg83
g3806
sg76
(lp3818
S':'
asbag69
(g90
g71
NtRp3819
(dp3820
g74
(dp3821
sg83
g3806
sg76
(lp3822
g69
(g70
g71
NtRp3823
(dp3824
g74
(dp3825
g82
I4
ssg83
g3819
sg76
(lp3826
g69
(g78
g71
NtRp3827
(dp3828
g74
(dp3829
g82
I3
ssg83
Nsg76
(lp3830
g69
(g85
g71
NtRp3831
(dp3832
g74
(dp3833
sg83
g3827
sg76
(lp3834
g69
(g90
g71
NtRp3835
(dp3836
g74
(dp3837
g94
g95
ssg83
g3831
sg76
(lp3838
S'about_me'
p3839
asbag69
(g90
g71
NtRp3840
(dp3841
g74
(dp3842
g101
g102
ssg83
g3831
sg76
(lp3843
S':'
asbag69
(g90
g71
NtRp3844
(dp3845
g74
(dp3846
sg83
g3831
sg76
(lp3847
g69
(g70
g71
NtRp3848
(dp3849
g74
(dp3850
g82
I3
ssg83
g3844
sg76
(lp3851
S''
asbasbasbag69
(g85
g71
NtRp3852
(dp3853
g74
(dp3854
sg83
g3827
sg76
(lp3855
g69
(g90
g71
NtRp3856
(dp3857
g74
(dp3858
g94
g95
ssg83
g3852
sg76
(lp3859
S'email'
p3860
asbag69
(g90
g71
NtRp3861
(dp3862
g74
(dp3863
g101
g102
ssg83
g3852
sg76
(lp3864
S':'
asbag69
(g90
g71
NtRp3865
(dp3866
g74
(dp3867
sg83
g3852
sg76
(lp3868
g69
(g70
g71
NtRp3869
(dp3870
g74
(dp3871
g82
I3
ssg83
g3865
sg76
(lp3872
S'eboning@ucsc.edu'
p3873
asbasbasbag69
(g85
g71
NtRp3874
(dp3875
g74
(dp3876
sg83
g3827
sg76
(lp3877
g69
(g90
g71
NtRp3878
(dp3879
g74
(dp3880
g94
g95
ssg83
g3874
sg76
(lp3881
S'first_name'
p3882
asbag69
(g90
g71
NtRp3883
(dp3884
g74
(dp3885
g101
g102
ssg83
g3874
sg76
(lp3886
S':'
asbag69
(g90
g71
NtRp3887
(dp3888
g74
(dp3889
sg83
g3874
sg76
(lp3890
g69
(g70
g71
NtRp3891
(dp3892
g74
(dp3893
g82
I3
ssg83
g3887
sg76
(lp3894
S'Edward'
p3895
asbasbasbag69
(g85
g71
NtRp3896
(dp3897
g74
(dp3898
sg83
g3827
sg76
(lp3899
g69
(g90
g71
NtRp3900
(dp3901
g74
(dp3902
g94
g95
ssg83
g3896
sg76
(lp3903
S'id'
p3904
asbag69
(g90
g71
NtRp3905
(dp3906
g74
(dp3907
g101
g102
ssg83
g3896
sg76
(lp3908
S':'
asbag69
(g90
g71
NtRp3909
(dp3910
g74
(dp3911
sg83
g3896
sg76
(lp3912
g69
(g70
g71
NtRp3913
(dp3914
g74
(dp3915
g82
I3
ssg83
g3909
sg76
(lp3916
S'1'
asbasbasbag69
(g85
g71
NtRp3917
(dp3918
g74
(dp3919
sg83
g3827
sg76
(lp3920
g69
(g90
g71
NtRp3921
(dp3922
g74
(dp3923
g94
g95
ssg83
g3917
sg76
(lp3924
S'last_name'
p3925
asbag69
(g90
g71
NtRp3926
(dp3927
g74
(dp3928
g101
g102
ssg83
g3917
sg76
(lp3929
S':'
asbag69
(g90
g71
NtRp3930
(dp3931
g74
(dp3932
sg83
g3917
sg76
(lp3933
g69
(g70
g71
NtRp3934
(dp3935
g74
(dp3936
g82
I3
ssg83
g3930
sg76
(lp3937
S'Boning'
p3938
asbasbasbag69
(g85
g71
NtRp3939
(dp3940
g74
(dp3941
sg83
g3827
sg76
(lp3942
g69
(g90
g71
NtRp3943
(dp3944
g74
(dp3945
g94
g95
ssg83
g3939
sg76
(lp3946
S'password'
p3947
asbag69
(g90
g71
NtRp3948
(dp3949
g74
(dp3950
g101
g102
ssg83
g3939
sg76
(lp3951
S':'
asbag69
(g90
g71
NtRp3952
(dp3953
g74
(dp3954
sg83
g3939
sg76
(lp3955
g69
(g70
g71
NtRp3956
(dp3957
g74
(dp3958
g82
I3
ssg83
g3952
sg76
(lp3959
S'pbkdf2(1000,20,sha512)$b367d07c7776fb45$c6edd021b60c614339a13d17b76daaf37c67e949'
p3960
asbasbasbag69
(g85
g71
NtRp3961
(dp3962
g74
(dp3963
sg83
g3827
sg76
(lp3964
g69
(g90
g71
NtRp3965
(dp3966
g74
(dp3967
g94
g95
ssg83
g3961
sg76
(lp3968
S'profile_picture'
p3969
asbag69
(g90
g71
NtRp3970
(dp3971
g74
(dp3972
g101
g102
ssg83
g3961
sg76
(lp3973
S':'
asbag69
(g90
g71
NtRp3974
(dp3975
g74
(dp3976
sg83
g3961
sg76
(lp3977
g69
(g70
g71
NtRp3978
(dp3979
g74
(dp3980
g82
I3
ssg83
g3974
sg76
(lp3981
S''
asbasbasbag69
(g85
g71
NtRp3982
(dp3983
g74
(dp3984
sg83
g3827
sg76
(lp3985
g69
(g90
g71
NtRp3986
(dp3987
g74
(dp3988
g94
g95
ssg83
g3982
sg76
(lp3989
S'registration_id'
p3990
asbag69
(g90
g71
NtRp3991
(dp3992
g74
(dp3993
g101
g102
ssg83
g3982
sg76
(lp3994
S':'
asbag69
(g90
g71
NtRp3995
(dp3996
g74
(dp3997
sg83
g3982
sg76
(lp3998
g69
(g70
g71
NtRp3999
(dp4000
g74
(dp4001
g82
I3
ssg83
g3995
sg76
(lp4002
S''
asbasbasbag69
(g85
g71
NtRp4003
(dp4004
g74
(dp4005
sg83
g3827
sg76
(lp4006
g69
(g90
g71
NtRp4007
(dp4008
g74
(dp4009
g94
g95
ssg83
g4003
sg76
(lp4010
S'registration_key'
p4011
asbag69
(g90
g71
NtRp4012
(dp4013
g74
(dp4014
g101
g102
ssg83
g4003
sg76
(lp4015
S':'
asbag69
(g90
g71
NtRp4016
(dp4017
g74
(dp4018
sg83
g4003
sg76
(lp4019
g69
(g70
g71
NtRp4020
(dp4021
g74
(dp4022
g82
I3
ssg83
g4016
sg76
(lp4023
S''
asbasbasbag69
(g85
g71
NtRp4024
(dp4025
g74
(dp4026
sg83
g3827
sg76
(lp4027
g69
(g90
g71
NtRp4028
(dp4029
g74
(dp4030
g94
g95
ssg83
g4024
sg76
(lp4031
S'reset_password_key'
p4032
asbag69
(g90
g71
NtRp4033
(dp4034
g74
(dp4035
g101
g102
ssg83
g4024
sg76
(lp4036
S':'
asbag69
(g90
g71
NtRp4037
(dp4038
g74
(dp4039
sg83
g4024
sg76
(lp4040
g69
(g70
g71
NtRp4041
(dp4042
g74
(dp4043
g82
I3
ssg83
g4037
sg76
(lp4044
S''
asbasbasbag69
(g85
g71
NtRp4045
(dp4046
g74
(dp4047
sg83
g3827
sg76
(lp4048
g69
(g90
g71
NtRp4049
(dp4050
g74
(dp4051
g94
g95
ssg83
g4045
sg76
(lp4052
S'sex'
p4053
asbag69
(g90
g71
NtRp4054
(dp4055
g74
(dp4056
g101
g102
ssg83
g4045
sg76
(lp4057
S':'
asbag69
(g90
g71
NtRp4058
(dp4059
g74
(dp4060
sg83
g4045
sg76
(lp4061
g69
(g70
g71
NtRp4062
(dp4063
g74
(dp4064
g82
I3
ssg83
g4058
sg76
(lp4065
S'Male'
p4066
asbasbasbasbasbasbasbag69
(g85
g71
NtRp4067
(dp4068
g74
(dp4069
sg83
g3715
sg76
(lp4070
g69
(g90
g71
NtRp4071
(dp4072
g74
(dp4073
g94
g95
ssg83
g4067
sg76
(lp4074
S'user_groups'
p4075
asbag69
(g90
g71
NtRp4076
(dp4077
g74
(dp4078
g101
g102
ssg83
g4067
sg76
(lp4079
S':'
asbag69
(g90
g71
NtRp4080
(dp4081
g74
(dp4082
sg83
g4067
sg76
(lp4083
g69
(g70
g71
NtRp4084
(dp4085
g74
(dp4086
g82
I4
ssg83
g4080
sg76
(lp4087
g69
(g78
g71
NtRp4088
(dp4089
g74
(dp4090
g82
I3
ssg83
Nsg76
(lp4091
g69
(g85
g71
NtRp4092
(dp4093
g74
(dp4094
sg83
g4088
sg76
(lp4095
g69
(g90
g71
NtRp4096
(dp4097
g74
(dp4098
g94
g95
ssg83
g4092
sg76
(lp4099
S'1'
asbag69
(g90
g71
NtRp4100
(dp4101
g74
(dp4102
g101
g102
ssg83
g4092
sg76
(lp4103
S':'
asbag69
(g90
g71
NtRp4104
(dp4105
g74
(dp4106
sg83
g4092
sg76
(lp4107
g69
(g70
g71
NtRp4108
(dp4109
g74
(dp4110
g82
I3
ssg83
g4104
sg76
(lp4111
S'user_1'
p4112
asbasbasbasbasbasbasbasbasbasbasbag69
(g85
g71
NtRp4113
(dp4114
g74
(dp4115
sg83
g3690
sg76
(lp4116
g69
(g90
g71
NtRp4117
(dp4118
g74
(dp4119
g94
g95
ssg83
g4113
sg76
(lp4120
S'flash'
p4121
asbag69
(g90
g71
NtRp4122
(dp4123
g74
(dp4124
g101
g102
ssg83
g4113
sg76
(lp4125
S':'
asbag69
(g90
g71
NtRp4126
(dp4127
g74
(dp4128
sg83
g4113
sg76
(lp4129
g69
(g70
g71
NtRp4130
(dp4131
g74
(dp4132
g82
I5
ssg83
g4126
sg76
(lp4133
S'None'
p4134
asbasbasbasbasbsS'etype'
p4135
S"<type 'exceptions.SyntaxError'>"
p4136
sS'date'
p4137
S'Sat Dec 08 14:12:15 2012'
p4138
sS'response'
p4139
g69
(g70
g71
NtRp4140
(dp4141
g74
(dp4142
sg76
(lp4143
g69
(g78
g71
NtRp4144
(dp4145
g74
(dp4146
g82
I5
ssg83
Nsg76
(lp4147
g69
(g85
g71
NtRp4148
(dp4149
g74
(dp4150
sg83
g4144
sg76
(lp4151
g69
(g90
g71
NtRp4152
(dp4153
g74
(dp4154
g94
g95
ssg83
g4148
sg76
(lp4155
g167
asbag69
(g90
g71
NtRp4156
(dp4157
g74
(dp4158
g101
g102
ssg83
g4148
sg76
(lp4159
S':'
asbag69
(g90
g71
NtRp4160
(dp4161
g74
(dp4162
sg83
g4148
sg76
(lp4163
g69
(g70
g71
NtRp4164
(dp4165
g74
(dp4166
g82
I5
ssg83
g4160
sg76
(lp4167
S'<cStringIO.StringO object at 0x07434E00>'
p4168
asbasbasbag69
(g85
g71
NtRp4169
(dp4170
g74
(dp4171
sg83
g4144
sg76
(lp4172
g69
(g90
g71
NtRp4173
(dp4174
g74
(dp4175
g94
g95
ssg83
g4169
sg76
(lp4176
g255
asbag69
(g90
g71
NtRp4177
(dp4178
g74
(dp4179
g101
g102
ssg83
g4169
sg76
(lp4180
S':'
asbag69
(g90
g71
NtRp4181
(dp4182
g74
(dp4183
sg83
g4169
sg76
(lp4184
g69
(g70
g71
NtRp4185
(dp4186
g74
(dp4187
g82
I5
ssg83
g4181
sg76
(lp4188
g69
(g78
g71
NtRp4189
(dp4190
g74
(dp4191
g82
I4
ssg83
Nsg76
(lp4192
g69
(g85
g71
NtRp4193
(dp4194
g74
(dp4195
sg83
g4189
sg76
(lp4196
g69
(g90
g71
NtRp4197
(dp4198
g74
(dp4199
g94
g95
ssg83
g4193
sg76
(lp4200
S'session_id_rideshare'
p4201
asbag69
(g90
g71
NtRp4202
(dp4203
g74
(dp4204
g101
g102
ssg83
g4193
sg76
(lp4205
S':'
asbag69
(g90
g71
NtRp4206
(dp4207
g74
(dp4208
sg83
g4193
sg76
(lp4209
g69
(g70
g71
NtRp4210
(dp4211
g74
(dp4212
g82
I4
ssg83
g4206
sg76
(lp4213
g673
ag69
(g78
g71
NtRp4214
(dp4215
g74
(dp4216
g82
I3
ssg83
Nsg76
(lp4217
g69
(g85
g71
NtRp4218
(dp4219
g74
(dp4220
sg83
g4214
sg76
(lp4221
g69
(g90
g71
NtRp4222
(dp4223
g74
(dp4224
g94
g95
ssg83
g4218
sg76
(lp4225
g306
asbag69
(g90
g71
NtRp4226
(dp4227
g74
(dp4228
g101
g102
ssg83
g4218
sg76
(lp4229
S':'
asbag69
(g90
g71
NtRp4230
(dp4231
g74
(dp4232
sg83
g4218
sg76
(lp4233
g69
(g70
g71
NtRp4234
(dp4235
g74
(dp4236
g82
I3
ssg83
g4230
sg76
(lp4237
S''
asbasbasbag69
(g85
g71
NtRp4238
(dp4239
g74
(dp4240
sg83
g4214
sg76
(lp4241
g69
(g90
g71
NtRp4242
(dp4243
g74
(dp4244
g94
g95
ssg83
g4238
sg76
(lp4245
g327
asbag69
(g90
g71
NtRp4246
(dp4247
g74
(dp4248
g101
g102
ssg83
g4238
sg76
(lp4249
S':'
asbag69
(g90
g71
NtRp4250
(dp4251
g74
(dp4252
sg83
g4238
sg76
(lp4253
g69
(g70
g71
NtRp4254
(dp4255
g74
(dp4256
g82
I3
ssg83
g4250
sg76
(lp4257
S''
asbasbasbag69
(g85
g71
NtRp4258
(dp4259
g74
(dp4260
sg83
g4214
sg76
(lp4261
g69
(g90
g71
NtRp4262
(dp4263
g74
(dp4264
g94
g95
ssg83
g4258
sg76
(lp4265
g348
asbag69
(g90
g71
NtRp4266
(dp4267
g74
(dp4268
g101
g102
ssg83
g4258
sg76
(lp4269
S':'
asbag69
(g90
g71
NtRp4270
(dp4271
g74
(dp4272
sg83
g4258
sg76
(lp4273
g69
(g70
g71
NtRp4274
(dp4275
g74
(dp4276
g82
I3
ssg83
g4270
sg76
(lp4277
S''
asbasbasbag69
(g85
g71
NtRp4278
(dp4279
g74
(dp4280
sg83
g4214
sg76
(lp4281
g69
(g90
g71
NtRp4282
(dp4283
g74
(dp4284
g94
g95
ssg83
g4278
sg76
(lp4285
g369
asbag69
(g90
g71
NtRp4286
(dp4287
g74
(dp4288
g101
g102
ssg83
g4278
sg76
(lp4289
S':'
asbag69
(g90
g71
NtRp4290
(dp4291
g74
(dp4292
sg83
g4278
sg76
(lp4293
g69
(g70
g71
NtRp4294
(dp4295
g74
(dp4296
g82
I3
ssg83
g4290
sg76
(lp4297
S''
asbasbasbag69
(g85
g71
NtRp4298
(dp4299
g74
(dp4300
sg83
g4214
sg76
(lp4301
g69
(g90
g71
NtRp4302
(dp4303
g74
(dp4304
g94
g95
ssg83
g4298
sg76
(lp4305
g390
asbag69
(g90
g71
NtRp4306
(dp4307
g74
(dp4308
g101
g102
ssg83
g4298
sg76
(lp4309
S':'
asbag69
(g90
g71
NtRp4310
(dp4311
g74
(dp4312
sg83
g4298
sg76
(lp4313
g69
(g70
g71
NtRp4314
(dp4315
g74
(dp4316
g82
I3
ssg83
g4310
sg76
(lp4317
S''
asbasbasbag69
(g85
g71
NtRp4318
(dp4319
g74
(dp4320
sg83
g4214
sg76
(lp4321
g69
(g90
g71
NtRp4322
(dp4323
g74
(dp4324
g94
g95
ssg83
g4318
sg76
(lp4325
g411
asbag69
(g90
g71
NtRp4326
(dp4327
g74
(dp4328
g101
g102
ssg83
g4318
sg76
(lp4329
S':'
asbag69
(g90
g71
NtRp4330
(dp4331
g74
(dp4332
sg83
g4318
sg76
(lp4333
g69
(g70
g71
NtRp4334
(dp4335
g74
(dp4336
g82
I3
ssg83
g4330
sg76
(lp4337
S'/'
asbasbasbag69
(g85
g71
NtRp4338
(dp4339
g74
(dp4340
sg83
g4214
sg76
(lp4341
g69
(g90
g71
NtRp4342
(dp4343
g74
(dp4344
g94
g95
ssg83
g4338
sg76
(lp4345
g432
asbag69
(g90
g71
NtRp4346
(dp4347
g74
(dp4348
g101
g102
ssg83
g4338
sg76
(lp4349
S':'
asbag69
(g90
g71
NtRp4350
(dp4351
g74
(dp4352
sg83
g4338
sg76
(lp4353
g69
(g70
g71
NtRp4354
(dp4355
g74
(dp4356
g82
I3
ssg83
g4350
sg76
(lp4357
S''
asbasbasbag69
(g85
g71
NtRp4358
(dp4359
g74
(dp4360
sg83
g4214
sg76
(lp4361
g69
(g90
g71
NtRp4362
(dp4363
g74
(dp4364
g94
g95
ssg83
g4358
sg76
(lp4365
g453
asbag69
(g90
g71
NtRp4366
(dp4367
g74
(dp4368
g101
g102
ssg83
g4358
sg76
(lp4369
S':'
asbag69
(g90
g71
NtRp4370
(dp4371
g74
(dp4372
sg83
g4358
sg76
(lp4373
g69
(g70
g71
NtRp4374
(dp4375
g74
(dp4376
g82
I3
ssg83
g4370
sg76
(lp4377
S''
asbasbasbasbasbasbasbasbasbasbasbag69
(g85
g71
NtRp4378
(dp4379
g74
(dp4380
sg83
g4144
sg76
(lp4381
g69
(g90
g71
NtRp4382
(dp4383
g74
(dp4384
g94
g95
ssg83
g4378
sg76
(lp4385
S'delimiters'
p4386
asbag69
(g90
g71
NtRp4387
(dp4388
g74
(dp4389
g101
g102
ssg83
g4378
sg76
(lp4390
S':'
asbag69
(g90
g71
NtRp4391
(dp4392
g74
(dp4393
sg83
g4378
sg76
(lp4394
g69
(g70
g71
NtRp4395
(dp4396
g74
(dp4397
g82
I5
ssg83
g4391
sg76
(lp4398
g69
(g78
g71
NtRp4399
(dp4400
g74
(dp4401
g82
I4
ssg83
Nsg76
(lp4402
g69
(g85
g71
NtRp4403
(dp4404
g74
(dp4405
sg83
g4399
sg76
(lp4406
g69
(g90
g71
NtRp4407
(dp4408
g74
(dp4409
sg83
g4403
sg76
(lp4410
g69
(g70
g71
NtRp4411
(dp4412
g74
(dp4413
g82
I4
ssg83
g4407
sg76
(lp4414
S'{{'
p4415
asbasbasbag69
(g85
g71
NtRp4416
(dp4417
g74
(dp4418
sg83
g4399
sg76
(lp4419
g69
(g90
g71
NtRp4420
(dp4421
g74
(dp4422
sg83
g4416
sg76
(lp4423
g69
(g70
g71
NtRp4424
(dp4425
g74
(dp4426
g82
I4
ssg83
g4420
sg76
(lp4427
S'}}'
p4428
asbasbasbasbasbasbasbag69
(g85
g71
NtRp4429
(dp4430
g74
(dp4431
sg83
g4144
sg76
(lp4432
g69
(g90
g71
NtRp4433
(dp4434
g74
(dp4435
g94
g95
ssg83
g4429
sg76
(lp4436
S'files'
p4437
asbag69
(g90
g71
NtRp4438
(dp4439
g74
(dp4440
g101
g102
ssg83
g4429
sg76
(lp4441
S':'
asbag69
(g90
g71
NtRp4442
(dp4443
g74
(dp4444
sg83
g4429
sg76
(lp4445
g69
(g70
g71
NtRp4446
(dp4447
g74
(dp4448
g82
I5
ssg83
g4442
sg76
(lp4449
g69
(g78
g71
NtRp4450
(dp4451
g74
(dp4452
g82
I4
ssg83
Nsg76
(lp4453
sbasbasbasbag69
(g85
g71
NtRp4454
(dp4455
g74
(dp4456
sg83
g4144
sg76
(lp4457
g69
(g90
g71
NtRp4458
(dp4459
g74
(dp4460
g94
g95
ssg83
g4454
sg76
(lp4461
S'flash'
p4462
asbag69
(g90
g71
NtRp4463
(dp4464
g74
(dp4465
g101
g102
ssg83
g4454
sg76
(lp4466
S':'
asbag69
(g90
g71
NtRp4467
(dp4468
g74
(dp4469
sg83
g4454
sg76
(lp4470
g69
(g70
g71
NtRp4471
(dp4472
g74
(dp4473
g82
I5
ssg83
g4467
sg76
(lp4474
S''
asbasbasbag69
(g85
g71
NtRp4475
(dp4476
g74
(dp4477
sg83
g4144
sg76
(lp4478
g69
(g90
g71
NtRp4479
(dp4480
g74
(dp4481
g94
g95
ssg83
g4475
sg76
(lp4482
S'generic_patterns'
p4483
asbag69
(g90
g71
NtRp4484
(dp4485
g74
(dp4486
g101
g102
ssg83
g4475
sg76
(lp4487
S':'
asbag69
(g90
g71
NtRp4488
(dp4489
g74
(dp4490
sg83
g4475
sg76
(lp4491
g69
(g70
g71
NtRp4492
(dp4493
g74
(dp4494
g82
I5
ssg83
g4488
sg76
(lp4495
g69
(g78
g71
NtRp4496
(dp4497
g74
(dp4498
g82
I4
ssg83
Nsg76
(lp4499
g69
(g85
g71
NtRp4500
(dp4501
g74
(dp4502
sg83
g4496
sg76
(lp4503
g69
(g90
g71
NtRp4504
(dp4505
g74
(dp4506
sg83
g4500
sg76
(lp4507
g69
(g70
g71
NtRp4508
(dp4509
g74
(dp4510
g82
I4
ssg83
g4504
sg76
(lp4511
S'*'
asbasbasbasbasbasbasbag69
(g85
g71
NtRp4512
(dp4513
g74
(dp4514
sg83
g4144
sg76
(lp4515
g69
(g90
g71
NtRp4516
(dp4517
g74
(dp4518
g94
g95
ssg83
g4512
sg76
(lp4519
S'google_analytics_id'
p4520
asbag69
(g90
g71
NtRp4521
(dp4522
g74
(dp4523
g101
g102
ssg83
g4512
sg76
(lp4524
S':'
asbag69
(g90
g71
NtRp4525
(dp4526
g74
(dp4527
sg83
g4512
sg76
(lp4528
g69
(g70
g71
NtRp4529
(dp4530
g74
(dp4531
g82
I5
ssg83
g4525
sg76
(lp4532
S'None'
p4533
asbasbasbag69
(g85
g71
NtRp4534
(dp4535
g74
(dp4536
sg83
g4144
sg76
(lp4537
g69
(g90
g71
NtRp4538
(dp4539
g74
(dp4540
g94
g95
ssg83
g4534
sg76
(lp4541
S'headers'
p4542
asbag69
(g90
g71
NtRp4543
(dp4544
g74
(dp4545
g101
g102
ssg83
g4534
sg76
(lp4546
S':'
asbag69
(g90
g71
NtRp4547
(dp4548
g74
(dp4549
sg83
g4534
sg76
(lp4550
g69
(g70
g71
NtRp4551
(dp4552
g74
(dp4553
g82
I5
ssg83
g4547
sg76
(lp4554
g69
(g78
g71
NtRp4555
(dp4556
g74
(dp4557
g82
I4
ssg83
Nsg76
(lp4558
g69
(g85
g71
NtRp4559
(dp4560
g74
(dp4561
sg83
g4555
sg76
(lp4562
g69
(g90
g71
NtRp4563
(dp4564
g74
(dp4565
g94
g95
ssg83
g4559
sg76
(lp4566
S'X-Powered-By'
p4567
asbag69
(g90
g71
NtRp4568
(dp4569
g74
(dp4570
g101
g102
ssg83
g4559
sg76
(lp4571
S':'
asbag69
(g90
g71
NtRp4572
(dp4573
g74
(dp4574
sg83
g4559
sg76
(lp4575
g69
(g70
g71
NtRp4576
(dp4577
g74
(dp4578
g82
I4
ssg83
g4572
sg76
(lp4579
S'web2py'
p4580
asbasbasbasbasbasbasbag69
(g85
g71
NtRp4581
(dp4582
g74
(dp4583
sg83
g4144
sg76
(lp4584
g69
(g90
g71
NtRp4585
(dp4586
g74
(dp4587
g94
g95
ssg83
g4581
sg76
(lp4588
S'menu'
p4589
asbag69
(g90
g71
NtRp4590
(dp4591
g74
(dp4592
g101
g102
ssg83
g4581
sg76
(lp4593
S':'
asbag69
(g90
g71
NtRp4594
(dp4595
g74
(dp4596
sg83
g4581
sg76
(lp4597
g69
(g70
g71
NtRp4598
(dp4599
g74
(dp4600
g82
I5
ssg83
g4594
sg76
(lp4601
g69
(g78
g71
NtRp4602
(dp4603
g74
(dp4604
g82
I4
ssg83
Nsg76
(lp4605
g69
(g85
g71
NtRp4606
(dp4607
g74
(dp4608
sg83
g4602
sg76
(lp4609
g69
(g90
g71
NtRp4610
(dp4611
g74
(dp4612
sg83
g4606
sg76
(lp4613
g69
(g70
g71
NtRp4614
(dp4615
g74
(dp4616
g82
I4
ssg83
g4610
sg76
(lp4617
g69
(g78
g71
NtRp4618
(dp4619
g74
(dp4620
g82
I3
ssg83
Nsg76
(lp4621
g69
(g85
g71
NtRp4622
(dp4623
g74
(dp4624
sg83
g4618
sg76
(lp4625
g69
(g90
g71
NtRp4626
(dp4627
g74
(dp4628
sg83
g4622
sg76
(lp4629
g69
(g70
g71
NtRp4630
(dp4631
g74
(dp4632
g82
I3
ssg83
g4626
sg76
(lp4633
cgluon.languages
lazyT_unpickle
p4634
(S't\x08\x00\x00\x00Overview'
tRp4635
asbasbasbag69
(g85
g71
NtRp4636
(dp4637
g74
(dp4638
sg83
g4618
sg76
(lp4639
g69
(g90
g71
NtRp4640
(dp4641
g74
(dp4642
sg83
g4636
sg76
(lp4643
g69
(g70
g71
NtRp4644
(dp4645
g74
(dp4646
g82
I3
ssg83
g4640
sg76
(lp4647
g112
asbasbasbag69
(g85
g71
NtRp4648
(dp4649
g74
(dp4650
sg83
g4618
sg76
(lp4651
g69
(g90
g71
NtRp4652
(dp4653
g74
(dp4654
sg83
g4648
sg76
(lp4655
g69
(g70
g71
NtRp4656
(dp4657
g74
(dp4658
g82
I3
ssg83
g4652
sg76
(lp4659
S'/rideshare/default/index'
p4660
asbasbasbag69
(g85
g71
NtRp4661
(dp4662
g74
(dp4663
sg83
g4618
sg76
(lp4664
g69
(g90
g71
NtRp4665
(dp4666
g74
(dp4667
sg83
g4661
sg76
(lp4668
g69
(g70
g71
NtRp4669
(dp4670
g74
(dp4671
g82
I3
ssg83
g4665
sg76
(lp4672
g69
(g78
g71
NtRp4673
(dp4674
g74
(dp4675
g82
I2
ssg83
Nsg76
(lp4676
sbasbasbasbasbasbasbasbag69
(g85
g71
NtRp4677
(dp4678
g74
(dp4679
sg83
g4602
sg76
(lp4680
g69
(g90
g71
NtRp4681
(dp4682
g74
(dp4683
sg83
g4677
sg76
(lp4684
g69
(g70
g71
NtRp4685
(dp4686
g74
(dp4687
g82
I4
ssg83
g4681
sg76
(lp4688
g69
(g78
g71
NtRp4689
(dp4690
g74
(dp4691
g82
I3
ssg83
Nsg76
(lp4692
g69
(g85
g71
NtRp4693
(dp4694
g74
(dp4695
sg83
g4689
sg76
(lp4696
g69
(g90
g71
NtRp4697
(dp4698
g74
(dp4699
sg83
g4693
sg76
(lp4700
g69
(g70
g71
NtRp4701
(dp4702
g74
(dp4703
g82
I3
ssg83
g4697
sg76
(lp4704
g69
(cgluon.html
SPAN
p4705
g71
NtRp4706
(dp4707
g74
(dp4708
S'_class'
p4709
S'highlighted'
p4710
ssg83
Nsg76
(lp4711
g4580
asbasbasbasbag69
(g85
g71
NtRp4712
(dp4713
g74
(dp4714
sg83
g4689
sg76
(lp4715
g69
(g90
g71
NtRp4716
(dp4717
g74
(dp4718
sg83
g4712
sg76
(lp4719
g69
(g70
g71
NtRp4720
(dp4721
g74
(dp4722
g82
I3
ssg83
g4716
sg76
(lp4723
g112
asbasbasbag69
(g85
g71
NtRp4724
(dp4725
g74
(dp4726
sg83
g4689
sg76
(lp4727
g69
(g90
g71
NtRp4728
(dp4729
g74
(dp4730
sg83
g4724
sg76
(lp4731
g69
(g70
g71
NtRp4732
(dp4733
g74
(dp4734
g82
I3
ssg83
g4728
sg76
(lp4735
S'http://web2py.com'
p4736
asbasbasbag69
(g85
g71
NtRp4737
(dp4738
g74
(dp4739
sg83
g4689
sg76
(lp4740
g69
(g90
g71
NtRp4741
(dp4742
g74
(dp4743
sg83
g4737
sg76
(lp4744
g69
(g70
g71
NtRp4745
(dp4746
g74
(dp4747
g82
I3
ssg83
g4741
sg76
(lp4748
g69
(g78
g71
NtRp4749
(dp4750
g74
(dp4751
g82
I2
ssg83
Nsg76
(lp4752
g69
(g85
g71
NtRp4753
(dp4754
g74
(dp4755
sg83
g4749
sg76
(lp4756
g69
(g90
g71
NtRp4757
(dp4758
g74
(dp4759
sg83
g4753
sg76
(lp4760
g69
(g70
g71
NtRp4761
(dp4762
g74
(dp4763
g82
I2
ssg83
g4757
sg76
(lp4764
g69
(g78
g71
NtRp4765
(dp4766
g74
(dp4767
g82
I1
ssg83
Nsg76
(lp4768
g69
(g85
g71
NtRp4769
(dp4770
g74
(dp4771
sg83
g4765
sg76
(lp4772
g69
(g90
g71
NtRp4773
(dp4774
g74
(dp4775
sg83
g4769
sg76
(lp4776
g69
(g70
g71
NtRp4777
(dp4778
g74
(dp4779
g82
I1
ssg83
g4773
sg76
(lp4780
g4634
(S's\x08\x00\x00\x00My Sites'
tRp4781
asbasbasbag69
(g85
g71
NtRp4782
(dp4783
g74
(dp4784
sg83
g4765
sg76
(lp4785
g69
(g90
g71
NtRp4786
(dp4787
g74
(dp4788
sg83
g4782
sg76
(lp4789
g69
(g70
g71
NtRp4790
(dp4791
g74
(dp4792
g82
I1
ssg83
g4786
sg76
(lp4793
I00
asbasbasbag69
(g85
g71
NtRp4794
(dp4795
g74
(dp4796
sg83
g4765
sg76
(lp4797
g69
(g90
g71
NtRp4798
(dp4799
g74
(dp4800
sg83
g4794
sg76
(lp4801
g69
(g70
g71
NtRp4802
(dp4803
g74
(dp4804
g82
I1
ssg83
g4798
sg76
(lp4805
S'/admin/default/site'
p4806
asbasbasbasbasbasbasbag69
(g85
g71
NtRp4807
(dp4808
g74
(dp4809
sg83
g4749
sg76
(lp4810
g69
(g90
g71
NtRp4811
(dp4812
g74
(dp4813
sg83
g4807
sg76
(lp4814
g69
(g70
g71
NtRp4815
(dp4816
g74
(dp4817
g82
I2
ssg83
g4811
sg76
(lp4818
g69
(g78
g71
NtRp4819
(dp4820
g74
(dp4821
g82
I1
ssg83
Nsg76
(lp4822
g69
(g85
g71
NtRp4823
(dp4824
g74
(dp4825
sg83
g4819
sg76
(lp4826
g69
(g90
g71
NtRp4827
(dp4828
g74
(dp4829
sg83
g4823
sg76
(lp4830
g69
(g70
g71
NtRp4831
(dp4832
g74
(dp4833
g82
I1
ssg83
g4827
sg76
(lp4834
g4634
(S's\x08\x00\x00\x00This App'
tRp4835
asbasbasbag69
(g85
g71
NtRp4836
(dp4837
g74
(dp4838
sg83
g4819
sg76
(lp4839
g69
(g90
g71
NtRp4840
(dp4841
g74
(dp4842
sg83
g4836
sg76
(lp4843
g69
(g70
g71
NtRp4844
(dp4845
g74
(dp4846
g82
I1
ssg83
g4840
sg76
(lp4847
I00
asbasbasbag69
(g85
g71
NtRp4848
(dp4849
g74
(dp4850
sg83
g4819
sg76
(lp4851
g69
(g90
g71
NtRp4852
(dp4853
g74
(dp4854
sg83
g4848
sg76
(lp4855
g69
(g70
g71
NtRp4856
(dp4857
g74
(dp4858
g82
I1
ssg83
g4852
sg76
(lp4859
S'/admin/default/design/rideshare'
p4860
asbasbasbag69
(g85
g71
NtRp4861
(dp4862
g74
(dp4863
sg83
g4819
sg76
(lp4864
g69
(g90
g71
NtRp4865
(dp4866
g74
(dp4867
sg83
g4861
sg76
(lp4868
g69
(g70
g71
NtRp4869
(dp4870
g74
(dp4871
g82
I1
ssg83
g4865
sg76
(lp4872
(lp4873
(g4634
(S't\n\x00\x00\x00Controller'
tRp4874
I00
S'/admin/default/edit/rideshare/controllers/default.py'
tp4875
a(g4634
(S't\x04\x00\x00\x00View'
tRp4876
I00
S'/admin/default/edit/rideshare/views/default/index.html'
tp4877
a(g4634
(S't\x06\x00\x00\x00Layout'
tRp4878
I00
S'/admin/default/edit/rideshare/views/layout.html'
tp4879
a(g4634
(S't\n\x00\x00\x00Stylesheet'
tRp4880
I00
S'/admin/default/edit/rideshare/static/css/web2py.css'
tp4881
a(g4634
(S's\x08\x00\x00\x00DB Model'
tRp4882
I00
S'/admin/default/edit/rideshare/models/db.py'
tp4883
a(g4634
(S's\n\x00\x00\x00Menu Model'
tRp4884
I00
S'/admin/default/edit/rideshare/models/menu.py'
tp4885
a(g4634
(S't\x08\x00\x00\x00Database'
tRp4886
I00
S'/rideshare/appadmin/index'
tp4887
a(g4634
(S't\x06\x00\x00\x00Errors'
tRp4888
I00
S'/admin/default/errors/rideshare'
tp4889
a(g4634
(S't\x05\x00\x00\x00About'
tRp4890
I00
S'/admin/default/about/rideshare'
tp4891
aasbasbasbasbasbasbasbag69
(g85
g71
NtRp4892
(dp4893
g74
(dp4894
sg83
g4749
sg76
(lp4895
g69
(g90
g71
NtRp4896
(dp4897
g74
(dp4898
sg83
g4892
sg76
(lp4899
g69
(g70
g71
NtRp4900
(dp4901
g74
(dp4902
g82
I2
ssg83
g4896
sg76
(lp4903
g69
(g78
g71
NtRp4904
(dp4905
g74
(dp4906
g82
I1
ssg83
Nsg76
(lp4907
g69
(g85
g71
NtRp4908
(dp4909
g74
(dp4910
sg83
g4904
sg76
(lp4911
g69
(g90
g71
NtRp4912
(dp4913
g74
(dp4914
sg83
g4908
sg76
(lp4915
g69
(g70
g71
NtRp4916
(dp4917
g74
(dp4918
g82
I1
ssg83
g4912
sg76
(lp4919
S'web2py.com'
p4920
asbasbasbag69
(g85
g71
NtRp4921
(dp4922
g74
(dp4923
sg83
g4904
sg76
(lp4924
g69
(g90
g71
NtRp4925
(dp4926
g74
(dp4927
sg83
g4921
sg76
(lp4928
g69
(g70
g71
NtRp4929
(dp4930
g74
(dp4931
g82
I1
ssg83
g4925
sg76
(lp4932
I00
asbasbasbag69
(g85
g71
NtRp4933
(dp4934
g74
(dp4935
sg83
g4904
sg76
(lp4936
g69
(g90
g71
NtRp4937
(dp4938
g74
(dp4939
sg83
g4933
sg76
(lp4940
g69
(g70
g71
NtRp4941
(dp4942
g74
(dp4943
g82
I1
ssg83
g4937
sg76
(lp4944
S'http://www.web2py.com'
p4945
asbasbasbag69
(g85
g71
NtRp4946
(dp4947
g74
(dp4948
sg83
g4904
sg76
(lp4949
g69
(g90
g71
NtRp4950
(dp4951
g74
(dp4952
sg83
g4946
sg76
(lp4953
g69
(g70
g71
NtRp4954
(dp4955
g74
(dp4956
g82
I1
ssg83
g4950
sg76
(lp4957
(lp4958
(g4634
(S't\x08\x00\x00\x00Download'
tRp4959
I00
S'http://www.web2py.com/examples/default/download'
p4960
tp4961
a(g4634
(S't\x07\x00\x00\x00Support'
tRp4962
I00
S'http://www.web2py.com/examples/default/support'
p4963
tp4964
a(g4634
(S't\x04\x00\x00\x00Demo'
tRp4965
I00
S'http://web2py.com/demo_admin'
p4966
tp4967
a(g4634
(S's\x0e\x00\x00\x00Quick Examples'
tRp4968
I00
S'http://web2py.com/examples/default/examples'
p4969
tp4970
a(g4634
(S't\x03\x00\x00\x00FAQ'
tRp4971
I00
S'http://web2py.com/AlterEgo'
p4972
tp4973
a(g4634
(S't\x06\x00\x00\x00Videos'
tRp4974
I00
S'http://www.web2py.com/examples/default/videos/'
p4975
tp4976
a(g4634
(S's\x11\x00\x00\x00Free Applications'
tRp4977
I00
S'http://web2py.com/appliances'
p4978
tp4979
a(g4634
(S't\x07\x00\x00\x00Plugins'
tRp4980
I00
S'http://web2py.com/plugins'
p4981
tp4982
a(g4634
(S't\x07\x00\x00\x00Layouts'
tRp4983
I00
S'http://web2py.com/layouts'
p4984
tp4985
a(g4634
(S't\x07\x00\x00\x00Recipes'
tRp4986
I00
S'http://web2pyslices.com/'
p4987
tp4988
a(g4634
(S't\x08\x00\x00\x00Semantic'
tRp4989
I00
S'http://web2py.com/semantic'
p4990
tp4991
aasbasbasbasbasbasbasbag69
(g85
g71
NtRp4992
(dp4993
g74
(dp4994
sg83
g4749
sg76
(lp4995
g69
(g90
g71
NtRp4996
(dp4997
g74
(dp4998
sg83
g4992
sg76
(lp4999
g69
(g70
g71
NtRp5000
(dp5001
g74
(dp5002
g82
I2
ssg83
g4996
sg76
(lp5003
g69
(g78
g71
NtRp5004
(dp5005
g74
(dp5006
g82
I1
ssg83
Nsg76
(lp5007
g69
(g85
g71
NtRp5008
(dp5009
g74
(dp5010
sg83
g5004
sg76
(lp5011
g69
(g90
g71
NtRp5012
(dp5013
g74
(dp5014
sg83
g5008
sg76
(lp5015
g69
(g70
g71
NtRp5016
(dp5017
g74
(dp5018
g82
I1
ssg83
g5012
sg76
(lp5019
g4634
(S't\r\x00\x00\x00Documentation'
tRp5020
asbasbasbag69
(g85
g71
NtRp5021
(dp5022
g74
(dp5023
sg83
g5004
sg76
(lp5024
g69
(g90
g71
NtRp5025
(dp5026
g74
(dp5027
sg83
g5021
sg76
(lp5028
g69
(g70
g71
NtRp5029
(dp5030
g74
(dp5031
g82
I1
ssg83
g5025
sg76
(lp5032
I00
asbasbasbag69
(g85
g71
NtRp5033
(dp5034
g74
(dp5035
sg83
g5004
sg76
(lp5036
g69
(g90
g71
NtRp5037
(dp5038
g74
(dp5039
sg83
g5033
sg76
(lp5040
g69
(g70
g71
NtRp5041
(dp5042
g74
(dp5043
g82
I1
ssg83
g5037
sg76
(lp5044
S'http://www.web2py.com/book'
p5045
asbasbasbag69
(g85
g71
NtRp5046
(dp5047
g74
(dp5048
sg83
g5004
sg76
(lp5049
g69
(g90
g71
NtRp5050
(dp5051
g74
(dp5052
sg83
g5046
sg76
(lp5053
g69
(g70
g71
NtRp5054
(dp5055
g74
(dp5056
g82
I1
ssg83
g5050
sg76
(lp5057
(lp5058
(g4634
(S't\x07\x00\x00\x00Preface'
tRp5059
I00
S'http://www.web2py.com/book/default/chapter/00'
p5060
tp5061
a(g4634
(S't\x0c\x00\x00\x00Introduction'
tRp5062
I00
S'http://www.web2py.com/book/default/chapter/01'
p5063
tp5064
a(g4634
(S't\x06\x00\x00\x00Python'
tRp5065
I00
S'http://www.web2py.com/book/default/chapter/02'
p5066
tp5067
a(g4634
(S't\x08\x00\x00\x00Overview'
tRp5068
I00
S'http://www.web2py.com/book/default/chapter/03'
p5069
tp5070
a(g4634
(S's\x08\x00\x00\x00The Core'
tRp5071
I00
S'http://www.web2py.com/book/default/chapter/04'
p5072
tp5073
a(g4634
(S's\t\x00\x00\x00The Views'
tRp5074
I00
S'http://www.web2py.com/book/default/chapter/05'
p5075
tp5076
a(g4634
(S't\x08\x00\x00\x00Database'
tRp5077
I00
S'http://www.web2py.com/book/default/chapter/06'
p5078
tp5079
a(g4634
(S's\x14\x00\x00\x00Forms and Validators'
tRp5080
I00
S'http://www.web2py.com/book/default/chapter/07'
p5081
tp5082
a(g4634
(S's\r\x00\x00\x00Email and SMS'
tRp5083
I00
S'http://www.web2py.com/book/default/chapter/08'
p5084
tp5085
a(g4634
(S's\x0e\x00\x00\x00Access Control'
tRp5086
I00
S'http://www.web2py.com/book/default/chapter/09'
p5087
tp5088
a(g4634
(S't\x08\x00\x00\x00Services'
tRp5089
I00
S'http://www.web2py.com/book/default/chapter/10'
p5090
tp5091
a(g4634
(S's\x0c\x00\x00\x00Ajax Recipes'
tRp5092
I00
S'http://www.web2py.com/book/default/chapter/11'
p5093
tp5094
a(g4634
(S's\x16\x00\x00\x00Components and Plugins'
tRp5095
I00
S'http://www.web2py.com/book/default/chapter/12'
p5096
tp5097
a(g4634
(S's\x12\x00\x00\x00Deployment Recipes'
tRp5098
I00
S'http://www.web2py.com/book/default/chapter/13'
p5099
tp5100
a(g4634
(S's\r\x00\x00\x00Other Recipes'
tRp5101
I00
S'http://www.web2py.com/book/default/chapter/14'
p5102
tp5103
a(g4634
(S's\r\x00\x00\x00Buy this book'
tRp5104
I00
S'http://stores.lulu.com/web2py'
p5105
tp5106
aasbasbasbasbasbasbasbag69
(g85
g71
NtRp5107
(dp5108
g74
(dp5109
sg83
g4749
sg76
(lp5110
g69
(g90
g71
NtRp5111
(dp5112
g74
(dp5113
sg83
g5107
sg76
(lp5114
g69
(g70
g71
NtRp5115
(dp5116
g74
(dp5117
g82
I2
ssg83
g5111
sg76
(lp5118
g69
(g78
g71
NtRp5119
(dp5120
g74
(dp5121
g82
I1
ssg83
Nsg76
(lp5122
g69
(g85
g71
NtRp5123
(dp5124
g74
(dp5125
sg83
g5119
sg76
(lp5126
g69
(g90
g71
NtRp5127
(dp5128
g74
(dp5129
sg83
g5123
sg76
(lp5130
g69
(g70
g71
NtRp5131
(dp5132
g74
(dp5133
g82
I1
ssg83
g5127
sg76
(lp5134
g4634
(S't\t\x00\x00\x00Community'
tRp5135
asbasbasbag69
(g85
g71
NtRp5136
(dp5137
g74
(dp5138
sg83
g5119
sg76
(lp5139
g69
(g90
g71
NtRp5140
(dp5141
g74
(dp5142
sg83
g5136
sg76
(lp5143
g69
(g70
g71
NtRp5144
(dp5145
g74
(dp5146
g82
I1
ssg83
g5140
sg76
(lp5147
I00
asbasbasbag69
(g85
g71
NtRp5148
(dp5149
g74
(dp5150
sg83
g5119
sg76
(lp5151
g69
(g90
g71
NtRp5152
(dp5153
g74
(dp5154
sg83
g5148
sg76
(lp5155
g69
(g70
g71
NtRp5156
(dp5157
g74
(dp5158
g82
I1
ssg83
g5152
sg76
(lp5159
Nasbasbasbag69
(g85
g71
NtRp5160
(dp5161
g74
(dp5162
sg83
g5119
sg76
(lp5163
g69
(g90
g71
NtRp5164
(dp5165
g74
(dp5166
sg83
g5160
sg76
(lp5167
g69
(g70
g71
NtRp5168
(dp5169
g74
(dp5170
g82
I1
ssg83
g5164
sg76
(lp5171
(lp5172
(g4634
(S't\x06\x00\x00\x00Groups'
tRp5173
I00
S'http://www.web2py.com/examples/default/usergroups'
p5174
tp5175
a(g4634
(S't\x07\x00\x00\x00Twitter'
tRp5176
I00
S'http://twitter.com/web2py'
p5177
tp5178
a(g4634
(S's\t\x00\x00\x00Live Chat'
tRp5179
I00
S'http://webchat.freenode.net/?channels=web2py'
p5180
tp5181
aasbasbasbasbasbasbasbag69
(g85
g71
NtRp5182
(dp5183
g74
(dp5184
sg83
g4749
sg76
(lp5185
g69
(g90
g71
NtRp5186
(dp5187
g74
(dp5188
sg83
g5182
sg76
(lp5189
g69
(g70
g71
NtRp5190
(dp5191
g74
(dp5192
g82
I2
ssg83
g5186
sg76
(lp5193
g69
(g78
g71
NtRp5194
(dp5195
g74
(dp5196
g82
I1
ssg83
Nsg76
(lp5197
g69
(g85
g71
NtRp5198
(dp5199
g74
(dp5200
sg83
g5194
sg76
(lp5201
g69
(g90
g71
NtRp5202
(dp5203
g74
(dp5204
sg83
g5198
sg76
(lp5205
g69
(g70
g71
NtRp5206
(dp5207
g74
(dp5208
g82
I1
ssg83
g5202
sg76
(lp5209
g4634
(S't\x07\x00\x00\x00Plugins'
tRp5210
asbasbasbag69
(g85
g71
NtRp5211
(dp5212
g74
(dp5213
sg83
g5194
sg76
(lp5214
g69
(g90
g71
NtRp5215
(dp5216
g74
(dp5217
sg83
g5211
sg76
(lp5218
g69
(g70
g71
NtRp5219
(dp5220
g74
(dp5221
g82
I1
ssg83
g5215
sg76
(lp5222
I00
asbasbasbag69
(g85
g71
NtRp5223
(dp5224
g74
(dp5225
sg83
g5194
sg76
(lp5226
g69
(g90
g71
NtRp5227
(dp5228
g74
(dp5229
sg83
g5223
sg76
(lp5230
g69
(g70
g71
NtRp5231
(dp5232
g74
(dp5233
g82
I1
ssg83
g5227
sg76
(lp5234
Nasbasbasbag69
(g85
g71
NtRp5235
(dp5236
g74
(dp5237
sg83
g5194
sg76
(lp5238
g69
(g90
g71
NtRp5239
(dp5240
g74
(dp5241
sg83
g5235
sg76
(lp5242
g69
(g70
g71
NtRp5243
(dp5244
g74
(dp5245
g82
I1
ssg83
g5239
sg76
(lp5246
(lp5247
(S'plugin_wiki'
p5248
I00
S'http://web2py.com/examples/default/download'
p5249
tp5250
a(g4634
(S's\r\x00\x00\x00Other Plugins'
tRp5251
I00
g4981
tp5252
a(g4634
(S's\x0e\x00\x00\x00Layout Plugins'
tRp5253
I00
g4984
tp5254
aasbasbasbasbasbasbasbasbasbasbasbasbasbasbasbasbasbasbasbag69
(g85
g71
NtRp5255
(dp5256
g74
(dp5257
sg83
g4144
sg76
(lp5258
g69
(g90
g71
NtRp5259
(dp5260
g74
(dp5261
g94
g95
ssg83
g5255
sg76
(lp5262
S'meta'
p5263
asbag69
(g90
g71
NtRp5264
(dp5265
g74
(dp5266
g101
g102
ssg83
g5255
sg76
(lp5267
S':'
asbag69
(g90
g71
NtRp5268
(dp5269
g74
(dp5270
sg83
g5255
sg76
(lp5271
g69
(g70
g71
NtRp5272
(dp5273
g74
(dp5274
g82
I5
ssg83
g5268
sg76
(lp5275
g69
(g78
g71
NtRp5276
(dp5277
g74
(dp5278
g82
I4
ssg83
Nsg76
(lp5279
g69
(g85
g71
NtRp5280
(dp5281
g74
(dp5282
sg83
g5276
sg76
(lp5283
g69
(g90
g71
NtRp5284
(dp5285
g74
(dp5286
g94
g95
ssg83
g5280
sg76
(lp5287
S'author'
p5288
asbag69
(g90
g71
NtRp5289
(dp5290
g74
(dp5291
g101
g102
ssg83
g5280
sg76
(lp5292
S':'
asbag69
(g90
g71
NtRp5293
(dp5294
g74
(dp5295
sg83
g5280
sg76
(lp5296
g69
(g70
g71
NtRp5297
(dp5298
g74
(dp5299
g82
I4
ssg83
g5293
sg76
(lp5300
S'Your Name <you@example.com>'
p5301
asbasbasbag69
(g85
g71
NtRp5302
(dp5303
g74
(dp5304
sg83
g5276
sg76
(lp5305
g69
(g90
g71
NtRp5306
(dp5307
g74
(dp5308
g94
g95
ssg83
g5302
sg76
(lp5309
S'description'
p5310
asbag69
(g90
g71
NtRp5311
(dp5312
g74
(dp5313
g101
g102
ssg83
g5302
sg76
(lp5314
S':'
asbag69
(g90
g71
NtRp5315
(dp5316
g74
(dp5317
sg83
g5302
sg76
(lp5318
g69
(g70
g71
NtRp5319
(dp5320
g74
(dp5321
g82
I4
ssg83
g5315
sg76
(lp5322
S'a cool new app'
p5323
asbasbasbag69
(g85
g71
NtRp5324
(dp5325
g74
(dp5326
sg83
g5276
sg76
(lp5327
g69
(g90
g71
NtRp5328
(dp5329
g74
(dp5330
g94
g95
ssg83
g5324
sg76
(lp5331
S'generator'
p5332
asbag69
(g90
g71
NtRp5333
(dp5334
g74
(dp5335
g101
g102
ssg83
g5324
sg76
(lp5336
S':'
asbag69
(g90
g71
NtRp5337
(dp5338
g74
(dp5339
sg83
g5324
sg76
(lp5340
g69
(g70
g71
NtRp5341
(dp5342
g74
(dp5343
g82
I4
ssg83
g5337
sg76
(lp5344
S'Web2py Web Framework'
p5345
asbasbasbag69
(g85
g71
NtRp5346
(dp5347
g74
(dp5348
sg83
g5276
sg76
(lp5349
g69
(g90
g71
NtRp5350
(dp5351
g74
(dp5352
g94
g95
ssg83
g5346
sg76
(lp5353
S'keywords'
p5354
asbag69
(g90
g71
NtRp5355
(dp5356
g74
(dp5357
g101
g102
ssg83
g5346
sg76
(lp5358
S':'
asbag69
(g90
g71
NtRp5359
(dp5360
g74
(dp5361
sg83
g5346
sg76
(lp5362
g69
(g70
g71
NtRp5363
(dp5364
g74
(dp5365
g82
I4
ssg83
g5359
sg76
(lp5366
S'web2py, python, framework'
p5367
asbasbasbasbasbasbasbag69
(g85
g71
NtRp5368
(dp5369
g74
(dp5370
sg83
g4144
sg76
(lp5371
g69
(g90
g71
NtRp5372
(dp5373
g74
(dp5374
g94
g95
ssg83
g5368
sg76
(lp5375
S'models_to_run'
p5376
asbag69
(g90
g71
NtRp5377
(dp5378
g74
(dp5379
g101
g102
ssg83
g5368
sg76
(lp5380
S':'
asbag69
(g90
g71
NtRp5381
(dp5382
g74
(dp5383
sg83
g5368
sg76
(lp5384
g69
(g70
g71
NtRp5385
(dp5386
g74
(dp5387
g82
I5
ssg83
g5381
sg76
(lp5388
g69
(g78
g71
NtRp5389
(dp5390
g74
(dp5391
g82
I4
ssg83
Nsg76
(lp5392
g69
(g85
g71
NtRp5393
(dp5394
g74
(dp5395
sg83
g5389
sg76
(lp5396
g69
(g90
g71
NtRp5397
(dp5398
g74
(dp5399
sg83
g5393
sg76
(lp5400
g69
(g70
g71
NtRp5401
(dp5402
g74
(dp5403
g82
I4
ssg83
g5397
sg76
(lp5404
S'^\\w+\\.py$'
p5405
asbasbasbag69
(g85
g71
NtRp5406
(dp5407
g74
(dp5408
sg83
g5389
sg76
(lp5409
g69
(g90
g71
NtRp5410
(dp5411
g74
(dp5412
sg83
g5406
sg76
(lp5413
g69
(g70
g71
NtRp5414
(dp5415
g74
(dp5416
g82
I4
ssg83
g5410
sg76
(lp5417
S'^default/\\w+\\.py$'
p5418
asbasbasbag69
(g85
g71
NtRp5419
(dp5420
g74
(dp5421
sg83
g5389
sg76
(lp5422
g69
(g90
g71
NtRp5423
(dp5424
g74
(dp5425
sg83
g5419
sg76
(lp5426
g69
(g70
g71
NtRp5427
(dp5428
g74
(dp5429
g82
I4
ssg83
g5423
sg76
(lp5430
S'^default/index/\\w+\\.py$'
p5431
asbasbasbasbasbasbasbag69
(g85
g71
NtRp5432
(dp5433
g74
(dp5434
sg83
g4144
sg76
(lp5435
g69
(g90
g71
NtRp5436
(dp5437
g74
(dp5438
g94
g95
ssg83
g5432
sg76
(lp5439
S'postprocessing'
p5440
asbag69
(g90
g71
NtRp5441
(dp5442
g74
(dp5443
g101
g102
ssg83
g5432
sg76
(lp5444
S':'
asbag69
(g90
g71
NtRp5445
(dp5446
g74
(dp5447
sg83
g5432
sg76
(lp5448
g69
(g70
g71
NtRp5449
(dp5450
g74
(dp5451
g82
I5
ssg83
g5445
sg76
(lp5452
g69
(g78
g71
NtRp5453
(dp5454
g74
(dp5455
g82
I4
ssg83
Nsg76
(lp5456
sbasbasbasbag69
(g85
g71
NtRp5457
(dp5458
g74
(dp5459
sg83
g4144
sg76
(lp5460
g69
(g90
g71
NtRp5461
(dp5462
g74
(dp5463
g94
g95
ssg83
g5457
sg76
(lp5464
S'session_file'
p5465
asbag69
(g90
g71
NtRp5466
(dp5467
g74
(dp5468
g101
g102
ssg83
g5457
sg76
(lp5469
S':'
asbag69
(g90
g71
NtRp5470
(dp5471
g74
(dp5472
sg83
g5457
sg76
(lp5473
g69
(g70
g71
NtRp5474
(dp5475
g74
(dp5476
g82
I5
ssg83
g5470
sg76
(lp5477
S"<open file 'C:\\Users\\Owner\\Desktop\\web2py\\applications\\rideshare\\sessions\\127.0.0.1-76981bb4-a11c-4445-975f-4668a2e996ed', mode 'rb+' at 0x06C555F8>"
p5478
asbasbasbag69
(g85
g71
NtRp5479
(dp5480
g74
(dp5481
sg83
g4144
sg76
(lp5482
g69
(g90
g71
NtRp5483
(dp5484
g74
(dp5485
g94
g95
ssg83
g5479
sg76
(lp5486
S'session_filename'
p5487
asbag69
(g90
g71
NtRp5488
(dp5489
g74
(dp5490
g101
g102
ssg83
g5479
sg76
(lp5491
S':'
asbag69
(g90
g71
NtRp5492
(dp5493
g74
(dp5494
sg83
g5479
sg76
(lp5495
g69
(g70
g71
NtRp5496
(dp5497
g74
(dp5498
g82
I5
ssg83
g5492
sg76
(lp5499
S'C:\\Users\\Owner\\Desktop\\web2py\\applications\\rideshare\\sessions\\127.0.0.1-76981bb4-a11c-4445-975f-4668a2e996ed'
p5500
asbasbasbag69
(g85
g71
NtRp5501
(dp5502
g74
(dp5503
sg83
g4144
sg76
(lp5504
g69
(g90
g71
NtRp5505
(dp5506
g74
(dp5507
g94
g95
ssg83
g5501
sg76
(lp5508
S'session_id'
p5509
asbag69
(g90
g71
NtRp5510
(dp5511
g74
(dp5512
g101
g102
ssg83
g5501
sg76
(lp5513
S':'
asbag69
(g90
g71
NtRp5514
(dp5515
g74
(dp5516
sg83
g5501
sg76
(lp5517
g69
(g70
g71
NtRp5518
(dp5519
g74
(dp5520
g82
I5
ssg83
g5514
sg76
(lp5521
g673
asbasbasbag69
(g85
g71
NtRp5522
(dp5523
g74
(dp5524
sg83
g4144
sg76
(lp5525
g69
(g90
g71
NtRp5526
(dp5527
g74
(dp5528
g94
g95
ssg83
g5522
sg76
(lp5529
S'session_id_name'
p5530
asbag69
(g90
g71
NtRp5531
(dp5532
g74
(dp5533
g101
g102
ssg83
g5522
sg76
(lp5534
S':'
asbag69
(g90
g71
NtRp5535
(dp5536
g74
(dp5537
sg83
g5522
sg76
(lp5538
g69
(g70
g71
NtRp5539
(dp5540
g74
(dp5541
g82
I5
ssg83
g5535
sg76
(lp5542
g4201
asbasbasbag69
(g85
g71
NtRp5543
(dp5544
g74
(dp5545
sg83
g4144
sg76
(lp5546
g69
(g90
g71
NtRp5547
(dp5548
g74
(dp5549
g94
g95
ssg83
g5543
sg76
(lp5550
S'session_locked'
p5551
asbag69
(g90
g71
NtRp5552
(dp5553
g74
(dp5554
g101
g102
ssg83
g5543
sg76
(lp5555
S':'
asbag69
(g90
g71
NtRp5556
(dp5557
g74
(dp5558
sg83
g5543
sg76
(lp5559
g69
(g70
g71
NtRp5560
(dp5561
g74
(dp5562
g82
I5
ssg83
g5556
sg76
(lp5563
g2271
asbasbasbag69
(g85
g71
NtRp5564
(dp5565
g74
(dp5566
sg83
g4144
sg76
(lp5567
g69
(g90
g71
NtRp5568
(dp5569
g74
(dp5570
g94
g95
ssg83
g5564
sg76
(lp5571
S'session_new'
p5572
asbag69
(g90
g71
NtRp5573
(dp5574
g74
(dp5575
g101
g102
ssg83
g5564
sg76
(lp5576
S':'
asbag69
(g90
g71
NtRp5577
(dp5578
g74
(dp5579
sg83
g5564
sg76
(lp5580
g69
(g70
g71
NtRp5581
(dp5582
g74
(dp5583
g82
I5
ssg83
g5577
sg76
(lp5584
g112
asbasbasbag69
(g85
g71
NtRp5585
(dp5586
g74
(dp5587
sg83
g4144
sg76
(lp5588
g69
(g90
g71
NtRp5589
(dp5590
g74
(dp5591
g94
g95
ssg83
g5585
sg76
(lp5592
S'status'
p5593
asbag69
(g90
g71
NtRp5594
(dp5595
g74
(dp5596
g101
g102
ssg83
g5585
sg76
(lp5597
S':'
asbag69
(g90
g71
NtRp5598
(dp5599
g74
(dp5600
sg83
g5585
sg76
(lp5601
g69
(g70
g71
NtRp5602
(dp5603
g74
(dp5604
g82
I5
ssg83
g5598
sg76
(lp5605
S'200'
p5606
asbasbasbag69
(g85
g71
NtRp5607
(dp5608
g74
(dp5609
sg83
g4144
sg76
(lp5610
g69
(g90
g71
NtRp5611
(dp5612
g74
(dp5613
g94
g95
ssg83
g5607
sg76
(lp5614
S'subtitle'
p5615
asbag69
(g90
g71
NtRp5616
(dp5617
g74
(dp5618
g101
g102
ssg83
g5607
sg76
(lp5619
S':'
asbag69
(g90
g71
NtRp5620
(dp5621
g74
(dp5622
sg83
g5607
sg76
(lp5623
g69
(g70
g71
NtRp5624
(dp5625
g74
(dp5626
g82
I5
ssg83
g5620
sg76
(lp5627
g4634
(S's\x1f\x00\x00\x00Where all your rides come true!'
tRp5628
asbasbasbag69
(g85
g71
NtRp5629
(dp5630
g74
(dp5631
sg83
g4144
sg76
(lp5632
g69
(g90
g71
NtRp5633
(dp5634
g74
(dp5635
g94
g95
ssg83
g5629
sg76
(lp5636
S'title'
p5637
asbag69
(g90
g71
NtRp5638
(dp5639
g74
(dp5640
g101
g102
ssg83
g5629
sg76
(lp5641
S':'
asbag69
(g90
g71
NtRp5642
(dp5643
g74
(dp5644
sg83
g5629
sg76
(lp5645
g69
(g70
g71
NtRp5646
(dp5647
g74
(dp5648
g82
I5
ssg83
g5642
sg76
(lp5649
g4634
(S't\t\x00\x00\x00Rideshare'
tRp5650
asbasbasbag69
(g85
g71
NtRp5651
(dp5652
g74
(dp5653
sg83
g4144
sg76
(lp5654
g69
(g90
g71
NtRp5655
(dp5656
g74
(dp5657
g94
g95
ssg83
g5651
sg76
(lp5658
S'view'
p5659
asbag69
(g90
g71
NtRp5660
(dp5661
g74
(dp5662
g101
g102
ssg83
g5651
sg76
(lp5663
S':'
asbag69
(g90
g71
NtRp5664
(dp5665
g74
(dp5666
sg83
g5651
sg76
(lp5667
g69
(g70
g71
NtRp5668
(dp5669
g74
(dp5670
g82
I5
ssg83
g5664
sg76
(lp5671
S'default/index.html'
p5672
asbasbasbasbasbsS'locals'
p5673
(dp5674
S'postcreation_fields'
p5675
S'[]'
p5676
sS'field_type'
p5677
S"'list:text'"
p5678
sS'sortable'
p5679
S'7'
sS'sql_fields_aux'
p5680
S"{'departure_date': {'sql': 'DATE'}, 'departure_time': {'sql': 'TIME'}, 'destination': {'sql': 'CHAR(512)'}, 'id': {'sql': 'INTEGER PRIMARY KEY AUTOINCREMENT'}, 'meeting_location': {'sql': 'CHAR(512)'}, 'trip_length': {'sql': 'CHAR(512)'}}"
p5681
sS'TFK'
p5682
g21
sS'migrate'
p5683
g2271
sS'fields'
p5684
S"['id INTEGER PRIMARY KEY AUTOINCREMENT', 'meeting_location CHAR(512)', 'destination CHAR(512)', 'departure_date DATE', 'departure_time TIME', 'trip_length CHAR(512)']"
p5685
sS'self'
p5686
S'<gluon.dal.SQLiteAdapter object>'
p5687
sS'tablename'
p5688
S"'ride'"
p5689
sS'fake_migrate'
p5690
g112
sS'db'
p5691
S'<DAL sqlite://storage.sqlite>'
p5692
sS'field'
p5693
S'<gluon.dal.Field object>'
p5694
sS'ftype'
p5695
S"'CHAR(512)'"
p5696
sS'polymodel'
p5697
S'None'
p5698
sS'table'
p5699
S'<Table ride (id,meeting_location,destination,dep...omments,price,riders,number_of_seats_open,owner)>'
p5700
sS'sql_fields'
p5701
S"{'departure_date': {'sortable': 4, 'sql': 'DATE', 'type': 'date'}, 'departure_time': {'sortable': 5, 'sql': 'TIME', 'type': 'time'}, 'destination': {'sortable': 3, 'sql': 'CHAR(512)', 'type': 'string'}, 'id': {'sortable': 1, 'sql': 'INTEGER PRIMARY KEY AUTOINCREMENT', 'type': 'id'}, 'meeting_location': {'sortable': 2, 'sql': 'CHAR(512)', 'type': 'string'}, 'trip_length': {'sortable': 6, 'sql': 'CHAR(512)', 'type': 'string'}}"
p5702
sS'field_name'
p5703
S"'comments'"
p5704
sS'types'
p5705
S"{'big-id': 'BIGINT PRIMARY KEY AUTOINCREMENT', 'big-reference': 'BIGINT REFERENCES %(foreign_key)s ON DELETE %(on_delete_action)s', 'bigint': 'INTEGER', 'blob': 'BLOB', 'boolean': 'CHAR(1)', 'date': 'DATE', 'datetime': 'TIMESTAMP', 'decimal': 'DOUBLE', 'double': 'DOUBLE', 'float': 'DOUBLE', ...}"
p5706
sssS'traceback'
p5707
S'Traceback (most recent call last):\n  File "gluon/restricted.py", line 209, in restricted\n  File "C:\\Users\\Owner\\Desktop\\web2py\\applications\\rideshare\\models\\rideshare.py", line 13, in <module>\n  File "gluon/dal.py", line 7095, in define_table\n  File "gluon/dal.py", line 7126, in lazy_define_table\n  File "gluon/dal.py", line 809, in create_table\nSyntaxError: Field: unknown field type: list:text for comments\n'
p5708
s.