(dp1
S'output'
p2
S"<type 'exceptions.SyntaxError'> invalid syntax (default/view.html, line 77)"
p3
sS'layer'
p4
S'C:\\Users\\Owner\\Desktop\\web2py\\applications\\rideshare\\views\\default/view.html'
p5
sS'code'
p6
S'response.write(\'<!DOCTYPE html PUBLIC "-//W3C//DTD XHTML 1.0 Transitional//EN" "http://www.w3.org/TR/xhtml1/DTD/xhtml1-transitional.dtd">\\n<html xmlns="http://www.w3.org/1999/xhtml">\\n <head>\\n  <title>\\n   \', escape=False)\nresponse.write(response.title or request.application)\nresponse.write(\'\\n  </title>\\n  \', escape=False)\nresponse.files.append(URL(request.application,\'static\',\'plugin_layouts/layouts/GreenandPlain/style.css\'))\nresponse.write(\'\\n  \', escape=False)\nresponse.files.append(URL(\'static\',\'plugin_layouts/superfish.js\'))\nresponse.write(\'\\n  \', escape=False)\nresponse.write(\'<script type="text/javascript"><!--\\n    // These variables are used by the web2py_ajax_init function in web2py_ajax.js (which is loaded below).\\n    var w2p_ajax_confirm_message = "\', escape=False)\nresponse.write(T(\'Are you sure you want to delete this object?\'))\nresponse.write(\'";\\n    var w2p_ajax_date_format = "\', escape=False)\nresponse.write(T(\'%Y-%m-%d\'))\nresponse.write(\'";\\n    var w2p_ajax_datetime_format = "\', escape=False)\nresponse.write(T(\'%Y-%m-%d %H:%M:%S\'))\nresponse.write(\'";\\n    //--></script>\\n\', escape=False)\nresponse.files.insert(0,URL(\'static\',\'js/jquery.js\'))\nresponse.files.insert(1,URL(\'static\',\'css/calendar.css\'))\nresponse.files.insert(2,URL(\'static\',\'js/calendar.js\'))\nresponse.files.insert(3,URL(\'static\',\'js/web2py.js\'))\nresponse.include_meta()\nresponse.include_files()\nresponse.write(\'\\n\', escape=False)\nresponse.write(\'\\n  <style>\\nul.web2py-menu-vertical { width: 150px; position: relative; top:1em; left:1em;  z-index:30; border:0; margin:0; padding: 0; list-style: none; text-decoration: none;}\\nul.web2py-menu-vertical li { margin:0; padding:0; border:0; width: 150px; background: black; text-align:left;}\\nul.web2py-menu-vertical li a { margin:0; padding: 1px 3px 1px 3px; border:0; width: 144px; color: white; font-size:12px;}\\ndiv.flash { position: fixed; float: right; padding: 10px; top: 10px; right: 30px; opacity: 0.75; margin: 10px 10px 10px 10px; text-align: center; clear: both; color: #fff; font-size: 11pt; text-align: center; vertical-align: middle; cursor: pointer; background: black; border: 2px solid #fff; -moz-border-radius: 5px; -webkit-border-radius: 5px; z-index: 2; }\\ndiv.error { background-color: red; color: white; padding: 3px; }\\n.auth_navbar { text-align:right; z-index:20; position: absolute; top: 2px; right:30px; border:0; padding:0 }\\n  </style>\\n </head>\\n <body>\\n  <!-- start header -->\\n  \', escape=False)\ntry:\n    response.write(auth.navbar(action=URL(\'default\',\'user\')))\nexcept:pass\nresponse.write(\'\\n\\n  <div id="header">\\n   <div id="logo">\\n    <h1>\\n     \', escape=False)\nresponse.write(response.title or request.application)\nresponse.write(\'\\n    </h1>\\n    <p>\\n     Where all your rides come true!\\n    </p>\\n   </div>\\n   <!-- end #logo -->\\n   <div id="menu">\\n    \', escape=False)\nresponse.write(MENU(response.menu,_class=\'web2py-menu\'))\nresponse.write(\'\\n    <script>\\n      jQuery(document).ready(function(){jQuery(\\\'ul.web2py-menu\\\').superfish({delay:400});});\\n    </script>\\n   </div>\\n   <!-- end #menu -->\\n  </div>\\n  <!-- end #header -->\\n  <div id="page">\\n   <div id="content">\\n    <div class="flash">\', escape=False)\nresponse.write(response.flash or \'\')\nresponse.write(\'</div>\\n    \', escape=False)\nresponse.write(\'\\n\', escape=False)\nresponse.write(\'\\r\\n\\r\\n<div class="view_notes">\\r\\n\\t<h3>Notes</h3>\\r\\n\\t\', escape=False)\nresponse.write(ride.comments)\nresponse.write(\'\\r\\n\\t<br>\\r\\n</div>\\r\\n<h3>Ride Details</h3>\\r\\n<font face= "arial" size="4">\\r\\n<ul>\\r\\n    <li>Destination: \', escape=False)\nresponse.write(ride.destination)\nresponse.write(\'</li>\\r\\n    <li>Meeting Location:   \', escape=False)\nresponse.write(ride.meeting_location)\nresponse.write(\'</li>\\r\\n    <li>Date:   \', escape=False)\nresponse.write(ride.departure_date)\nresponse.write(\'</li>\\r\\n    <li>Departure:   \', escape=False)\nresponse.write(ride.departure_time)\nresponse.write(\'</li>\\r\\n    <li>Price:       \', escape=False)\nresponse.write(ride.price)\nresponse.write(\'</li>\\r\\n    <li>Driver:      \', escape=False)\nresponse.write(A(ride.owner.first_name, " ", ride.owner.last_name, _href=URL(\'view_user\', args=[ride.owner.id])))\nresponse.write(\'</li>\\r\\n    <li>Open Seats:       \', escape=False)\nresponse.write(ride.number_of_seats_open)\nresponse.write(\'</li>\\r\\n</ul>\\r\\n<br><br>\\r\\n<h3>People in this ride:</h3>\\r\\n  <ol>\\r\\n  \', escape=False)\nfor user in ride.riders:\n    response.write(\'\\r\\n      \', escape=False)\n    if(user.id == user_id):\n        response.write(\'\\r\\n  \\t\\t\\t<li>\', escape=False)\n        response.write(A(user.first_name, " ", user.last_name, _href=URL(\'view_user\', args=[user.id])))\n        response.write(\' \\r\\n                <font face= "arial" size="2">\\r\\n                (\', escape=False)\n        response.write(A(\'Leave?\', _href=URL(\'leave_ride\', args=[ride.id])))\n        response.write(\')\\r\\n                </font>\\r\\n            </li>\\r\\n      \', escape=False)\n    elif (user_id == ride.owner.id):\n        response.write(\'\\r\\n  \\t\\t\\t<li>\', escape=False)\n        response.write(A(user.first_name, " ", user.last_name, _href=URL(\'view_user\', args=[user.id])))\n        response.write(\' \\r\\n                <font face= "arial" size="2">\\r\\n                (\', escape=False)\n        response.write(A(\'kick\', _href=URL(\'kick_rider\', args=[user.id, ride.id])))\n        response.write(\')\\r\\n                </font>\\r\\n            </li>\\r\\n      \', escape=False)\n    else:\n        response.write(\'\\r\\n      \\t\\t<li>\', escape=False)\n        response.write(A(user.first_name, " ", user.last_name, _href=URL(\'view_user\', args=[user.id])))\n        response.write(\'</li>\\r\\n      \', escape=False)\n        pass\n    response.write(\'\\r\\n   \', escape=False)\n    pass\nresponse.write(\'\\r\\n</ol>\\r\\n</font>\\r\\n\\r\\n\', escape=False)\nfor user in ride.riders:\n    response.write(\'\\r\\n\\t\', escape=False)\n    if (user.id == user_id):\n        response.write(\'\\r\\n\\t\\t<h2>\', escape=False)\n        response.write((A"Add a comment", _href=URL(\'add_comment\', args=[ride.id])))\n        response.write(\'</h2>\\r\\n\\t\\t\\t\', escape=False)\n        break\n    response.write(\'\\r\\n\', escape=False)\n    pass\nresponse.write(\'\\r\\n\\r\\n\\r\\n<br>\', escape=False)\nresponse.write((A(\'Want to come along? Join this ride!\', _href=URL(\'join_ride\', args=[ride.id]))))\nresponse.write(\'<br>\\r\\n\\r\\n\\r\\n<font face= "arial" size="2">\\r\\n\', escape=False)\nif ride.owner.id == user_id:\n    response.write(\'\\r\\n  \', escape=False)\n    response.write((A(\'Delete this ride\', _href=URL(\'delete\', args=[ride.id]))))\n    response.write(\'\\r\\n  or\\r\\n  \', escape=False)\n    response.write((A(\'Update this ride\', _href=URL(\'update\', args=[ride.id]))))\n    response.write(\'\\r\\n\', escape=False)\n    pass\nresponse.write(\'\\r\\n</font>\\r\\n\', escape=False)\nresponse.write(\'\\n   </div>\\n   <!-- end #content -->\\n   <div id="sidebar">\\n    <div id="sidebar-bgtop">\\n    </div>\\n    <div id="sidebar-content">\\n\\n    </div>\\n    <div id="sidebar-bgbtm">\\n    </div>\\n   </div>\\n   <!-- end #sidebar -->\\n  </div>\\n  <!-- end #page -->\\n  <div id="footer">\\n   <p>\\n    &copy; 2008. All Rights Reserved. Design by\\n    <a href="http://www.freecsstemplates.org/">\\n     Free CSS Templates\\n    </a>\\n    .\\n   </p>\\n  </div>\\n  <!-- end #footer -->\\n </body>\\n</html>\\n\', escape=False)'
p7
sS'snapshot'
p8
(dp9
S'exception'
p10
(dp11
S'__getslice__'
p12
S"<method-wrapper '__getslice__' of exceptions.SyntaxError object>"
p13
sS'text'
p14
S'\'        response.write((A"Add a comment", _href=URL(\\\'add_comment\\\', args=[ride.id])))\\n\''
p15
sS'__str__'
p16
S"<method-wrapper '__str__' of exceptions.SyntaxError object>"
p17
sS'__reduce__'
p18
S'<built-in method __reduce__ of exceptions.SyntaxError object>'
p19
sS'__dict__'
p20
S'{}'
p21
sS'__sizeof__'
p22
S'<built-in method __sizeof__ of exceptions.SyntaxError object>'
p23
sS'__init__'
p24
S"<method-wrapper '__init__' of exceptions.SyntaxError object>"
p25
sS'__setattr__'
p26
S"<method-wrapper '__setattr__' of exceptions.SyntaxError object>"
p27
sS'__reduce_ex__'
p28
S'<built-in method __reduce_ex__ of exceptions.SyntaxError object>'
p29
sS'__new__'
p30
S'<built-in method __new__ of type object>'
p31
sS'__format__'
p32
S'<built-in method __format__ of exceptions.SyntaxError object>'
p33
sS'__class__'
p34
S"<type 'exceptions.SyntaxError'>"
p35
sS'filename'
p36
S"r'C:\\Users\\Owner\\Desktop\\web2py\\applications\\rideshare\\views\\default/view.html'"
p37
sS'lineno'
p38
S'77'
p39
sS'msg'
p40
S"'invalid syntax'"
p41
sS'__doc__'
p42
S"'Invalid syntax.'"
p43
sS'__getitem__'
p44
S"<method-wrapper '__getitem__' of exceptions.SyntaxError object>"
p45
sS'__setstate__'
p46
S'<built-in method __setstate__ of exceptions.SyntaxError object>'
p47
sS'__getattribute__'
p48
S"<method-wrapper '__getattribute__' of exceptions.SyntaxError object>"
p49
sS'print_file_and_line'
p50
S'None'
p51
sS'args'
p52
S'(\'invalid syntax\', (r\'C:\\Users\\Owner\\Desktop\\web2py\\applications\\rideshare\\views\\default/view.html\', 77, 40, \'        response.write((A"Add a comment", _href=URL(\\\'add_comment\\\', args=[ride.id])))\\n\'))'
p53
sS'__subclasshook__'
p54
S'<built-in method __subclasshook__ of type object>'
p55
sS'offset'
p56
S'40'
p57
sS'__unicode__'
p58
S'<built-in method __unicode__ of exceptions.SyntaxError object>'
p59
sS'__delattr__'
p60
S"<method-wrapper '__delattr__' of exceptions.SyntaxError object>"
p61
sS'__repr__'
p62
S"<method-wrapper '__repr__' of exceptions.SyntaxError object>"
p63
sS'__hash__'
p64
S"<method-wrapper '__hash__' of exceptions.SyntaxError object>"
p65
ssS'evalue'
p66
S'invalid syntax (default/view.html, line 77)'
p67
sS'request'
p68
ccopy_reg
_reconstructor
p69
(cgluon.html
BEAUTIFY
p70
c__builtin__
object
p71
NtRp72
(dp73
S'attributes'
p74
(dp75
sS'components'
p76
(lp77
g69
(cgluon.html
TABLE
p78
g71
NtRp79
(dp80
g74
(dp81
S'level'
p82
I5
ssS'parent'
p83
Nsg76
(lp84
g69
(cgluon.html
TR
p85
g71
NtRp86
(dp87
g74
(dp88
sg83
g79
sg76
(lp89
g69
(cgluon.html
TD
p90
g71
NtRp91
(dp92
g74
(dp93
S'_style'
p94
S'font-weight:bold;vertical-align:top'
p95
ssg83
g86
sg76
(lp96
S'ajax'
p97
asbag69
(g90
g71
NtRp98
(dp99
g74
(dp100
S'_valign'
p101
S'top'
p102
ssg83
g86
sg76
(lp103
S':'
asbag69
(g90
g71
NtRp104
(dp105
g74
(dp106
sg83
g86
sg76
(lp107
g69
(g70
g71
NtRp108
(dp109
g74
(dp110
g82
I5
ssg83
g104
sg76
(lp111
S'False'
p112
asbasbasbag69
(g85
g71
NtRp113
(dp114
g74
(dp115
sg83
g79
sg76
(lp116
g69
(g90
g71
NtRp117
(dp118
g74
(dp119
g94
g95
ssg83
g113
sg76
(lp120
S'application'
p121
asbag69
(g90
g71
NtRp122
(dp123
g74
(dp124
g101
g102
ssg83
g113
sg76
(lp125
S':'
asbag69
(g90
g71
NtRp126
(dp127
g74
(dp128
sg83
g113
sg76
(lp129
g69
(g70
g71
NtRp130
(dp131
g74
(dp132
g82
I5
ssg83
g126
sg76
(lp133
S'rideshare'
p134
asbasbasbag69
(g85
g71
NtRp135
(dp136
g74
(dp137
sg83
g79
sg76
(lp138
g69
(g90
g71
NtRp139
(dp140
g74
(dp141
g94
g95
ssg83
g135
sg76
(lp142
g52
asbag69
(g90
g71
NtRp143
(dp144
g74
(dp145
g101
g102
ssg83
g135
sg76
(lp146
S':'
asbag69
(g90
g71
NtRp147
(dp148
g74
(dp149
sg83
g135
sg76
(lp150
g69
(g70
g71
NtRp151
(dp152
g74
(dp153
g82
I5
ssg83
g147
sg76
(lp154
g69
(g78
g71
NtRp155
(dp156
g74
(dp157
g82
I4
ssg83
Nsg76
(lp158
g69
(g85
g71
NtRp159
(dp160
g74
(dp161
sg83
g155
sg76
(lp162
g69
(g90
g71
NtRp163
(dp164
g74
(dp165
sg83
g159
sg76
(lp166
g69
(g70
g71
NtRp167
(dp168
g74
(dp169
g82
I4
ssg83
g163
sg76
(lp170
S'2'
asbasbasbasbasbasbasbag69
(g85
g71
NtRp171
(dp172
g74
(dp173
sg83
g79
sg76
(lp174
g69
(g90
g71
NtRp175
(dp176
g74
(dp177
g94
g95
ssg83
g171
sg76
(lp178
S'body'
p179
asbag69
(g90
g71
NtRp180
(dp181
g74
(dp182
g101
g102
ssg83
g171
sg76
(lp183
S':'
asbag69
(g90
g71
NtRp184
(dp185
g74
(dp186
sg83
g171
sg76
(lp187
g69
(g70
g71
NtRp188
(dp189
g74
(dp190
g82
I5
ssg83
g184
sg76
(lp191
S'<cStringIO.StringO object at 0x07235660>'
p192
asbasbasbag69
(g85
g71
NtRp193
(dp194
g74
(dp195
sg83
g79
sg76
(lp196
g69
(g90
g71
NtRp197
(dp198
g74
(dp199
g94
g95
ssg83
g193
sg76
(lp200
S'cid'
p201
asbag69
(g90
g71
NtRp202
(dp203
g74
(dp204
g101
g102
ssg83
g193
sg76
(lp205
S':'
asbag69
(g90
g71
NtRp206
(dp207
g74
(dp208
sg83
g193
sg76
(lp209
g69
(g70
g71
NtRp210
(dp211
g74
(dp212
g82
I5
ssg83
g206
sg76
(lp213
S'None'
p214
asbasbasbag69
(g85
g71
NtRp215
(dp216
g74
(dp217
sg83
g79
sg76
(lp218
g69
(g90
g71
NtRp219
(dp220
g74
(dp221
g94
g95
ssg83
g215
sg76
(lp222
S'client'
p223
asbag69
(g90
g71
NtRp224
(dp225
g74
(dp226
g101
g102
ssg83
g215
sg76
(lp227
S':'
asbag69
(g90
g71
NtRp228
(dp229
g74
(dp230
sg83
g215
sg76
(lp231
g69
(g70
g71
NtRp232
(dp233
g74
(dp234
g82
I5
ssg83
g228
sg76
(lp235
S'127.0.0.1'
p236
asbasbasbag69
(g85
g71
NtRp237
(dp238
g74
(dp239
sg83
g79
sg76
(lp240
g69
(g90
g71
NtRp241
(dp242
g74
(dp243
g94
g95
ssg83
g237
sg76
(lp244
S'controller'
p245
asbag69
(g90
g71
NtRp246
(dp247
g74
(dp248
g101
g102
ssg83
g237
sg76
(lp249
S':'
asbag69
(g90
g71
NtRp250
(dp251
g74
(dp252
sg83
g237
sg76
(lp253
g69
(g70
g71
NtRp254
(dp255
g74
(dp256
g82
I5
ssg83
g250
sg76
(lp257
S'default'
p258
asbasbasbag69
(g85
g71
NtRp259
(dp260
g74
(dp261
sg83
g79
sg76
(lp262
g69
(g90
g71
NtRp263
(dp264
g74
(dp265
g94
g95
ssg83
g259
sg76
(lp266
S'cookies'
p267
asbag69
(g90
g71
NtRp268
(dp269
g74
(dp270
g101
g102
ssg83
g259
sg76
(lp271
S':'
asbag69
(g90
g71
NtRp272
(dp273
g74
(dp274
sg83
g259
sg76
(lp275
g69
(g70
g71
NtRp276
(dp277
g74
(dp278
g82
I5
ssg83
g272
sg76
(lp279
g69
(g78
g71
NtRp280
(dp281
g74
(dp282
g82
I4
ssg83
Nsg76
(lp283
g69
(g85
g71
NtRp284
(dp285
g74
(dp286
sg83
g280
sg76
(lp287
g69
(g90
g71
NtRp288
(dp289
g74
(dp290
g94
g95
ssg83
g284
sg76
(lp291
S'session_id_admin'
p292
asbag69
(g90
g71
NtRp293
(dp294
g74
(dp295
g101
g102
ssg83
g284
sg76
(lp296
S':'
asbag69
(g90
g71
NtRp297
(dp298
g74
(dp299
sg83
g284
sg76
(lp300
g69
(g70
g71
NtRp301
(dp302
g74
(dp303
g82
I4
ssg83
g297
sg76
(lp304
S'127.0.0.1-4f70e2b1-5bb0-4ebf-987e-4f2631c11c02'
p305
ag69
(g78
g71
NtRp306
(dp307
g74
(dp308
g82
I3
ssg83
Nsg76
(lp309
g69
(g85
g71
NtRp310
(dp311
g74
(dp312
sg83
g306
sg76
(lp313
g69
(g90
g71
NtRp314
(dp315
g74
(dp316
g94
g95
ssg83
g310
sg76
(lp317
S'comment'
p318
asbag69
(g90
g71
NtRp319
(dp320
g74
(dp321
g101
g102
ssg83
g310
sg76
(lp322
S':'
asbag69
(g90
g71
NtRp323
(dp324
g74
(dp325
sg83
g310
sg76
(lp326
g69
(g70
g71
NtRp327
(dp328
g74
(dp329
g82
I3
ssg83
g323
sg76
(lp330
S''
asbasbasbag69
(g85
g71
NtRp331
(dp332
g74
(dp333
sg83
g306
sg76
(lp334
g69
(g90
g71
NtRp335
(dp336
g74
(dp337
g94
g95
ssg83
g331
sg76
(lp338
S'domain'
p339
asbag69
(g90
g71
NtRp340
(dp341
g74
(dp342
g101
g102
ssg83
g331
sg76
(lp343
S':'
asbag69
(g90
g71
NtRp344
(dp345
g74
(dp346
sg83
g331
sg76
(lp347
g69
(g70
g71
NtRp348
(dp349
g74
(dp350
g82
I3
ssg83
g344
sg76
(lp351
S''
asbasbasbag69
(g85
g71
NtRp352
(dp353
g74
(dp354
sg83
g306
sg76
(lp355
g69
(g90
g71
NtRp356
(dp357
g74
(dp358
g94
g95
ssg83
g352
sg76
(lp359
S'expires'
p360
asbag69
(g90
g71
NtRp361
(dp362
g74
(dp363
g101
g102
ssg83
g352
sg76
(lp364
S':'
asbag69
(g90
g71
NtRp365
(dp366
g74
(dp367
sg83
g352
sg76
(lp368
g69
(g70
g71
NtRp369
(dp370
g74
(dp371
g82
I3
ssg83
g365
sg76
(lp372
S''
asbasbasbag69
(g85
g71
NtRp373
(dp374
g74
(dp375
sg83
g306
sg76
(lp376
g69
(g90
g71
NtRp377
(dp378
g74
(dp379
g94
g95
ssg83
g373
sg76
(lp380
S'httponly'
p381
asbag69
(g90
g71
NtRp382
(dp383
g74
(dp384
g101
g102
ssg83
g373
sg76
(lp385
S':'
asbag69
(g90
g71
NtRp386
(dp387
g74
(dp388
sg83
g373
sg76
(lp389
g69
(g70
g71
NtRp390
(dp391
g74
(dp392
g82
I3
ssg83
g386
sg76
(lp393
S''
asbasbasbag69
(g85
g71
NtRp394
(dp395
g74
(dp396
sg83
g306
sg76
(lp397
g69
(g90
g71
NtRp398
(dp399
g74
(dp400
g94
g95
ssg83
g394
sg76
(lp401
S'max-age'
p402
asbag69
(g90
g71
NtRp403
(dp404
g74
(dp405
g101
g102
ssg83
g394
sg76
(lp406
S':'
asbag69
(g90
g71
NtRp407
(dp408
g74
(dp409
sg83
g394
sg76
(lp410
g69
(g70
g71
NtRp411
(dp412
g74
(dp413
g82
I3
ssg83
g407
sg76
(lp414
S''
asbasbasbag69
(g85
g71
NtRp415
(dp416
g74
(dp417
sg83
g306
sg76
(lp418
g69
(g90
g71
NtRp419
(dp420
g74
(dp421
g94
g95
ssg83
g415
sg76
(lp422
S'path'
p423
asbag69
(g90
g71
NtRp424
(dp425
g74
(dp426
g101
g102
ssg83
g415
sg76
(lp427
S':'
asbag69
(g90
g71
NtRp428
(dp429
g74
(dp430
sg83
g415
sg76
(lp431
g69
(g70
g71
NtRp432
(dp433
g74
(dp434
g82
I3
ssg83
g428
sg76
(lp435
S''
asbasbasbag69
(g85
g71
NtRp436
(dp437
g74
(dp438
sg83
g306
sg76
(lp439
g69
(g90
g71
NtRp440
(dp441
g74
(dp442
g94
g95
ssg83
g436
sg76
(lp443
S'secure'
p444
asbag69
(g90
g71
NtRp445
(dp446
g74
(dp447
g101
g102
ssg83
g436
sg76
(lp448
S':'
asbag69
(g90
g71
NtRp449
(dp450
g74
(dp451
sg83
g436
sg76
(lp452
g69
(g70
g71
NtRp453
(dp454
g74
(dp455
g82
I3
ssg83
g449
sg76
(lp456
S''
asbasbasbag69
(g85
g71
NtRp457
(dp458
g74
(dp459
sg83
g306
sg76
(lp460
g69
(g90
g71
NtRp461
(dp462
g74
(dp463
g94
g95
ssg83
g457
sg76
(lp464
S'version'
p465
asbag69
(g90
g71
NtRp466
(dp467
g74
(dp468
g101
g102
ssg83
g457
sg76
(lp469
S':'
asbag69
(g90
g71
NtRp470
(dp471
g74
(dp472
sg83
g457
sg76
(lp473
g69
(g70
g71
NtRp474
(dp475
g74
(dp476
g82
I3
ssg83
g470
sg76
(lp477
S''
asbasbasbasbasbasbasbag69
(g85
g71
NtRp478
(dp479
g74
(dp480
sg83
g280
sg76
(lp481
g69
(g90
g71
NtRp482
(dp483
g74
(dp484
g94
g95
ssg83
g478
sg76
(lp485
S'session_id_fresh_light'
p486
asbag69
(g90
g71
NtRp487
(dp488
g74
(dp489
g101
g102
ssg83
g478
sg76
(lp490
S':'
asbag69
(g90
g71
NtRp491
(dp492
g74
(dp493
sg83
g478
sg76
(lp494
g69
(g70
g71
NtRp495
(dp496
g74
(dp497
g82
I4
ssg83
g491
sg76
(lp498
S'127.0.0.1-abdb80ae-e769-4c7f-b431-193578ef9ec6'
p499
ag69
(g78
g71
NtRp500
(dp501
g74
(dp502
g82
I3
ssg83
Nsg76
(lp503
g69
(g85
g71
NtRp504
(dp505
g74
(dp506
sg83
g500
sg76
(lp507
g69
(g90
g71
NtRp508
(dp509
g74
(dp510
g94
g95
ssg83
g504
sg76
(lp511
g318
asbag69
(g90
g71
NtRp512
(dp513
g74
(dp514
g101
g102
ssg83
g504
sg76
(lp515
S':'
asbag69
(g90
g71
NtRp516
(dp517
g74
(dp518
sg83
g504
sg76
(lp519
g69
(g70
g71
NtRp520
(dp521
g74
(dp522
g82
I3
ssg83
g516
sg76
(lp523
S''
asbasbasbag69
(g85
g71
NtRp524
(dp525
g74
(dp526
sg83
g500
sg76
(lp527
g69
(g90
g71
NtRp528
(dp529
g74
(dp530
g94
g95
ssg83
g524
sg76
(lp531
g339
asbag69
(g90
g71
NtRp532
(dp533
g74
(dp534
g101
g102
ssg83
g524
sg76
(lp535
S':'
asbag69
(g90
g71
NtRp536
(dp537
g74
(dp538
sg83
g524
sg76
(lp539
g69
(g70
g71
NtRp540
(dp541
g74
(dp542
g82
I3
ssg83
g536
sg76
(lp543
S''
asbasbasbag69
(g85
g71
NtRp544
(dp545
g74
(dp546
sg83
g500
sg76
(lp547
g69
(g90
g71
NtRp548
(dp549
g74
(dp550
g94
g95
ssg83
g544
sg76
(lp551
g360
asbag69
(g90
g71
NtRp552
(dp553
g74
(dp554
g101
g102
ssg83
g544
sg76
(lp555
S':'
asbag69
(g90
g71
NtRp556
(dp557
g74
(dp558
sg83
g544
sg76
(lp559
g69
(g70
g71
NtRp560
(dp561
g74
(dp562
g82
I3
ssg83
g556
sg76
(lp563
S''
asbasbasbag69
(g85
g71
NtRp564
(dp565
g74
(dp566
sg83
g500
sg76
(lp567
g69
(g90
g71
NtRp568
(dp569
g74
(dp570
g94
g95
ssg83
g564
sg76
(lp571
g381
asbag69
(g90
g71
NtRp572
(dp573
g74
(dp574
g101
g102
ssg83
g564
sg76
(lp575
S':'
asbag69
(g90
g71
NtRp576
(dp577
g74
(dp578
sg83
g564
sg76
(lp579
g69
(g70
g71
NtRp580
(dp581
g74
(dp582
g82
I3
ssg83
g576
sg76
(lp583
S''
asbasbasbag69
(g85
g71
NtRp584
(dp585
g74
(dp586
sg83
g500
sg76
(lp587
g69
(g90
g71
NtRp588
(dp589
g74
(dp590
g94
g95
ssg83
g584
sg76
(lp591
g402
asbag69
(g90
g71
NtRp592
(dp593
g74
(dp594
g101
g102
ssg83
g584
sg76
(lp595
S':'
asbag69
(g90
g71
NtRp596
(dp597
g74
(dp598
sg83
g584
sg76
(lp599
g69
(g70
g71
NtRp600
(dp601
g74
(dp602
g82
I3
ssg83
g596
sg76
(lp603
S''
asbasbasbag69
(g85
g71
NtRp604
(dp605
g74
(dp606
sg83
g500
sg76
(lp607
g69
(g90
g71
NtRp608
(dp609
g74
(dp610
g94
g95
ssg83
g604
sg76
(lp611
g423
asbag69
(g90
g71
NtRp612
(dp613
g74
(dp614
g101
g102
ssg83
g604
sg76
(lp615
S':'
asbag69
(g90
g71
NtRp616
(dp617
g74
(dp618
sg83
g604
sg76
(lp619
g69
(g70
g71
NtRp620
(dp621
g74
(dp622
g82
I3
ssg83
g616
sg76
(lp623
S''
asbasbasbag69
(g85
g71
NtRp624
(dp625
g74
(dp626
sg83
g500
sg76
(lp627
g69
(g90
g71
NtRp628
(dp629
g74
(dp630
g94
g95
ssg83
g624
sg76
(lp631
g444
asbag69
(g90
g71
NtRp632
(dp633
g74
(dp634
g101
g102
ssg83
g624
sg76
(lp635
S':'
asbag69
(g90
g71
NtRp636
(dp637
g74
(dp638
sg83
g624
sg76
(lp639
g69
(g70
g71
NtRp640
(dp641
g74
(dp642
g82
I3
ssg83
g636
sg76
(lp643
S''
asbasbasbag69
(g85
g71
NtRp644
(dp645
g74
(dp646
sg83
g500
sg76
(lp647
g69
(g90
g71
NtRp648
(dp649
g74
(dp650
g94
g95
ssg83
g644
sg76
(lp651
g465
asbag69
(g90
g71
NtRp652
(dp653
g74
(dp654
g101
g102
ssg83
g644
sg76
(lp655
S':'
asbag69
(g90
g71
NtRp656
(dp657
g74
(dp658
sg83
g644
sg76
(lp659
g69
(g70
g71
NtRp660
(dp661
g74
(dp662
g82
I3
ssg83
g656
sg76
(lp663
S''
asbasbasbasbasbasbasbag69
(g85
g71
NtRp664
(dp665
g74
(dp666
sg83
g280
sg76
(lp667
g69
(g90
g71
NtRp668
(dp669
g74
(dp670
g94
g95
ssg83
g664
sg76
(lp671
S'session_id_rideshare'
p672
asbag69
(g90
g71
NtRp673
(dp674
g74
(dp675
g101
g102
ssg83
g664
sg76
(lp676
S':'
asbag69
(g90
g71
NtRp677
(dp678
g74
(dp679
sg83
g664
sg76
(lp680
g69
(g70
g71
NtRp681
(dp682
g74
(dp683
g82
I4
ssg83
g677
sg76
(lp684
S'127.0.0.1-76981bb4-a11c-4445-975f-4668a2e996ed'
p685
ag69
(g78
g71
NtRp686
(dp687
g74
(dp688
g82
I3
ssg83
Nsg76
(lp689
g69
(g85
g71
NtRp690
(dp691
g74
(dp692
sg83
g686
sg76
(lp693
g69
(g90
g71
NtRp694
(dp695
g74
(dp696
g94
g95
ssg83
g690
sg76
(lp697
g318
asbag69
(g90
g71
NtRp698
(dp699
g74
(dp700
g101
g102
ssg83
g690
sg76
(lp701
S':'
asbag69
(g90
g71
NtRp702
(dp703
g74
(dp704
sg83
g690
sg76
(lp705
g69
(g70
g71
NtRp706
(dp707
g74
(dp708
g82
I3
ssg83
g702
sg76
(lp709
S''
asbasbasbag69
(g85
g71
NtRp710
(dp711
g74
(dp712
sg83
g686
sg76
(lp713
g69
(g90
g71
NtRp714
(dp715
g74
(dp716
g94
g95
ssg83
g710
sg76
(lp717
g339
asbag69
(g90
g71
NtRp718
(dp719
g74
(dp720
g101
g102
ssg83
g710
sg76
(lp721
S':'
asbag69
(g90
g71
NtRp722
(dp723
g74
(dp724
sg83
g710
sg76
(lp725
g69
(g70
g71
NtRp726
(dp727
g74
(dp728
g82
I3
ssg83
g722
sg76
(lp729
S''
asbasbasbag69
(g85
g71
NtRp730
(dp731
g74
(dp732
sg83
g686
sg76
(lp733
g69
(g90
g71
NtRp734
(dp735
g74
(dp736
g94
g95
ssg83
g730
sg76
(lp737
g360
asbag69
(g90
g71
NtRp738
(dp739
g74
(dp740
g101
g102
ssg83
g730
sg76
(lp741
S':'
asbag69
(g90
g71
NtRp742
(dp743
g74
(dp744
sg83
g730
sg76
(lp745
g69
(g70
g71
NtRp746
(dp747
g74
(dp748
g82
I3
ssg83
g742
sg76
(lp749
S''
asbasbasbag69
(g85
g71
NtRp750
(dp751
g74
(dp752
sg83
g686
sg76
(lp753
g69
(g90
g71
NtRp754
(dp755
g74
(dp756
g94
g95
ssg83
g750
sg76
(lp757
g381
asbag69
(g90
g71
NtRp758
(dp759
g74
(dp760
g101
g102
ssg83
g750
sg76
(lp761
S':'
asbag69
(g90
g71
NtRp762
(dp763
g74
(dp764
sg83
g750
sg76
(lp765
g69
(g70
g71
NtRp766
(dp767
g74
(dp768
g82
I3
ssg83
g762
sg76
(lp769
S''
asbasbasbag69
(g85
g71
NtRp770
(dp771
g74
(dp772
sg83
g686
sg76
(lp773
g69
(g90
g71
NtRp774
(dp775
g74
(dp776
g94
g95
ssg83
g770
sg76
(lp777
g402
asbag69
(g90
g71
NtRp778
(dp779
g74
(dp780
g101
g102
ssg83
g770
sg76
(lp781
S':'
asbag69
(g90
g71
NtRp782
(dp783
g74
(dp784
sg83
g770
sg76
(lp785
g69
(g70
g71
NtRp786
(dp787
g74
(dp788
g82
I3
ssg83
g782
sg76
(lp789
S''
asbasbasbag69
(g85
g71
NtRp790
(dp791
g74
(dp792
sg83
g686
sg76
(lp793
g69
(g90
g71
NtRp794
(dp795
g74
(dp796
g94
g95
ssg83
g790
sg76
(lp797
g423
asbag69
(g90
g71
NtRp798
(dp799
g74
(dp800
g101
g102
ssg83
g790
sg76
(lp801
S':'
asbag69
(g90
g71
NtRp802
(dp803
g74
(dp804
sg83
g790
sg76
(lp805
g69
(g70
g71
NtRp806
(dp807
g74
(dp808
g82
I3
ssg83
g802
sg76
(lp809
S''
asbasbasbag69
(g85
g71
NtRp810
(dp811
g74
(dp812
sg83
g686
sg76
(lp813
g69
(g90
g71
NtRp814
(dp815
g74
(dp816
g94
g95
ssg83
g810
sg76
(lp817
g444
asbag69
(g90
g71
NtRp818
(dp819
g74
(dp820
g101
g102
ssg83
g810
sg76
(lp821
S':'
asbag69
(g90
g71
NtRp822
(dp823
g74
(dp824
sg83
g810
sg76
(lp825
g69
(g70
g71
NtRp826
(dp827
g74
(dp828
g82
I3
ssg83
g822
sg76
(lp829
S''
asbasbasbag69
(g85
g71
NtRp830
(dp831
g74
(dp832
sg83
g686
sg76
(lp833
g69
(g90
g71
NtRp834
(dp835
g74
(dp836
g94
g95
ssg83
g830
sg76
(lp837
g465
asbag69
(g90
g71
NtRp838
(dp839
g74
(dp840
g101
g102
ssg83
g830
sg76
(lp841
S':'
asbag69
(g90
g71
NtRp842
(dp843
g74
(dp844
sg83
g830
sg76
(lp845
g69
(g70
g71
NtRp846
(dp847
g74
(dp848
g82
I3
ssg83
g842
sg76
(lp849
S''
asbasbasbasbasbasbasbag69
(g85
g71
NtRp850
(dp851
g74
(dp852
sg83
g280
sg76
(lp853
g69
(g90
g71
NtRp854
(dp855
g74
(dp856
g94
g95
ssg83
g850
sg76
(lp857
S'session_id_ridesharetest'
p858
asbag69
(g90
g71
NtRp859
(dp860
g74
(dp861
g101
g102
ssg83
g850
sg76
(lp862
S':'
asbag69
(g90
g71
NtRp863
(dp864
g74
(dp865
sg83
g850
sg76
(lp866
g69
(g70
g71
NtRp867
(dp868
g74
(dp869
g82
I4
ssg83
g863
sg76
(lp870
S'127.0.0.1-1b82f8e9-8437-46f1-a88e-d1a82c8a726d'
p871
ag69
(g78
g71
NtRp872
(dp873
g74
(dp874
g82
I3
ssg83
Nsg76
(lp875
g69
(g85
g71
NtRp876
(dp877
g74
(dp878
sg83
g872
sg76
(lp879
g69
(g90
g71
NtRp880
(dp881
g74
(dp882
g94
g95
ssg83
g876
sg76
(lp883
g318
asbag69
(g90
g71
NtRp884
(dp885
g74
(dp886
g101
g102
ssg83
g876
sg76
(lp887
S':'
asbag69
(g90
g71
NtRp888
(dp889
g74
(dp890
sg83
g876
sg76
(lp891
g69
(g70
g71
NtRp892
(dp893
g74
(dp894
g82
I3
ssg83
g888
sg76
(lp895
S''
asbasbasbag69
(g85
g71
NtRp896
(dp897
g74
(dp898
sg83
g872
sg76
(lp899
g69
(g90
g71
NtRp900
(dp901
g74
(dp902
g94
g95
ssg83
g896
sg76
(lp903
g339
asbag69
(g90
g71
NtRp904
(dp905
g74
(dp906
g101
g102
ssg83
g896
sg76
(lp907
S':'
asbag69
(g90
g71
NtRp908
(dp909
g74
(dp910
sg83
g896
sg76
(lp911
g69
(g70
g71
NtRp912
(dp913
g74
(dp914
g82
I3
ssg83
g908
sg76
(lp915
S''
asbasbasbag69
(g85
g71
NtRp916
(dp917
g74
(dp918
sg83
g872
sg76
(lp919
g69
(g90
g71
NtRp920
(dp921
g74
(dp922
g94
g95
ssg83
g916
sg76
(lp923
g360
asbag69
(g90
g71
NtRp924
(dp925
g74
(dp926
g101
g102
ssg83
g916
sg76
(lp927
S':'
asbag69
(g90
g71
NtRp928
(dp929
g74
(dp930
sg83
g916
sg76
(lp931
g69
(g70
g71
NtRp932
(dp933
g74
(dp934
g82
I3
ssg83
g928
sg76
(lp935
S''
asbasbasbag69
(g85
g71
NtRp936
(dp937
g74
(dp938
sg83
g872
sg76
(lp939
g69
(g90
g71
NtRp940
(dp941
g74
(dp942
g94
g95
ssg83
g936
sg76
(lp943
g381
asbag69
(g90
g71
NtRp944
(dp945
g74
(dp946
g101
g102
ssg83
g936
sg76
(lp947
S':'
asbag69
(g90
g71
NtRp948
(dp949
g74
(dp950
sg83
g936
sg76
(lp951
g69
(g70
g71
NtRp952
(dp953
g74
(dp954
g82
I3
ssg83
g948
sg76
(lp955
S''
asbasbasbag69
(g85
g71
NtRp956
(dp957
g74
(dp958
sg83
g872
sg76
(lp959
g69
(g90
g71
NtRp960
(dp961
g74
(dp962
g94
g95
ssg83
g956
sg76
(lp963
g402
asbag69
(g90
g71
NtRp964
(dp965
g74
(dp966
g101
g102
ssg83
g956
sg76
(lp967
S':'
asbag69
(g90
g71
NtRp968
(dp969
g74
(dp970
sg83
g956
sg76
(lp971
g69
(g70
g71
NtRp972
(dp973
g74
(dp974
g82
I3
ssg83
g968
sg76
(lp975
S''
asbasbasbag69
(g85
g71
NtRp976
(dp977
g74
(dp978
sg83
g872
sg76
(lp979
g69
(g90
g71
NtRp980
(dp981
g74
(dp982
g94
g95
ssg83
g976
sg76
(lp983
g423
asbag69
(g90
g71
NtRp984
(dp985
g74
(dp986
g101
g102
ssg83
g976
sg76
(lp987
S':'
asbag69
(g90
g71
NtRp988
(dp989
g74
(dp990
sg83
g976
sg76
(lp991
g69
(g70
g71
NtRp992
(dp993
g74
(dp994
g82
I3
ssg83
g988
sg76
(lp995
S''
asbasbasbag69
(g85
g71
NtRp996
(dp997
g74
(dp998
sg83
g872
sg76
(lp999
g69
(g90
g71
NtRp1000
(dp1001
g74
(dp1002
g94
g95
ssg83
g996
sg76
(lp1003
g444
asbag69
(g90
g71
NtRp1004
(dp1005
g74
(dp1006
g101
g102
ssg83
g996
sg76
(lp1007
S':'
asbag69
(g90
g71
NtRp1008
(dp1009
g74
(dp1010
sg83
g996
sg76
(lp1011
g69
(g70
g71
NtRp1012
(dp1013
g74
(dp1014
g82
I3
ssg83
g1008
sg76
(lp1015
S''
asbasbasbag69
(g85
g71
NtRp1016
(dp1017
g74
(dp1018
sg83
g872
sg76
(lp1019
g69
(g90
g71
NtRp1020
(dp1021
g74
(dp1022
g94
g95
ssg83
g1016
sg76
(lp1023
g465
asbag69
(g90
g71
NtRp1024
(dp1025
g74
(dp1026
g101
g102
ssg83
g1016
sg76
(lp1027
S':'
asbag69
(g90
g71
NtRp1028
(dp1029
g74
(dp1030
sg83
g1016
sg76
(lp1031
g69
(g70
g71
NtRp1032
(dp1033
g74
(dp1034
g82
I3
ssg83
g1028
sg76
(lp1035
S''
asbasbasbasbasbasbasbag69
(g85
g71
NtRp1036
(dp1037
g74
(dp1038
sg83
g280
sg76
(lp1039
g69
(g90
g71
NtRp1040
(dp1041
g74
(dp1042
g94
g95
ssg83
g1036
sg76
(lp1043
S'session_id_rsharetest'
p1044
asbag69
(g90
g71
NtRp1045
(dp1046
g74
(dp1047
g101
g102
ssg83
g1036
sg76
(lp1048
S':'
asbag69
(g90
g71
NtRp1049
(dp1050
g74
(dp1051
sg83
g1036
sg76
(lp1052
g69
(g70
g71
NtRp1053
(dp1054
g74
(dp1055
g82
I4
ssg83
g1049
sg76
(lp1056
S'127.0.0.1-17db44d3-6c70-47f0-9d72-ece020d9a50a'
p1057
ag69
(g78
g71
NtRp1058
(dp1059
g74
(dp1060
g82
I3
ssg83
Nsg76
(lp1061
g69
(g85
g71
NtRp1062
(dp1063
g74
(dp1064
sg83
g1058
sg76
(lp1065
g69
(g90
g71
NtRp1066
(dp1067
g74
(dp1068
g94
g95
ssg83
g1062
sg76
(lp1069
g318
asbag69
(g90
g71
NtRp1070
(dp1071
g74
(dp1072
g101
g102
ssg83
g1062
sg76
(lp1073
S':'
asbag69
(g90
g71
NtRp1074
(dp1075
g74
(dp1076
sg83
g1062
sg76
(lp1077
g69
(g70
g71
NtRp1078
(dp1079
g74
(dp1080
g82
I3
ssg83
g1074
sg76
(lp1081
S''
asbasbasbag69
(g85
g71
NtRp1082
(dp1083
g74
(dp1084
sg83
g1058
sg76
(lp1085
g69
(g90
g71
NtRp1086
(dp1087
g74
(dp1088
g94
g95
ssg83
g1082
sg76
(lp1089
g339
asbag69
(g90
g71
NtRp1090
(dp1091
g74
(dp1092
g101
g102
ssg83
g1082
sg76
(lp1093
S':'
asbag69
(g90
g71
NtRp1094
(dp1095
g74
(dp1096
sg83
g1082
sg76
(lp1097
g69
(g70
g71
NtRp1098
(dp1099
g74
(dp1100
g82
I3
ssg83
g1094
sg76
(lp1101
S''
asbasbasbag69
(g85
g71
NtRp1102
(dp1103
g74
(dp1104
sg83
g1058
sg76
(lp1105
g69
(g90
g71
NtRp1106
(dp1107
g74
(dp1108
g94
g95
ssg83
g1102
sg76
(lp1109
g360
asbag69
(g90
g71
NtRp1110
(dp1111
g74
(dp1112
g101
g102
ssg83
g1102
sg76
(lp1113
S':'
asbag69
(g90
g71
NtRp1114
(dp1115
g74
(dp1116
sg83
g1102
sg76
(lp1117
g69
(g70
g71
NtRp1118
(dp1119
g74
(dp1120
g82
I3
ssg83
g1114
sg76
(lp1121
S''
asbasbasbag69
(g85
g71
NtRp1122
(dp1123
g74
(dp1124
sg83
g1058
sg76
(lp1125
g69
(g90
g71
NtRp1126
(dp1127
g74
(dp1128
g94
g95
ssg83
g1122
sg76
(lp1129
g381
asbag69
(g90
g71
NtRp1130
(dp1131
g74
(dp1132
g101
g102
ssg83
g1122
sg76
(lp1133
S':'
asbag69
(g90
g71
NtRp1134
(dp1135
g74
(dp1136
sg83
g1122
sg76
(lp1137
g69
(g70
g71
NtRp1138
(dp1139
g74
(dp1140
g82
I3
ssg83
g1134
sg76
(lp1141
S''
asbasbasbag69
(g85
g71
NtRp1142
(dp1143
g74
(dp1144
sg83
g1058
sg76
(lp1145
g69
(g90
g71
NtRp1146
(dp1147
g74
(dp1148
g94
g95
ssg83
g1142
sg76
(lp1149
g402
asbag69
(g90
g71
NtRp1150
(dp1151
g74
(dp1152
g101
g102
ssg83
g1142
sg76
(lp1153
S':'
asbag69
(g90
g71
NtRp1154
(dp1155
g74
(dp1156
sg83
g1142
sg76
(lp1157
g69
(g70
g71
NtRp1158
(dp1159
g74
(dp1160
g82
I3
ssg83
g1154
sg76
(lp1161
S''
asbasbasbag69
(g85
g71
NtRp1162
(dp1163
g74
(dp1164
sg83
g1058
sg76
(lp1165
g69
(g90
g71
NtRp1166
(dp1167
g74
(dp1168
g94
g95
ssg83
g1162
sg76
(lp1169
g423
asbag69
(g90
g71
NtRp1170
(dp1171
g74
(dp1172
g101
g102
ssg83
g1162
sg76
(lp1173
S':'
asbag69
(g90
g71
NtRp1174
(dp1175
g74
(dp1176
sg83
g1162
sg76
(lp1177
g69
(g70
g71
NtRp1178
(dp1179
g74
(dp1180
g82
I3
ssg83
g1174
sg76
(lp1181
S''
asbasbasbag69
(g85
g71
NtRp1182
(dp1183
g74
(dp1184
sg83
g1058
sg76
(lp1185
g69
(g90
g71
NtRp1186
(dp1187
g74
(dp1188
g94
g95
ssg83
g1182
sg76
(lp1189
g444
asbag69
(g90
g71
NtRp1190
(dp1191
g74
(dp1192
g101
g102
ssg83
g1182
sg76
(lp1193
S':'
asbag69
(g90
g71
NtRp1194
(dp1195
g74
(dp1196
sg83
g1182
sg76
(lp1197
g69
(g70
g71
NtRp1198
(dp1199
g74
(dp1200
g82
I3
ssg83
g1194
sg76
(lp1201
S''
asbasbasbag69
(g85
g71
NtRp1202
(dp1203
g74
(dp1204
sg83
g1058
sg76
(lp1205
g69
(g90
g71
NtRp1206
(dp1207
g74
(dp1208
g94
g95
ssg83
g1202
sg76
(lp1209
g465
asbag69
(g90
g71
NtRp1210
(dp1211
g74
(dp1212
g101
g102
ssg83
g1202
sg76
(lp1213
S':'
asbag69
(g90
g71
NtRp1214
(dp1215
g74
(dp1216
sg83
g1202
sg76
(lp1217
g69
(g70
g71
NtRp1218
(dp1219
g74
(dp1220
g82
I3
ssg83
g1214
sg76
(lp1221
S''
asbasbasbasbasbasbasbag69
(g85
g71
NtRp1222
(dp1223
g74
(dp1224
sg83
g280
sg76
(lp1225
g69
(g90
g71
NtRp1226
(dp1227
g74
(dp1228
g94
g95
ssg83
g1222
sg76
(lp1229
S'session_id_welcome'
p1230
asbag69
(g90
g71
NtRp1231
(dp1232
g74
(dp1233
g101
g102
ssg83
g1222
sg76
(lp1234
S':'
asbag69
(g90
g71
NtRp1235
(dp1236
g74
(dp1237
sg83
g1222
sg76
(lp1238
g69
(g70
g71
NtRp1239
(dp1240
g74
(dp1241
g82
I4
ssg83
g1235
sg76
(lp1242
S'127.0.0.1-e8eea386-4697-4b76-ab09-0a0be6604008'
p1243
ag69
(g78
g71
NtRp1244
(dp1245
g74
(dp1246
g82
I3
ssg83
Nsg76
(lp1247
g69
(g85
g71
NtRp1248
(dp1249
g74
(dp1250
sg83
g1244
sg76
(lp1251
g69
(g90
g71
NtRp1252
(dp1253
g74
(dp1254
g94
g95
ssg83
g1248
sg76
(lp1255
g318
asbag69
(g90
g71
NtRp1256
(dp1257
g74
(dp1258
g101
g102
ssg83
g1248
sg76
(lp1259
S':'
asbag69
(g90
g71
NtRp1260
(dp1261
g74
(dp1262
sg83
g1248
sg76
(lp1263
g69
(g70
g71
NtRp1264
(dp1265
g74
(dp1266
g82
I3
ssg83
g1260
sg76
(lp1267
S''
asbasbasbag69
(g85
g71
NtRp1268
(dp1269
g74
(dp1270
sg83
g1244
sg76
(lp1271
g69
(g90
g71
NtRp1272
(dp1273
g74
(dp1274
g94
g95
ssg83
g1268
sg76
(lp1275
g339
asbag69
(g90
g71
NtRp1276
(dp1277
g74
(dp1278
g101
g102
ssg83
g1268
sg76
(lp1279
S':'
asbag69
(g90
g71
NtRp1280
(dp1281
g74
(dp1282
sg83
g1268
sg76
(lp1283
g69
(g70
g71
NtRp1284
(dp1285
g74
(dp1286
g82
I3
ssg83
g1280
sg76
(lp1287
S''
asbasbasbag69
(g85
g71
NtRp1288
(dp1289
g74
(dp1290
sg83
g1244
sg76
(lp1291
g69
(g90
g71
NtRp1292
(dp1293
g74
(dp1294
g94
g95
ssg83
g1288
sg76
(lp1295
g360
asbag69
(g90
g71
NtRp1296
(dp1297
g74
(dp1298
g101
g102
ssg83
g1288
sg76
(lp1299
S':'
asbag69
(g90
g71
NtRp1300
(dp1301
g74
(dp1302
sg83
g1288
sg76
(lp1303
g69
(g70
g71
NtRp1304
(dp1305
g74
(dp1306
g82
I3
ssg83
g1300
sg76
(lp1307
S''
asbasbasbag69
(g85
g71
NtRp1308
(dp1309
g74
(dp1310
sg83
g1244
sg76
(lp1311
g69
(g90
g71
NtRp1312
(dp1313
g74
(dp1314
g94
g95
ssg83
g1308
sg76
(lp1315
g381
asbag69
(g90
g71
NtRp1316
(dp1317
g74
(dp1318
g101
g102
ssg83
g1308
sg76
(lp1319
S':'
asbag69
(g90
g71
NtRp1320
(dp1321
g74
(dp1322
sg83
g1308
sg76
(lp1323
g69
(g70
g71
NtRp1324
(dp1325
g74
(dp1326
g82
I3
ssg83
g1320
sg76
(lp1327
S''
asbasbasbag69
(g85
g71
NtRp1328
(dp1329
g74
(dp1330
sg83
g1244
sg76
(lp1331
g69
(g90
g71
NtRp1332
(dp1333
g74
(dp1334
g94
g95
ssg83
g1328
sg76
(lp1335
g402
asbag69
(g90
g71
NtRp1336
(dp1337
g74
(dp1338
g101
g102
ssg83
g1328
sg76
(lp1339
S':'
asbag69
(g90
g71
NtRp1340
(dp1341
g74
(dp1342
sg83
g1328
sg76
(lp1343
g69
(g70
g71
NtRp1344
(dp1345
g74
(dp1346
g82
I3
ssg83
g1340
sg76
(lp1347
S''
asbasbasbag69
(g85
g71
NtRp1348
(dp1349
g74
(dp1350
sg83
g1244
sg76
(lp1351
g69
(g90
g71
NtRp1352
(dp1353
g74
(dp1354
g94
g95
ssg83
g1348
sg76
(lp1355
g423
asbag69
(g90
g71
NtRp1356
(dp1357
g74
(dp1358
g101
g102
ssg83
g1348
sg76
(lp1359
S':'
asbag69
(g90
g71
NtRp1360
(dp1361
g74
(dp1362
sg83
g1348
sg76
(lp1363
g69
(g70
g71
NtRp1364
(dp1365
g74
(dp1366
g82
I3
ssg83
g1360
sg76
(lp1367
S''
asbasbasbag69
(g85
g71
NtRp1368
(dp1369
g74
(dp1370
sg83
g1244
sg76
(lp1371
g69
(g90
g71
NtRp1372
(dp1373
g74
(dp1374
g94
g95
ssg83
g1368
sg76
(lp1375
g444
asbag69
(g90
g71
NtRp1376
(dp1377
g74
(dp1378
g101
g102
ssg83
g1368
sg76
(lp1379
S':'
asbag69
(g90
g71
NtRp1380
(dp1381
g74
(dp1382
sg83
g1368
sg76
(lp1383
g69
(g70
g71
NtRp1384
(dp1385
g74
(dp1386
g82
I3
ssg83
g1380
sg76
(lp1387
S''
asbasbasbag69
(g85
g71
NtRp1388
(dp1389
g74
(dp1390
sg83
g1244
sg76
(lp1391
g69
(g90
g71
NtRp1392
(dp1393
g74
(dp1394
g94
g95
ssg83
g1388
sg76
(lp1395
g465
asbag69
(g90
g71
NtRp1396
(dp1397
g74
(dp1398
g101
g102
ssg83
g1388
sg76
(lp1399
S':'
asbag69
(g90
g71
NtRp1400
(dp1401
g74
(dp1402
sg83
g1388
sg76
(lp1403
g69
(g70
g71
NtRp1404
(dp1405
g74
(dp1406
g82
I3
ssg83
g1400
sg76
(lp1407
S''
asbasbasbasbasbasbasbasbasbasbasbag69
(g85
g71
NtRp1408
(dp1409
g74
(dp1410
sg83
g79
sg76
(lp1411
g69
(g90
g71
NtRp1412
(dp1413
g74
(dp1414
g94
g95
ssg83
g1408
sg76
(lp1415
S'env'
p1416
asbag69
(g90
g71
NtRp1417
(dp1418
g74
(dp1419
g101
g102
ssg83
g1408
sg76
(lp1420
S':'
asbag69
(g90
g71
NtRp1421
(dp1422
g74
(dp1423
sg83
g1408
sg76
(lp1424
g69
(g70
g71
NtRp1425
(dp1426
g74
(dp1427
g82
I5
ssg83
g1421
sg76
(lp1428
g69
(g78
g71
NtRp1429
(dp1430
g74
(dp1431
g82
I4
ssg83
Nsg76
(lp1432
g69
(g85
g71
NtRp1433
(dp1434
g74
(dp1435
sg83
g1429
sg76
(lp1436
g69
(g90
g71
NtRp1437
(dp1438
g74
(dp1439
g94
g95
ssg83
g1433
sg76
(lp1440
S'app_folders'
p1441
asbag69
(g90
g71
NtRp1442
(dp1443
g74
(dp1444
g101
g102
ssg83
g1433
sg76
(lp1445
S':'
asbag69
(g90
g71
NtRp1446
(dp1447
g74
(dp1448
sg83
g1433
sg76
(lp1449
g69
(g70
g71
NtRp1450
(dp1451
g74
(dp1452
g82
I4
ssg83
g1446
sg76
(lp1453
S"set(['C:\\\\Users\\\\Owner\\\\Desktop\\\\web2py\\\\applications\\\\rideshare\\\\', 'C:\\\\Users\\\\Owner\\\\Desktop\\\\web2py\\\\applications\\\\admin\\\\', 'C:\\\\Users\\\\Owner\\\\Desktop\\\\web2py\\\\applications\\\\welcome\\\\'])"
p1454
asbasbasbag69
(g85
g71
NtRp1455
(dp1456
g74
(dp1457
sg83
g1429
sg76
(lp1458
g69
(g90
g71
NtRp1459
(dp1460
g74
(dp1461
g94
g95
ssg83
g1455
sg76
(lp1462
S'applications_parent'
p1463
asbag69
(g90
g71
NtRp1464
(dp1465
g74
(dp1466
g101
g102
ssg83
g1455
sg76
(lp1467
S':'
asbag69
(g90
g71
NtRp1468
(dp1469
g74
(dp1470
sg83
g1455
sg76
(lp1471
g69
(g70
g71
NtRp1472
(dp1473
g74
(dp1474
g82
I4
ssg83
g1468
sg76
(lp1475
S'C:\\Users\\Owner\\Desktop\\web2py'
p1476
asbasbasbag69
(g85
g71
NtRp1477
(dp1478
g74
(dp1479
sg83
g1429
sg76
(lp1480
g69
(g90
g71
NtRp1481
(dp1482
g74
(dp1483
g94
g95
ssg83
g1477
sg76
(lp1484
S'cmd_args'
p1485
asbag69
(g90
g71
NtRp1486
(dp1487
g74
(dp1488
g101
g102
ssg83
g1477
sg76
(lp1489
S':'
asbag69
(g90
g71
NtRp1490
(dp1491
g74
(dp1492
sg83
g1477
sg76
(lp1493
g69
(g70
g71
NtRp1494
(dp1495
g74
(dp1496
g82
I4
ssg83
g1490
sg76
(lp1497
g69
(g78
g71
NtRp1498
(dp1499
g74
(dp1500
g82
I3
ssg83
Nsg76
(lp1501
sbasbasbasbag69
(g85
g71
NtRp1502
(dp1503
g74
(dp1504
sg83
g1429
sg76
(lp1505
g69
(g90
g71
NtRp1506
(dp1507
g74
(dp1508
g94
g95
ssg83
g1502
sg76
(lp1509
S'cmd_options'
p1510
asbag69
(g90
g71
NtRp1511
(dp1512
g74
(dp1513
g101
g102
ssg83
g1502
sg76
(lp1514
S':'
asbag69
(g90
g71
NtRp1515
(dp1516
g74
(dp1517
sg83
g1502
sg76
(lp1518
g69
(g70
g71
NtRp1519
(dp1520
g74
(dp1521
g82
I4
ssg83
g1515
sg76
(lp1522
S"<Values at 0x2bc9030: {'verbose': False, 'ip': '127.0.0.1', 'with_scheduler': False, 'ips': [], 'shutdown_timeout': 5, 'taskbar': False, 'port': 8000, 'maxthreads': None, 'softcron': False, 'server_name': 'Owner-PC', 'bpython': False, 'nogui': False, 'nocron': False, 'extcron': False, 'run_system_tests': False, 'test': None, 'folder': 'C:\\\\Users\\\\Owner\\\\Desktop\\\\web2py', 'config': '', 'import_models': False, 'winservice': '', 'shell': None, 'run': '', 'log_filename': 'httpserver.log', 'debuglevel': 30, 'args': [''], 'socket_timeout': 5, 'ssl_ca_certificate': None, 'scheduler': None, 'profiler_filename': None, 'ssl_private_key': '', 'scheduler_groups': None, 'password': '<ask>', 'request_queue_size': 5, 'ssl_certificate': '', 'cronjob': False, 'numthreads': None, 'quiet': False, 'interfaces': None, 'minthreads': None, 'timeout': 10, 'plain': False, 'nobanner': False, 'pid_filename': 'httpserver.pid'}>"
p1523
asbasbasbag69
(g85
g71
NtRp1524
(dp1525
g74
(dp1526
sg83
g1429
sg76
(lp1527
g69
(g90
g71
NtRp1528
(dp1529
g74
(dp1530
g94
g95
ssg83
g1524
sg76
(lp1531
S'db_sessions'
p1532
asbag69
(g90
g71
NtRp1533
(dp1534
g74
(dp1535
g101
g102
ssg83
g1524
sg76
(lp1536
S':'
asbag69
(g90
g71
NtRp1537
(dp1538
g74
(dp1539
sg83
g1524
sg76
(lp1540
g69
(g70
g71
NtRp1541
(dp1542
g74
(dp1543
g82
I4
ssg83
g1537
sg76
(lp1544
S'set([])'
p1545
asbasbasbag69
(g85
g71
NtRp1546
(dp1547
g74
(dp1548
sg83
g1429
sg76
(lp1549
g69
(g90
g71
NtRp1550
(dp1551
g74
(dp1552
g94
g95
ssg83
g1546
sg76
(lp1553
S'debugging'
p1554
asbag69
(g90
g71
NtRp1555
(dp1556
g74
(dp1557
g101
g102
ssg83
g1546
sg76
(lp1558
S':'
asbag69
(g90
g71
NtRp1559
(dp1560
g74
(dp1561
sg83
g1546
sg76
(lp1562
g69
(g70
g71
NtRp1563
(dp1564
g74
(dp1565
g82
I4
ssg83
g1559
sg76
(lp1566
g112
asbasbasbag69
(g85
g71
NtRp1567
(dp1568
g74
(dp1569
sg83
g1429
sg76
(lp1570
g69
(g90
g71
NtRp1571
(dp1572
g74
(dp1573
g94
g95
ssg83
g1567
sg76
(lp1574
S'gluon_parent'
p1575
asbag69
(g90
g71
NtRp1576
(dp1577
g74
(dp1578
g101
g102
ssg83
g1567
sg76
(lp1579
S':'
asbag69
(g90
g71
NtRp1580
(dp1581
g74
(dp1582
sg83
g1567
sg76
(lp1583
g69
(g70
g71
NtRp1584
(dp1585
g74
(dp1586
g82
I4
ssg83
g1580
sg76
(lp1587
S'C:\\Users\\Owner\\Desktop\\web2py'
p1588
asbasbasbag69
(g85
g71
NtRp1589
(dp1590
g74
(dp1591
sg83
g1429
sg76
(lp1592
g69
(g90
g71
NtRp1593
(dp1594
g74
(dp1595
g94
g95
ssg83
g1589
sg76
(lp1596
S'http_accept'
p1597
asbag69
(g90
g71
NtRp1598
(dp1599
g74
(dp1600
g101
g102
ssg83
g1589
sg76
(lp1601
S':'
asbag69
(g90
g71
NtRp1602
(dp1603
g74
(dp1604
sg83
g1589
sg76
(lp1605
g69
(g70
g71
NtRp1606
(dp1607
g74
(dp1608
g82
I4
ssg83
g1602
sg76
(lp1609
S'text/html,application/xhtml+xml,application/xml;q=0.9,*/*;q=0.8'
p1610
asbasbasbag69
(g85
g71
NtRp1611
(dp1612
g74
(dp1613
sg83
g1429
sg76
(lp1614
g69
(g90
g71
NtRp1615
(dp1616
g74
(dp1617
g94
g95
ssg83
g1611
sg76
(lp1618
S'http_accept_encoding'
p1619
asbag69
(g90
g71
NtRp1620
(dp1621
g74
(dp1622
g101
g102
ssg83
g1611
sg76
(lp1623
S':'
asbag69
(g90
g71
NtRp1624
(dp1625
g74
(dp1626
sg83
g1611
sg76
(lp1627
g69
(g70
g71
NtRp1628
(dp1629
g74
(dp1630
g82
I4
ssg83
g1624
sg76
(lp1631
S'gzip, deflate'
p1632
asbasbasbag69
(g85
g71
NtRp1633
(dp1634
g74
(dp1635
sg83
g1429
sg76
(lp1636
g69
(g90
g71
NtRp1637
(dp1638
g74
(dp1639
g94
g95
ssg83
g1633
sg76
(lp1640
S'http_accept_language'
p1641
asbag69
(g90
g71
NtRp1642
(dp1643
g74
(dp1644
g101
g102
ssg83
g1633
sg76
(lp1645
S':'
asbag69
(g90
g71
NtRp1646
(dp1647
g74
(dp1648
sg83
g1633
sg76
(lp1649
g69
(g70
g71
NtRp1650
(dp1651
g74
(dp1652
g82
I4
ssg83
g1646
sg76
(lp1653
S'en-us,en;q=0.5'
p1654
asbasbasbag69
(g85
g71
NtRp1655
(dp1656
g74
(dp1657
sg83
g1429
sg76
(lp1658
g69
(g90
g71
NtRp1659
(dp1660
g74
(dp1661
g94
g95
ssg83
g1655
sg76
(lp1662
S'http_connection'
p1663
asbag69
(g90
g71
NtRp1664
(dp1665
g74
(dp1666
g101
g102
ssg83
g1655
sg76
(lp1667
S':'
asbag69
(g90
g71
NtRp1668
(dp1669
g74
(dp1670
sg83
g1655
sg76
(lp1671
g69
(g70
g71
NtRp1672
(dp1673
g74
(dp1674
g82
I4
ssg83
g1668
sg76
(lp1675
S'keep-alive'
p1676
asbasbasbag69
(g85
g71
NtRp1677
(dp1678
g74
(dp1679
sg83
g1429
sg76
(lp1680
g69
(g90
g71
NtRp1681
(dp1682
g74
(dp1683
g94
g95
ssg83
g1677
sg76
(lp1684
S'http_cookie'
p1685
asbag69
(g90
g71
NtRp1686
(dp1687
g74
(dp1688
g101
g102
ssg83
g1677
sg76
(lp1689
S':'
asbag69
(g90
g71
NtRp1690
(dp1691
g74
(dp1692
sg83
g1677
sg76
(lp1693
g69
(g70
g71
NtRp1694
(dp1695
g74
(dp1696
g82
I4
ssg83
g1690
sg76
(lp1697
S'session_id_welcome=127.0.0.1-e8eea386-4697-4b76-ab09-0a0be6604008; session_id_fresh_light=127.0.0.1-abdb80ae-e769-4c7f-b431-193578ef9ec6; session_id_ridesharetest=127.0.0.1-1b82f8e9-8437-46f1-a88e-d1a82c8a726d; session_id_rsharetest=127.0.0.1-17db44d3-6c70-47f0-9d72-ece020d9a50a; session_id_admin=127.0.0.1-4f70e2b1-5bb0-4ebf-987e-4f2631c11c02; session_id_rideshare=127.0.0.1-76981bb4-a11c-4445-975f-4668a2e996ed'
p1698
asbasbasbag69
(g85
g71
NtRp1699
(dp1700
g74
(dp1701
sg83
g1429
sg76
(lp1702
g69
(g90
g71
NtRp1703
(dp1704
g74
(dp1705
g94
g95
ssg83
g1699
sg76
(lp1706
S'http_host'
p1707
asbag69
(g90
g71
NtRp1708
(dp1709
g74
(dp1710
g101
g102
ssg83
g1699
sg76
(lp1711
S':'
asbag69
(g90
g71
NtRp1712
(dp1713
g74
(dp1714
sg83
g1699
sg76
(lp1715
g69
(g70
g71
NtRp1716
(dp1717
g74
(dp1718
g82
I4
ssg83
g1712
sg76
(lp1719
S'127.0.0.1:8000'
p1720
asbasbasbag69
(g85
g71
NtRp1721
(dp1722
g74
(dp1723
sg83
g1429
sg76
(lp1724
g69
(g90
g71
NtRp1725
(dp1726
g74
(dp1727
g94
g95
ssg83
g1721
sg76
(lp1728
S'http_referer'
p1729
asbag69
(g90
g71
NtRp1730
(dp1731
g74
(dp1732
g101
g102
ssg83
g1721
sg76
(lp1733
S':'
asbag69
(g90
g71
NtRp1734
(dp1735
g74
(dp1736
sg83
g1721
sg76
(lp1737
g69
(g70
g71
NtRp1738
(dp1739
g74
(dp1740
g82
I4
ssg83
g1734
sg76
(lp1741
S'http://127.0.0.1:8000/rideshare/default/index/1'
p1742
asbasbasbag69
(g85
g71
NtRp1743
(dp1744
g74
(dp1745
sg83
g1429
sg76
(lp1746
g69
(g90
g71
NtRp1747
(dp1748
g74
(dp1749
g94
g95
ssg83
g1743
sg76
(lp1750
S'http_user_agent'
p1751
asbag69
(g90
g71
NtRp1752
(dp1753
g74
(dp1754
g101
g102
ssg83
g1743
sg76
(lp1755
S':'
asbag69
(g90
g71
NtRp1756
(dp1757
g74
(dp1758
sg83
g1743
sg76
(lp1759
g69
(g70
g71
NtRp1760
(dp1761
g74
(dp1762
g82
I4
ssg83
g1756
sg76
(lp1763
S'Mozilla/5.0 (Windows NT 6.1; WOW64; rv:14.0) Gecko/20100101 Firefox/14.0.1'
p1764
asbasbasbag69
(g85
g71
NtRp1765
(dp1766
g74
(dp1767
sg83
g1429
sg76
(lp1768
g69
(g90
g71
NtRp1769
(dp1770
g74
(dp1771
g94
g95
ssg83
g1765
sg76
(lp1772
S'is_jython'
p1773
asbag69
(g90
g71
NtRp1774
(dp1775
g74
(dp1776
g101
g102
ssg83
g1765
sg76
(lp1777
S':'
asbag69
(g90
g71
NtRp1778
(dp1779
g74
(dp1780
sg83
g1765
sg76
(lp1781
g69
(g70
g71
NtRp1782
(dp1783
g74
(dp1784
g82
I4
ssg83
g1778
sg76
(lp1785
g112
asbasbasbag69
(g85
g71
NtRp1786
(dp1787
g74
(dp1788
sg83
g1429
sg76
(lp1789
g69
(g90
g71
NtRp1790
(dp1791
g74
(dp1792
g94
g95
ssg83
g1786
sg76
(lp1793
S'is_pypy'
p1794
asbag69
(g90
g71
NtRp1795
(dp1796
g74
(dp1797
g101
g102
ssg83
g1786
sg76
(lp1798
S':'
asbag69
(g90
g71
NtRp1799
(dp1800
g74
(dp1801
sg83
g1786
sg76
(lp1802
g69
(g70
g71
NtRp1803
(dp1804
g74
(dp1805
g82
I4
ssg83
g1799
sg76
(lp1806
g112
asbasbasbag69
(g85
g71
NtRp1807
(dp1808
g74
(dp1809
sg83
g1429
sg76
(lp1810
g69
(g90
g71
NtRp1811
(dp1812
g74
(dp1813
g94
g95
ssg83
g1807
sg76
(lp1814
S'path_info'
p1815
asbag69
(g90
g71
NtRp1816
(dp1817
g74
(dp1818
g101
g102
ssg83
g1807
sg76
(lp1819
S':'
asbag69
(g90
g71
NtRp1820
(dp1821
g74
(dp1822
sg83
g1807
sg76
(lp1823
g69
(g70
g71
NtRp1824
(dp1825
g74
(dp1826
g82
I4
ssg83
g1820
sg76
(lp1827
S'/rideshare/default/view/2'
p1828
asbasbasbag69
(g85
g71
NtRp1829
(dp1830
g74
(dp1831
sg83
g1429
sg76
(lp1832
g69
(g90
g71
NtRp1833
(dp1834
g74
(dp1835
g94
g95
ssg83
g1829
sg76
(lp1836
S'query_string'
p1837
asbag69
(g90
g71
NtRp1838
(dp1839
g74
(dp1840
g101
g102
ssg83
g1829
sg76
(lp1841
S':'
asbag69
(g90
g71
NtRp1842
(dp1843
g74
(dp1844
sg83
g1829
sg76
(lp1845
g69
(g70
g71
NtRp1846
(dp1847
g74
(dp1848
g82
I4
ssg83
g1842
sg76
(lp1849
S''
asbasbasbag69
(g85
g71
NtRp1850
(dp1851
g74
(dp1852
sg83
g1429
sg76
(lp1853
g69
(g90
g71
NtRp1854
(dp1855
g74
(dp1856
g94
g95
ssg83
g1850
sg76
(lp1857
S'remote_addr'
p1858
asbag69
(g90
g71
NtRp1859
(dp1860
g74
(dp1861
g101
g102
ssg83
g1850
sg76
(lp1862
S':'
asbag69
(g90
g71
NtRp1863
(dp1864
g74
(dp1865
sg83
g1850
sg76
(lp1866
g69
(g70
g71
NtRp1867
(dp1868
g74
(dp1869
g82
I4
ssg83
g1863
sg76
(lp1870
g236
asbasbasbag69
(g85
g71
NtRp1871
(dp1872
g74
(dp1873
sg83
g1429
sg76
(lp1874
g69
(g90
g71
NtRp1875
(dp1876
g74
(dp1877
g94
g95
ssg83
g1871
sg76
(lp1878
S'remote_port'
p1879
asbag69
(g90
g71
NtRp1880
(dp1881
g74
(dp1882
g101
g102
ssg83
g1871
sg76
(lp1883
S':'
asbag69
(g90
g71
NtRp1884
(dp1885
g74
(dp1886
sg83
g1871
sg76
(lp1887
g69
(g70
g71
NtRp1888
(dp1889
g74
(dp1890
g82
I4
ssg83
g1884
sg76
(lp1891
S'51150'
p1892
asbasbasbag69
(g85
g71
NtRp1893
(dp1894
g74
(dp1895
sg83
g1429
sg76
(lp1896
g69
(g90
g71
NtRp1897
(dp1898
g74
(dp1899
g94
g95
ssg83
g1893
sg76
(lp1900
S'request_method'
p1901
asbag69
(g90
g71
NtRp1902
(dp1903
g74
(dp1904
g101
g102
ssg83
g1893
sg76
(lp1905
S':'
asbag69
(g90
g71
NtRp1906
(dp1907
g74
(dp1908
sg83
g1893
sg76
(lp1909
g69
(g70
g71
NtRp1910
(dp1911
g74
(dp1912
g82
I4
ssg83
g1906
sg76
(lp1913
S'GET'
p1914
asbasbasbag69
(g85
g71
NtRp1915
(dp1916
g74
(dp1917
sg83
g1429
sg76
(lp1918
g69
(g90
g71
NtRp1919
(dp1920
g74
(dp1921
g94
g95
ssg83
g1915
sg76
(lp1922
S'request_uri'
p1923
asbag69
(g90
g71
NtRp1924
(dp1925
g74
(dp1926
g101
g102
ssg83
g1915
sg76
(lp1927
S':'
asbag69
(g90
g71
NtRp1928
(dp1929
g74
(dp1930
sg83
g1915
sg76
(lp1931
g69
(g70
g71
NtRp1932
(dp1933
g74
(dp1934
g82
I4
ssg83
g1928
sg76
(lp1935
g1828
asbasbasbag69
(g85
g71
NtRp1936
(dp1937
g74
(dp1938
sg83
g1429
sg76
(lp1939
g69
(g90
g71
NtRp1940
(dp1941
g74
(dp1942
g94
g95
ssg83
g1936
sg76
(lp1943
S'script_name'
p1944
asbag69
(g90
g71
NtRp1945
(dp1946
g74
(dp1947
g101
g102
ssg83
g1936
sg76
(lp1948
S':'
asbag69
(g90
g71
NtRp1949
(dp1950
g74
(dp1951
sg83
g1936
sg76
(lp1952
g69
(g70
g71
NtRp1953
(dp1954
g74
(dp1955
g82
I4
ssg83
g1949
sg76
(lp1956
S''
asbasbasbag69
(g85
g71
NtRp1957
(dp1958
g74
(dp1959
sg83
g1429
sg76
(lp1960
g69
(g90
g71
NtRp1961
(dp1962
g74
(dp1963
g94
g95
ssg83
g1957
sg76
(lp1964
S'server_name'
p1965
asbag69
(g90
g71
NtRp1966
(dp1967
g74
(dp1968
g101
g102
ssg83
g1957
sg76
(lp1969
S':'
asbag69
(g90
g71
NtRp1970
(dp1971
g74
(dp1972
sg83
g1957
sg76
(lp1973
g69
(g70
g71
NtRp1974
(dp1975
g74
(dp1976
g82
I4
ssg83
g1970
sg76
(lp1977
S'Owner-PC'
p1978
asbasbasbag69
(g85
g71
NtRp1979
(dp1980
g74
(dp1981
sg83
g1429
sg76
(lp1982
g69
(g90
g71
NtRp1983
(dp1984
g74
(dp1985
g94
g95
ssg83
g1979
sg76
(lp1986
S'server_port'
p1987
asbag69
(g90
g71
NtRp1988
(dp1989
g74
(dp1990
g101
g102
ssg83
g1979
sg76
(lp1991
S':'
asbag69
(g90
g71
NtRp1992
(dp1993
g74
(dp1994
sg83
g1979
sg76
(lp1995
g69
(g70
g71
NtRp1996
(dp1997
g74
(dp1998
g82
I4
ssg83
g1992
sg76
(lp1999
S'8000'
p2000
asbasbasbag69
(g85
g71
NtRp2001
(dp2002
g74
(dp2003
sg83
g1429
sg76
(lp2004
g69
(g90
g71
NtRp2005
(dp2006
g74
(dp2007
g94
g95
ssg83
g2001
sg76
(lp2008
S'server_protocol'
p2009
asbag69
(g90
g71
NtRp2010
(dp2011
g74
(dp2012
g101
g102
ssg83
g2001
sg76
(lp2013
S':'
asbag69
(g90
g71
NtRp2014
(dp2015
g74
(dp2016
sg83
g2001
sg76
(lp2017
g69
(g70
g71
NtRp2018
(dp2019
g74
(dp2020
g82
I4
ssg83
g2014
sg76
(lp2021
S'HTTP/1.1'
p2022
asbasbasbag69
(g85
g71
NtRp2023
(dp2024
g74
(dp2025
sg83
g1429
sg76
(lp2026
g69
(g90
g71
NtRp2027
(dp2028
g74
(dp2029
g94
g95
ssg83
g2023
sg76
(lp2030
S'server_software'
p2031
asbag69
(g90
g71
NtRp2032
(dp2033
g74
(dp2034
g101
g102
ssg83
g2023
sg76
(lp2035
S':'
asbag69
(g90
g71
NtRp2036
(dp2037
g74
(dp2038
sg83
g2023
sg76
(lp2039
g69
(g70
g71
NtRp2040
(dp2041
g74
(dp2042
g82
I4
ssg83
g2036
sg76
(lp2043
S'Rocket 1.2.4'
p2044
asbasbasbag69
(g85
g71
NtRp2045
(dp2046
g74
(dp2047
sg83
g1429
sg76
(lp2048
g69
(g90
g71
NtRp2049
(dp2050
g74
(dp2051
g94
g95
ssg83
g2045
sg76
(lp2052
S'web2py_crontype'
p2053
asbag69
(g90
g71
NtRp2054
(dp2055
g74
(dp2056
g101
g102
ssg83
g2045
sg76
(lp2057
S':'
asbag69
(g90
g71
NtRp2058
(dp2059
g74
(dp2060
sg83
g2045
sg76
(lp2061
g69
(g70
g71
NtRp2062
(dp2063
g74
(dp2064
g82
I4
ssg83
g2058
sg76
(lp2065
S'hard'
p2066
asbasbasbag69
(g85
g71
NtRp2067
(dp2068
g74
(dp2069
sg83
g1429
sg76
(lp2070
g69
(g90
g71
NtRp2071
(dp2072
g74
(dp2073
g94
g95
ssg83
g2067
sg76
(lp2074
S'web2py_path'
p2075
asbag69
(g90
g71
NtRp2076
(dp2077
g74
(dp2078
g101
g102
ssg83
g2067
sg76
(lp2079
S':'
asbag69
(g90
g71
NtRp2080
(dp2081
g74
(dp2082
sg83
g2067
sg76
(lp2083
g69
(g70
g71
NtRp2084
(dp2085
g74
(dp2086
g82
I4
ssg83
g2080
sg76
(lp2087
g1476
asbasbasbag69
(g85
g71
NtRp2088
(dp2089
g74
(dp2090
sg83
g1429
sg76
(lp2091
g69
(g90
g71
NtRp2092
(dp2093
g74
(dp2094
g94
g95
ssg83
g2088
sg76
(lp2095
S'web2py_version'
p2096
asbag69
(g90
g71
NtRp2097
(dp2098
g74
(dp2099
g101
g102
ssg83
g2088
sg76
(lp2100
S':'
asbag69
(g90
g71
NtRp2101
(dp2102
g74
(dp2103
sg83
g2088
sg76
(lp2104
g69
(g70
g71
NtRp2105
(dp2106
g74
(dp2107
g82
I4
ssg83
g2101
sg76
(lp2108
g69
(g78
g71
NtRp2109
(dp2110
g74
(dp2111
g82
I3
ssg83
Nsg76
(lp2112
g69
(g85
g71
NtRp2113
(dp2114
g74
(dp2115
sg83
g2109
sg76
(lp2116
g69
(g90
g71
NtRp2117
(dp2118
g74
(dp2119
sg83
g2113
sg76
(lp2120
g69
(g70
g71
NtRp2121
(dp2122
g74
(dp2123
g82
I3
ssg83
g2117
sg76
(lp2124
S'2'
asbasbasbag69
(g85
g71
NtRp2125
(dp2126
g74
(dp2127
sg83
g2109
sg76
(lp2128
g69
(g90
g71
NtRp2129
(dp2130
g74
(dp2131
sg83
g2125
sg76
(lp2132
g69
(g70
g71
NtRp2133
(dp2134
g74
(dp2135
g82
I3
ssg83
g2129
sg76
(lp2136
S'0'
asbasbasbag69
(g85
g71
NtRp2137
(dp2138
g74
(dp2139
sg83
g2109
sg76
(lp2140
g69
(g90
g71
NtRp2141
(dp2142
g74
(dp2143
sg83
g2137
sg76
(lp2144
g69
(g70
g71
NtRp2145
(dp2146
g74
(dp2147
g82
I3
ssg83
g2141
sg76
(lp2148
S'9'
asbasbasbag69
(g85
g71
NtRp2149
(dp2150
g74
(dp2151
sg83
g2109
sg76
(lp2152
g69
(g90
g71
NtRp2153
(dp2154
g74
(dp2155
sg83
g2149
sg76
(lp2156
g69
(g70
g71
NtRp2157
(dp2158
g74
(dp2159
g82
I3
ssg83
g2153
sg76
(lp2160
S'datetime.datetime(2012, 9, 13, 23, 51, 30)'
p2161
asbasbasbag69
(g85
g71
NtRp2162
(dp2163
g74
(dp2164
sg83
g2109
sg76
(lp2165
g69
(g90
g71
NtRp2166
(dp2167
g74
(dp2168
sg83
g2162
sg76
(lp2169
g69
(g70
g71
NtRp2170
(dp2171
g74
(dp2172
g82
I3
ssg83
g2166
sg76
(lp2173
S'stable'
p2174
asbasbasbasbasbasbasbag69
(g85
g71
NtRp2175
(dp2176
g74
(dp2177
sg83
g1429
sg76
(lp2178
g69
(g90
g71
NtRp2179
(dp2180
g74
(dp2181
g94
g95
ssg83
g2175
sg76
(lp2182
S'wsgi_errors'
p2183
asbag69
(g90
g71
NtRp2184
(dp2185
g74
(dp2186
g101
g102
ssg83
g2175
sg76
(lp2187
S':'
asbag69
(g90
g71
NtRp2188
(dp2189
g74
(dp2190
sg83
g2175
sg76
(lp2191
g69
(g70
g71
NtRp2192
(dp2193
g74
(dp2194
g82
I4
ssg83
g2188
sg76
(lp2195
S"<open file '<stderr>', mode 'w' at 0x01DA50D0>"
p2196
asbasbasbag69
(g85
g71
NtRp2197
(dp2198
g74
(dp2199
sg83
g1429
sg76
(lp2200
g69
(g90
g71
NtRp2201
(dp2202
g74
(dp2203
g94
g95
ssg83
g2197
sg76
(lp2204
S'wsgi_file_wrapper'
p2205
asbag69
(g90
g71
NtRp2206
(dp2207
g74
(dp2208
g101
g102
ssg83
g2197
sg76
(lp2209
S':'
asbag69
(g90
g71
NtRp2210
(dp2211
g74
(dp2212
sg83
g2197
sg76
(lp2213
g69
(g70
g71
NtRp2214
(dp2215
g74
(dp2216
g82
I4
ssg83
g2210
sg76
(lp2217
S'<class wsgiref.util.FileWrapper at 0x02B58688>'
p2218
asbasbasbag69
(g85
g71
NtRp2219
(dp2220
g74
(dp2221
sg83
g1429
sg76
(lp2222
g69
(g90
g71
NtRp2223
(dp2224
g74
(dp2225
g94
g95
ssg83
g2219
sg76
(lp2226
S'wsgi_input'
p2227
asbag69
(g90
g71
NtRp2228
(dp2229
g74
(dp2230
g101
g102
ssg83
g2219
sg76
(lp2231
S':'
asbag69
(g90
g71
NtRp2232
(dp2233
g74
(dp2234
sg83
g2219
sg76
(lp2235
g69
(g70
g71
NtRp2236
(dp2237
g74
(dp2238
g82
I4
ssg83
g2232
sg76
(lp2239
S'<socket._fileobject object at 0x07BFC770>'
p2240
asbasbasbag69
(g85
g71
NtRp2241
(dp2242
g74
(dp2243
sg83
g1429
sg76
(lp2244
g69
(g90
g71
NtRp2245
(dp2246
g74
(dp2247
g94
g95
ssg83
g2241
sg76
(lp2248
S'wsgi_multiprocess'
p2249
asbag69
(g90
g71
NtRp2250
(dp2251
g74
(dp2252
g101
g102
ssg83
g2241
sg76
(lp2253
S':'
asbag69
(g90
g71
NtRp2254
(dp2255
g74
(dp2256
sg83
g2241
sg76
(lp2257
g69
(g70
g71
NtRp2258
(dp2259
g74
(dp2260
g82
I4
ssg83
g2254
sg76
(lp2261
g112
asbasbasbag69
(g85
g71
NtRp2262
(dp2263
g74
(dp2264
sg83
g1429
sg76
(lp2265
g69
(g90
g71
NtRp2266
(dp2267
g74
(dp2268
g94
g95
ssg83
g2262
sg76
(lp2269
S'wsgi_multithread'
p2270
asbag69
(g90
g71
NtRp2271
(dp2272
g74
(dp2273
g101
g102
ssg83
g2262
sg76
(lp2274
S':'
asbag69
(g90
g71
NtRp2275
(dp2276
g74
(dp2277
sg83
g2262
sg76
(lp2278
g69
(g70
g71
NtRp2279
(dp2280
g74
(dp2281
g82
I4
ssg83
g2275
sg76
(lp2282
S'True'
p2283
asbasbasbag69
(g85
g71
NtRp2284
(dp2285
g74
(dp2286
sg83
g1429
sg76
(lp2287
g69
(g90
g71
NtRp2288
(dp2289
g74
(dp2290
g94
g95
ssg83
g2284
sg76
(lp2291
S'wsgi_run_once'
p2292
asbag69
(g90
g71
NtRp2293
(dp2294
g74
(dp2295
g101
g102
ssg83
g2284
sg76
(lp2296
S':'
asbag69
(g90
g71
NtRp2297
(dp2298
g74
(dp2299
sg83
g2284
sg76
(lp2300
g69
(g70
g71
NtRp2301
(dp2302
g74
(dp2303
g82
I4
ssg83
g2297
sg76
(lp2304
g112
asbasbasbag69
(g85
g71
NtRp2305
(dp2306
g74
(dp2307
sg83
g1429
sg76
(lp2308
g69
(g90
g71
NtRp2309
(dp2310
g74
(dp2311
g94
g95
ssg83
g2305
sg76
(lp2312
S'wsgi_url_scheme'
p2313
asbag69
(g90
g71
NtRp2314
(dp2315
g74
(dp2316
g101
g102
ssg83
g2305
sg76
(lp2317
S':'
asbag69
(g90
g71
NtRp2318
(dp2319
g74
(dp2320
sg83
g2305
sg76
(lp2321
g69
(g70
g71
NtRp2322
(dp2323
g74
(dp2324
g82
I4
ssg83
g2318
sg76
(lp2325
S'http'
p2326
asbasbasbag69
(g85
g71
NtRp2327
(dp2328
g74
(dp2329
sg83
g1429
sg76
(lp2330
g69
(g90
g71
NtRp2331
(dp2332
g74
(dp2333
g94
g95
ssg83
g2327
sg76
(lp2334
S'wsgi_version'
p2335
asbag69
(g90
g71
NtRp2336
(dp2337
g74
(dp2338
g101
g102
ssg83
g2327
sg76
(lp2339
S':'
asbag69
(g90
g71
NtRp2340
(dp2341
g74
(dp2342
sg83
g2327
sg76
(lp2343
g69
(g70
g71
NtRp2344
(dp2345
g74
(dp2346
g82
I4
ssg83
g2340
sg76
(lp2347
g69
(g78
g71
NtRp2348
(dp2349
g74
(dp2350
g82
I3
ssg83
Nsg76
(lp2351
g69
(g85
g71
NtRp2352
(dp2353
g74
(dp2354
sg83
g2348
sg76
(lp2355
g69
(g90
g71
NtRp2356
(dp2357
g74
(dp2358
sg83
g2352
sg76
(lp2359
g69
(g70
g71
NtRp2360
(dp2361
g74
(dp2362
g82
I3
ssg83
g2356
sg76
(lp2363
S'1'
asbasbasbag69
(g85
g71
NtRp2364
(dp2365
g74
(dp2366
sg83
g2348
sg76
(lp2367
g69
(g90
g71
NtRp2368
(dp2369
g74
(dp2370
sg83
g2364
sg76
(lp2371
g69
(g70
g71
NtRp2372
(dp2373
g74
(dp2374
g82
I3
ssg83
g2368
sg76
(lp2375
S'0'
asbasbasbasbasbasbasbasbasbasbasbag69
(g85
g71
NtRp2376
(dp2377
g74
(dp2378
sg83
g79
sg76
(lp2379
g69
(g90
g71
NtRp2380
(dp2381
g74
(dp2382
g94
g95
ssg83
g2376
sg76
(lp2383
S'extension'
p2384
asbag69
(g90
g71
NtRp2385
(dp2386
g74
(dp2387
g101
g102
ssg83
g2376
sg76
(lp2388
S':'
asbag69
(g90
g71
NtRp2389
(dp2390
g74
(dp2391
sg83
g2376
sg76
(lp2392
g69
(g70
g71
NtRp2393
(dp2394
g74
(dp2395
g82
I5
ssg83
g2389
sg76
(lp2396
S'html'
p2397
asbasbasbag69
(g85
g71
NtRp2398
(dp2399
g74
(dp2400
sg83
g79
sg76
(lp2401
g69
(g90
g71
NtRp2402
(dp2403
g74
(dp2404
g94
g95
ssg83
g2398
sg76
(lp2405
S'folder'
p2406
asbag69
(g90
g71
NtRp2407
(dp2408
g74
(dp2409
g101
g102
ssg83
g2398
sg76
(lp2410
S':'
asbag69
(g90
g71
NtRp2411
(dp2412
g74
(dp2413
sg83
g2398
sg76
(lp2414
g69
(g70
g71
NtRp2415
(dp2416
g74
(dp2417
g82
I5
ssg83
g2411
sg76
(lp2418
S'C:\\Users\\Owner\\Desktop\\web2py\\applications\\rideshare\\'
p2419
asbasbasbag69
(g85
g71
NtRp2420
(dp2421
g74
(dp2422
sg83
g79
sg76
(lp2423
g69
(g90
g71
NtRp2424
(dp2425
g74
(dp2426
g94
g95
ssg83
g2420
sg76
(lp2427
S'function'
p2428
asbag69
(g90
g71
NtRp2429
(dp2430
g74
(dp2431
g101
g102
ssg83
g2420
sg76
(lp2432
S':'
asbag69
(g90
g71
NtRp2433
(dp2434
g74
(dp2435
sg83
g2420
sg76
(lp2436
g69
(g70
g71
NtRp2437
(dp2438
g74
(dp2439
g82
I5
ssg83
g2433
sg76
(lp2440
S'view'
p2441
asbasbasbag69
(g85
g71
NtRp2442
(dp2443
g74
(dp2444
sg83
g79
sg76
(lp2445
g69
(g90
g71
NtRp2446
(dp2447
g74
(dp2448
g94
g95
ssg83
g2442
sg76
(lp2449
S'get_vars'
p2450
asbag69
(g90
g71
NtRp2451
(dp2452
g74
(dp2453
g101
g102
ssg83
g2442
sg76
(lp2454
S':'
asbag69
(g90
g71
NtRp2455
(dp2456
g74
(dp2457
sg83
g2442
sg76
(lp2458
g69
(g70
g71
NtRp2459
(dp2460
g74
(dp2461
g82
I5
ssg83
g2455
sg76
(lp2462
g69
(g78
g71
NtRp2463
(dp2464
g74
(dp2465
g82
I4
ssg83
Nsg76
(lp2466
sbasbasbasbag69
(g85
g71
NtRp2467
(dp2468
g74
(dp2469
sg83
g79
sg76
(lp2470
g69
(g90
g71
NtRp2471
(dp2472
g74
(dp2473
g94
g95
ssg83
g2467
sg76
(lp2474
S'global_settings'
p2475
asbag69
(g90
g71
NtRp2476
(dp2477
g74
(dp2478
g101
g102
ssg83
g2467
sg76
(lp2479
S':'
asbag69
(g90
g71
NtRp2480
(dp2481
g74
(dp2482
sg83
g2467
sg76
(lp2483
g69
(g70
g71
NtRp2484
(dp2485
g74
(dp2486
g82
I5
ssg83
g2480
sg76
(lp2487
g69
(g78
g71
NtRp2488
(dp2489
g74
(dp2490
g82
I4
ssg83
Nsg76
(lp2491
g69
(g85
g71
NtRp2492
(dp2493
g74
(dp2494
sg83
g2488
sg76
(lp2495
g69
(g90
g71
NtRp2496
(dp2497
g74
(dp2498
g94
g95
ssg83
g2492
sg76
(lp2499
g1441
asbag69
(g90
g71
NtRp2500
(dp2501
g74
(dp2502
g101
g102
ssg83
g2492
sg76
(lp2503
S':'
asbag69
(g90
g71
NtRp2504
(dp2505
g74
(dp2506
sg83
g2492
sg76
(lp2507
g69
(g70
g71
NtRp2508
(dp2509
g74
(dp2510
g82
I4
ssg83
g2504
sg76
(lp2511
S"set(['C:\\\\Users\\\\Owner\\\\Desktop\\\\web2py\\\\applications\\\\rideshare\\\\', 'C:\\\\Users\\\\Owner\\\\Desktop\\\\web2py\\\\applications\\\\admin\\\\', 'C:\\\\Users\\\\Owner\\\\Desktop\\\\web2py\\\\applications\\\\welcome\\\\'])"
p2512
asbasbasbag69
(g85
g71
NtRp2513
(dp2514
g74
(dp2515
sg83
g2488
sg76
(lp2516
g69
(g90
g71
NtRp2517
(dp2518
g74
(dp2519
g94
g95
ssg83
g2513
sg76
(lp2520
g1463
asbag69
(g90
g71
NtRp2521
(dp2522
g74
(dp2523
g101
g102
ssg83
g2513
sg76
(lp2524
S':'
asbag69
(g90
g71
NtRp2525
(dp2526
g74
(dp2527
sg83
g2513
sg76
(lp2528
g69
(g70
g71
NtRp2529
(dp2530
g74
(dp2531
g82
I4
ssg83
g2525
sg76
(lp2532
g1476
asbasbasbag69
(g85
g71
NtRp2533
(dp2534
g74
(dp2535
sg83
g2488
sg76
(lp2536
g69
(g90
g71
NtRp2537
(dp2538
g74
(dp2539
g94
g95
ssg83
g2533
sg76
(lp2540
g1485
asbag69
(g90
g71
NtRp2541
(dp2542
g74
(dp2543
g101
g102
ssg83
g2533
sg76
(lp2544
S':'
asbag69
(g90
g71
NtRp2545
(dp2546
g74
(dp2547
sg83
g2533
sg76
(lp2548
g69
(g70
g71
NtRp2549
(dp2550
g74
(dp2551
g82
I4
ssg83
g2545
sg76
(lp2552
g69
(g78
g71
NtRp2553
(dp2554
g74
(dp2555
g82
I3
ssg83
Nsg76
(lp2556
sbasbasbasbag69
(g85
g71
NtRp2557
(dp2558
g74
(dp2559
sg83
g2488
sg76
(lp2560
g69
(g90
g71
NtRp2561
(dp2562
g74
(dp2563
g94
g95
ssg83
g2557
sg76
(lp2564
g1510
asbag69
(g90
g71
NtRp2565
(dp2566
g74
(dp2567
g101
g102
ssg83
g2557
sg76
(lp2568
S':'
asbag69
(g90
g71
NtRp2569
(dp2570
g74
(dp2571
sg83
g2557
sg76
(lp2572
g69
(g70
g71
NtRp2573
(dp2574
g74
(dp2575
g82
I4
ssg83
g2569
sg76
(lp2576
S"<Values at 0x2bc9030: {'verbose': False, 'ip': '127.0.0.1', 'with_scheduler': False, 'ips': [], 'shutdown_timeout': 5, 'taskbar': False, 'port': 8000, 'maxthreads': None, 'softcron': False, 'server_name': 'Owner-PC', 'bpython': False, 'nogui': False, 'nocron': False, 'extcron': False, 'run_system_tests': False, 'test': None, 'folder': 'C:\\\\Users\\\\Owner\\\\Desktop\\\\web2py', 'config': '', 'import_models': False, 'winservice': '', 'shell': None, 'run': '', 'log_filename': 'httpserver.log', 'debuglevel': 30, 'args': [''], 'socket_timeout': 5, 'ssl_ca_certificate': None, 'scheduler': None, 'profiler_filename': None, 'ssl_private_key': '', 'scheduler_groups': None, 'password': '<ask>', 'request_queue_size': 5, 'ssl_certificate': '', 'cronjob': False, 'numthreads': None, 'quiet': False, 'interfaces': None, 'minthreads': None, 'timeout': 10, 'plain': False, 'nobanner': False, 'pid_filename': 'httpserver.pid'}>"
p2577
asbasbasbag69
(g85
g71
NtRp2578
(dp2579
g74
(dp2580
sg83
g2488
sg76
(lp2581
g69
(g90
g71
NtRp2582
(dp2583
g74
(dp2584
g94
g95
ssg83
g2578
sg76
(lp2585
g1532
asbag69
(g90
g71
NtRp2586
(dp2587
g74
(dp2588
g101
g102
ssg83
g2578
sg76
(lp2589
S':'
asbag69
(g90
g71
NtRp2590
(dp2591
g74
(dp2592
sg83
g2578
sg76
(lp2593
g69
(g70
g71
NtRp2594
(dp2595
g74
(dp2596
g82
I4
ssg83
g2590
sg76
(lp2597
S'set([])'
p2598
asbasbasbag69
(g85
g71
NtRp2599
(dp2600
g74
(dp2601
sg83
g2488
sg76
(lp2602
g69
(g90
g71
NtRp2603
(dp2604
g74
(dp2605
g94
g95
ssg83
g2599
sg76
(lp2606
g1554
asbag69
(g90
g71
NtRp2607
(dp2608
g74
(dp2609
g101
g102
ssg83
g2599
sg76
(lp2610
S':'
asbag69
(g90
g71
NtRp2611
(dp2612
g74
(dp2613
sg83
g2599
sg76
(lp2614
g69
(g70
g71
NtRp2615
(dp2616
g74
(dp2617
g82
I4
ssg83
g2611
sg76
(lp2618
g112
asbasbasbag69
(g85
g71
NtRp2619
(dp2620
g74
(dp2621
sg83
g2488
sg76
(lp2622
g69
(g90
g71
NtRp2623
(dp2624
g74
(dp2625
g94
g95
ssg83
g2619
sg76
(lp2626
g1575
asbag69
(g90
g71
NtRp2627
(dp2628
g74
(dp2629
g101
g102
ssg83
g2619
sg76
(lp2630
S':'
asbag69
(g90
g71
NtRp2631
(dp2632
g74
(dp2633
sg83
g2619
sg76
(lp2634
g69
(g70
g71
NtRp2635
(dp2636
g74
(dp2637
g82
I4
ssg83
g2631
sg76
(lp2638
g1588
asbasbasbag69
(g85
g71
NtRp2639
(dp2640
g74
(dp2641
sg83
g2488
sg76
(lp2642
g69
(g90
g71
NtRp2643
(dp2644
g74
(dp2645
g94
g95
ssg83
g2639
sg76
(lp2646
g1773
asbag69
(g90
g71
NtRp2647
(dp2648
g74
(dp2649
g101
g102
ssg83
g2639
sg76
(lp2650
S':'
asbag69
(g90
g71
NtRp2651
(dp2652
g74
(dp2653
sg83
g2639
sg76
(lp2654
g69
(g70
g71
NtRp2655
(dp2656
g74
(dp2657
g82
I4
ssg83
g2651
sg76
(lp2658
g112
asbasbasbag69
(g85
g71
NtRp2659
(dp2660
g74
(dp2661
sg83
g2488
sg76
(lp2662
g69
(g90
g71
NtRp2663
(dp2664
g74
(dp2665
g94
g95
ssg83
g2659
sg76
(lp2666
g1794
asbag69
(g90
g71
NtRp2667
(dp2668
g74
(dp2669
g101
g102
ssg83
g2659
sg76
(lp2670
S':'
asbag69
(g90
g71
NtRp2671
(dp2672
g74
(dp2673
sg83
g2659
sg76
(lp2674
g69
(g70
g71
NtRp2675
(dp2676
g74
(dp2677
g82
I4
ssg83
g2671
sg76
(lp2678
g112
asbasbasbag69
(g85
g71
NtRp2679
(dp2680
g74
(dp2681
sg83
g2488
sg76
(lp2682
g69
(g90
g71
NtRp2683
(dp2684
g74
(dp2685
g94
g95
ssg83
g2679
sg76
(lp2686
g2053
asbag69
(g90
g71
NtRp2687
(dp2688
g74
(dp2689
g101
g102
ssg83
g2679
sg76
(lp2690
S':'
asbag69
(g90
g71
NtRp2691
(dp2692
g74
(dp2693
sg83
g2679
sg76
(lp2694
g69
(g70
g71
NtRp2695
(dp2696
g74
(dp2697
g82
I4
ssg83
g2691
sg76
(lp2698
g2066
asbasbasbag69
(g85
g71
NtRp2699
(dp2700
g74
(dp2701
sg83
g2488
sg76
(lp2702
g69
(g90
g71
NtRp2703
(dp2704
g74
(dp2705
g94
g95
ssg83
g2699
sg76
(lp2706
g2096
asbag69
(g90
g71
NtRp2707
(dp2708
g74
(dp2709
g101
g102
ssg83
g2699
sg76
(lp2710
S':'
asbag69
(g90
g71
NtRp2711
(dp2712
g74
(dp2713
sg83
g2699
sg76
(lp2714
g69
(g70
g71
NtRp2715
(dp2716
g74
(dp2717
g82
I4
ssg83
g2711
sg76
(lp2718
g69
(g78
g71
NtRp2719
(dp2720
g74
(dp2721
g82
I3
ssg83
Nsg76
(lp2722
g69
(g85
g71
NtRp2723
(dp2724
g74
(dp2725
sg83
g2719
sg76
(lp2726
g69
(g90
g71
NtRp2727
(dp2728
g74
(dp2729
sg83
g2723
sg76
(lp2730
g69
(g70
g71
NtRp2731
(dp2732
g74
(dp2733
g82
I3
ssg83
g2727
sg76
(lp2734
S'2'
asbasbasbag69
(g85
g71
NtRp2735
(dp2736
g74
(dp2737
sg83
g2719
sg76
(lp2738
g69
(g90
g71
NtRp2739
(dp2740
g74
(dp2741
sg83
g2735
sg76
(lp2742
g69
(g70
g71
NtRp2743
(dp2744
g74
(dp2745
g82
I3
ssg83
g2739
sg76
(lp2746
S'0'
asbasbasbag69
(g85
g71
NtRp2747
(dp2748
g74
(dp2749
sg83
g2719
sg76
(lp2750
g69
(g90
g71
NtRp2751
(dp2752
g74
(dp2753
sg83
g2747
sg76
(lp2754
g69
(g70
g71
NtRp2755
(dp2756
g74
(dp2757
g82
I3
ssg83
g2751
sg76
(lp2758
S'9'
asbasbasbag69
(g85
g71
NtRp2759
(dp2760
g74
(dp2761
sg83
g2719
sg76
(lp2762
g69
(g90
g71
NtRp2763
(dp2764
g74
(dp2765
sg83
g2759
sg76
(lp2766
g69
(g70
g71
NtRp2767
(dp2768
g74
(dp2769
g82
I3
ssg83
g2763
sg76
(lp2770
S'datetime.datetime(2012, 9, 13, 23, 51, 30)'
p2771
asbasbasbag69
(g85
g71
NtRp2772
(dp2773
g74
(dp2774
sg83
g2719
sg76
(lp2775
g69
(g90
g71
NtRp2776
(dp2777
g74
(dp2778
sg83
g2772
sg76
(lp2779
g69
(g70
g71
NtRp2780
(dp2781
g74
(dp2782
g82
I3
ssg83
g2776
sg76
(lp2783
g2174
asbasbasbasbasbasbasbasbasbasbasbag69
(g85
g71
NtRp2784
(dp2785
g74
(dp2786
sg83
g79
sg76
(lp2787
g69
(g90
g71
NtRp2788
(dp2789
g74
(dp2790
g94
g95
ssg83
g2784
sg76
(lp2791
S'is_https'
p2792
asbag69
(g90
g71
NtRp2793
(dp2794
g74
(dp2795
g101
g102
ssg83
g2784
sg76
(lp2796
S':'
asbag69
(g90
g71
NtRp2797
(dp2798
g74
(dp2799
sg83
g2784
sg76
(lp2800
g69
(g70
g71
NtRp2801
(dp2802
g74
(dp2803
g82
I5
ssg83
g2797
sg76
(lp2804
g112
asbasbasbag69
(g85
g71
NtRp2805
(dp2806
g74
(dp2807
sg83
g79
sg76
(lp2808
g69
(g90
g71
NtRp2809
(dp2810
g74
(dp2811
g94
g95
ssg83
g2805
sg76
(lp2812
S'is_local'
p2813
asbag69
(g90
g71
NtRp2814
(dp2815
g74
(dp2816
g101
g102
ssg83
g2805
sg76
(lp2817
S':'
asbag69
(g90
g71
NtRp2818
(dp2819
g74
(dp2820
sg83
g2805
sg76
(lp2821
g69
(g70
g71
NtRp2822
(dp2823
g74
(dp2824
g82
I5
ssg83
g2818
sg76
(lp2825
g2283
asbasbasbag69
(g85
g71
NtRp2826
(dp2827
g74
(dp2828
sg83
g79
sg76
(lp2829
g69
(g90
g71
NtRp2830
(dp2831
g74
(dp2832
g94
g95
ssg83
g2826
sg76
(lp2833
S'is_restful'
p2834
asbag69
(g90
g71
NtRp2835
(dp2836
g74
(dp2837
g101
g102
ssg83
g2826
sg76
(lp2838
S':'
asbag69
(g90
g71
NtRp2839
(dp2840
g74
(dp2841
sg83
g2826
sg76
(lp2842
g69
(g70
g71
NtRp2843
(dp2844
g74
(dp2845
g82
I5
ssg83
g2839
sg76
(lp2846
g112
asbasbasbag69
(g85
g71
NtRp2847
(dp2848
g74
(dp2849
sg83
g79
sg76
(lp2850
g69
(g90
g71
NtRp2851
(dp2852
g74
(dp2853
g94
g95
ssg83
g2847
sg76
(lp2854
S'now'
p2855
asbag69
(g90
g71
NtRp2856
(dp2857
g74
(dp2858
g101
g102
ssg83
g2847
sg76
(lp2859
S':'
asbag69
(g90
g71
NtRp2860
(dp2861
g74
(dp2862
sg83
g2847
sg76
(lp2863
g69
(g70
g71
NtRp2864
(dp2865
g74
(dp2866
g82
I5
ssg83
g2860
sg76
(lp2867
S'datetime.datetime(2012, 12, 8, 13, 49, 48, 12000)'
p2868
asbasbasbag69
(g85
g71
NtRp2869
(dp2870
g74
(dp2871
sg83
g79
sg76
(lp2872
g69
(g90
g71
NtRp2873
(dp2874
g74
(dp2875
g94
g95
ssg83
g2869
sg76
(lp2876
S'post_vars'
p2877
asbag69
(g90
g71
NtRp2878
(dp2879
g74
(dp2880
g101
g102
ssg83
g2869
sg76
(lp2881
S':'
asbag69
(g90
g71
NtRp2882
(dp2883
g74
(dp2884
sg83
g2869
sg76
(lp2885
g69
(g70
g71
NtRp2886
(dp2887
g74
(dp2888
g82
I5
ssg83
g2882
sg76
(lp2889
g69
(g78
g71
NtRp2890
(dp2891
g74
(dp2892
g82
I4
ssg83
Nsg76
(lp2893
sbasbasbasbag69
(g85
g71
NtRp2894
(dp2895
g74
(dp2896
sg83
g79
sg76
(lp2897
g69
(g90
g71
NtRp2898
(dp2899
g74
(dp2900
g94
g95
ssg83
g2894
sg76
(lp2901
S'raw_args'
p2902
asbag69
(g90
g71
NtRp2903
(dp2904
g74
(dp2905
g101
g102
ssg83
g2894
sg76
(lp2906
S':'
asbag69
(g90
g71
NtRp2907
(dp2908
g74
(dp2909
sg83
g2894
sg76
(lp2910
g69
(g70
g71
NtRp2911
(dp2912
g74
(dp2913
g82
I5
ssg83
g2907
sg76
(lp2914
S'2'
asbasbasbag69
(g85
g71
NtRp2915
(dp2916
g74
(dp2917
sg83
g79
sg76
(lp2918
g69
(g90
g71
NtRp2919
(dp2920
g74
(dp2921
g94
g95
ssg83
g2915
sg76
(lp2922
S'raw_extension'
p2923
asbag69
(g90
g71
NtRp2924
(dp2925
g74
(dp2926
g101
g102
ssg83
g2915
sg76
(lp2927
S':'
asbag69
(g90
g71
NtRp2928
(dp2929
g74
(dp2930
sg83
g2915
sg76
(lp2931
g69
(g70
g71
NtRp2932
(dp2933
g74
(dp2934
g82
I5
ssg83
g2928
sg76
(lp2935
S'None'
p2936
asbasbasbag69
(g85
g71
NtRp2937
(dp2938
g74
(dp2939
sg83
g79
sg76
(lp2940
g69
(g90
g71
NtRp2941
(dp2942
g74
(dp2943
g94
g95
ssg83
g2937
sg76
(lp2944
S'url'
p2945
asbag69
(g90
g71
NtRp2946
(dp2947
g74
(dp2948
g101
g102
ssg83
g2937
sg76
(lp2949
S':'
asbag69
(g90
g71
NtRp2950
(dp2951
g74
(dp2952
sg83
g2937
sg76
(lp2953
g69
(g70
g71
NtRp2954
(dp2955
g74
(dp2956
g82
I5
ssg83
g2950
sg76
(lp2957
g1828
asbasbasbag69
(g85
g71
NtRp2958
(dp2959
g74
(dp2960
sg83
g79
sg76
(lp2961
g69
(g90
g71
NtRp2962
(dp2963
g74
(dp2964
g94
g95
ssg83
g2958
sg76
(lp2965
S'utcnow'
p2966
asbag69
(g90
g71
NtRp2967
(dp2968
g74
(dp2969
g101
g102
ssg83
g2958
sg76
(lp2970
S':'
asbag69
(g90
g71
NtRp2971
(dp2972
g74
(dp2973
sg83
g2958
sg76
(lp2974
g69
(g70
g71
NtRp2975
(dp2976
g74
(dp2977
g82
I5
ssg83
g2971
sg76
(lp2978
S'datetime.datetime(2012, 12, 8, 21, 49, 48, 12000)'
p2979
asbasbasbag69
(g85
g71
NtRp2980
(dp2981
g74
(dp2982
sg83
g79
sg76
(lp2983
g69
(g90
g71
NtRp2984
(dp2985
g74
(dp2986
g94
g95
ssg83
g2980
sg76
(lp2987
S'uuid'
p2988
asbag69
(g90
g71
NtRp2989
(dp2990
g74
(dp2991
g101
g102
ssg83
g2980
sg76
(lp2992
S':'
asbag69
(g90
g71
NtRp2993
(dp2994
g74
(dp2995
sg83
g2980
sg76
(lp2996
g69
(g70
g71
NtRp2997
(dp2998
g74
(dp2999
g82
I5
ssg83
g2993
sg76
(lp3000
S'rideshare/127.0.0.1.2012-12-08.13-49-48.d7cfa7ef-490f-4638-8416-2bc91359a177'
p3001
asbasbasbag69
(g85
g71
NtRp3002
(dp3003
g74
(dp3004
sg83
g79
sg76
(lp3005
g69
(g90
g71
NtRp3006
(dp3007
g74
(dp3008
g94
g95
ssg83
g3002
sg76
(lp3009
S'vars'
p3010
asbag69
(g90
g71
NtRp3011
(dp3012
g74
(dp3013
g101
g102
ssg83
g3002
sg76
(lp3014
S':'
asbag69
(g90
g71
NtRp3015
(dp3016
g74
(dp3017
sg83
g3002
sg76
(lp3018
g69
(g70
g71
NtRp3019
(dp3020
g74
(dp3021
g82
I5
ssg83
g3015
sg76
(lp3022
g69
(g78
g71
NtRp3023
(dp3024
g74
(dp3025
g82
I4
ssg83
Nsg76
(lp3026
sbasbasbasbag69
(g85
g71
NtRp3027
(dp3028
g74
(dp3029
sg83
g79
sg76
(lp3030
g69
(g90
g71
NtRp3031
(dp3032
g74
(dp3033
g94
g95
ssg83
g3027
sg76
(lp3034
S'wsgi'
p3035
asbag69
(g90
g71
NtRp3036
(dp3037
g74
(dp3038
g101
g102
ssg83
g3027
sg76
(lp3039
S':'
asbag69
(g90
g71
NtRp3040
(dp3041
g74
(dp3042
sg83
g3027
sg76
(lp3043
g69
(g70
g71
NtRp3044
(dp3045
g74
(dp3046
g82
I5
ssg83
g3040
sg76
(lp3047
g69
(g78
g71
NtRp3048
(dp3049
g74
(dp3050
g82
I4
ssg83
Nsg76
(lp3051
g69
(g85
g71
NtRp3052
(dp3053
g74
(dp3054
sg83
g3048
sg76
(lp3055
g69
(g90
g71
NtRp3056
(dp3057
g74
(dp3058
g94
g95
ssg83
g3052
sg76
(lp3059
S'environ'
p3060
asbag69
(g90
g71
NtRp3061
(dp3062
g74
(dp3063
g101
g102
ssg83
g3052
sg76
(lp3064
S':'
asbag69
(g90
g71
NtRp3065
(dp3066
g74
(dp3067
sg83
g3052
sg76
(lp3068
g69
(g70
g71
NtRp3069
(dp3070
g74
(dp3071
g82
I4
ssg83
g3065
sg76
(lp3072
g69
(g78
g71
NtRp3073
(dp3074
g74
(dp3075
g82
I3
ssg83
Nsg76
(lp3076
g69
(g85
g71
NtRp3077
(dp3078
g74
(dp3079
sg83
g3073
sg76
(lp3080
g69
(g90
g71
NtRp3081
(dp3082
g74
(dp3083
g94
g95
ssg83
g3077
sg76
(lp3084
S'HTTP_ACCEPT'
p3085
asbag69
(g90
g71
NtRp3086
(dp3087
g74
(dp3088
g101
g102
ssg83
g3077
sg76
(lp3089
S':'
asbag69
(g90
g71
NtRp3090
(dp3091
g74
(dp3092
sg83
g3077
sg76
(lp3093
g69
(g70
g71
NtRp3094
(dp3095
g74
(dp3096
g82
I3
ssg83
g3090
sg76
(lp3097
g1610
asbasbasbag69
(g85
g71
NtRp3098
(dp3099
g74
(dp3100
sg83
g3073
sg76
(lp3101
g69
(g90
g71
NtRp3102
(dp3103
g74
(dp3104
g94
g95
ssg83
g3098
sg76
(lp3105
S'HTTP_ACCEPT_ENCODING'
p3106
asbag69
(g90
g71
NtRp3107
(dp3108
g74
(dp3109
g101
g102
ssg83
g3098
sg76
(lp3110
S':'
asbag69
(g90
g71
NtRp3111
(dp3112
g74
(dp3113
sg83
g3098
sg76
(lp3114
g69
(g70
g71
NtRp3115
(dp3116
g74
(dp3117
g82
I3
ssg83
g3111
sg76
(lp3118
g1632
asbasbasbag69
(g85
g71
NtRp3119
(dp3120
g74
(dp3121
sg83
g3073
sg76
(lp3122
g69
(g90
g71
NtRp3123
(dp3124
g74
(dp3125
g94
g95
ssg83
g3119
sg76
(lp3126
S'HTTP_ACCEPT_LANGUAGE'
p3127
asbag69
(g90
g71
NtRp3128
(dp3129
g74
(dp3130
g101
g102
ssg83
g3119
sg76
(lp3131
S':'
asbag69
(g90
g71
NtRp3132
(dp3133
g74
(dp3134
sg83
g3119
sg76
(lp3135
g69
(g70
g71
NtRp3136
(dp3137
g74
(dp3138
g82
I3
ssg83
g3132
sg76
(lp3139
g1654
asbasbasbag69
(g85
g71
NtRp3140
(dp3141
g74
(dp3142
sg83
g3073
sg76
(lp3143
g69
(g90
g71
NtRp3144
(dp3145
g74
(dp3146
g94
g95
ssg83
g3140
sg76
(lp3147
S'HTTP_CONNECTION'
p3148
asbag69
(g90
g71
NtRp3149
(dp3150
g74
(dp3151
g101
g102
ssg83
g3140
sg76
(lp3152
S':'
asbag69
(g90
g71
NtRp3153
(dp3154
g74
(dp3155
sg83
g3140
sg76
(lp3156
g69
(g70
g71
NtRp3157
(dp3158
g74
(dp3159
g82
I3
ssg83
g3153
sg76
(lp3160
g1676
asbasbasbag69
(g85
g71
NtRp3161
(dp3162
g74
(dp3163
sg83
g3073
sg76
(lp3164
g69
(g90
g71
NtRp3165
(dp3166
g74
(dp3167
g94
g95
ssg83
g3161
sg76
(lp3168
S'HTTP_COOKIE'
p3169
asbag69
(g90
g71
NtRp3170
(dp3171
g74
(dp3172
g101
g102
ssg83
g3161
sg76
(lp3173
S':'
asbag69
(g90
g71
NtRp3174
(dp3175
g74
(dp3176
sg83
g3161
sg76
(lp3177
g69
(g70
g71
NtRp3178
(dp3179
g74
(dp3180
g82
I3
ssg83
g3174
sg76
(lp3181
g1698
asbasbasbag69
(g85
g71
NtRp3182
(dp3183
g74
(dp3184
sg83
g3073
sg76
(lp3185
g69
(g90
g71
NtRp3186
(dp3187
g74
(dp3188
g94
g95
ssg83
g3182
sg76
(lp3189
S'HTTP_HOST'
p3190
asbag69
(g90
g71
NtRp3191
(dp3192
g74
(dp3193
g101
g102
ssg83
g3182
sg76
(lp3194
S':'
asbag69
(g90
g71
NtRp3195
(dp3196
g74
(dp3197
sg83
g3182
sg76
(lp3198
g69
(g70
g71
NtRp3199
(dp3200
g74
(dp3201
g82
I3
ssg83
g3195
sg76
(lp3202
g1720
asbasbasbag69
(g85
g71
NtRp3203
(dp3204
g74
(dp3205
sg83
g3073
sg76
(lp3206
g69
(g90
g71
NtRp3207
(dp3208
g74
(dp3209
g94
g95
ssg83
g3203
sg76
(lp3210
S'HTTP_REFERER'
p3211
asbag69
(g90
g71
NtRp3212
(dp3213
g74
(dp3214
g101
g102
ssg83
g3203
sg76
(lp3215
S':'
asbag69
(g90
g71
NtRp3216
(dp3217
g74
(dp3218
sg83
g3203
sg76
(lp3219
g69
(g70
g71
NtRp3220
(dp3221
g74
(dp3222
g82
I3
ssg83
g3216
sg76
(lp3223
g1742
asbasbasbag69
(g85
g71
NtRp3224
(dp3225
g74
(dp3226
sg83
g3073
sg76
(lp3227
g69
(g90
g71
NtRp3228
(dp3229
g74
(dp3230
g94
g95
ssg83
g3224
sg76
(lp3231
S'HTTP_USER_AGENT'
p3232
asbag69
(g90
g71
NtRp3233
(dp3234
g74
(dp3235
g101
g102
ssg83
g3224
sg76
(lp3236
S':'
asbag69
(g90
g71
NtRp3237
(dp3238
g74
(dp3239
sg83
g3224
sg76
(lp3240
g69
(g70
g71
NtRp3241
(dp3242
g74
(dp3243
g82
I3
ssg83
g3237
sg76
(lp3244
g1764
asbasbasbag69
(g85
g71
NtRp3245
(dp3246
g74
(dp3247
sg83
g3073
sg76
(lp3248
g69
(g90
g71
NtRp3249
(dp3250
g74
(dp3251
g94
g95
ssg83
g3245
sg76
(lp3252
S'PATH_INFO'
p3253
asbag69
(g90
g71
NtRp3254
(dp3255
g74
(dp3256
g101
g102
ssg83
g3245
sg76
(lp3257
S':'
asbag69
(g90
g71
NtRp3258
(dp3259
g74
(dp3260
sg83
g3245
sg76
(lp3261
g69
(g70
g71
NtRp3262
(dp3263
g74
(dp3264
g82
I3
ssg83
g3258
sg76
(lp3265
g1828
asbasbasbag69
(g85
g71
NtRp3266
(dp3267
g74
(dp3268
sg83
g3073
sg76
(lp3269
g69
(g90
g71
NtRp3270
(dp3271
g74
(dp3272
g94
g95
ssg83
g3266
sg76
(lp3273
S'QUERY_STRING'
p3274
asbag69
(g90
g71
NtRp3275
(dp3276
g74
(dp3277
g101
g102
ssg83
g3266
sg76
(lp3278
S':'
asbag69
(g90
g71
NtRp3279
(dp3280
g74
(dp3281
sg83
g3266
sg76
(lp3282
g69
(g70
g71
NtRp3283
(dp3284
g74
(dp3285
g82
I3
ssg83
g3279
sg76
(lp3286
S''
asbasbasbag69
(g85
g71
NtRp3287
(dp3288
g74
(dp3289
sg83
g3073
sg76
(lp3290
g69
(g90
g71
NtRp3291
(dp3292
g74
(dp3293
g94
g95
ssg83
g3287
sg76
(lp3294
S'REMOTE_ADDR'
p3295
asbag69
(g90
g71
NtRp3296
(dp3297
g74
(dp3298
g101
g102
ssg83
g3287
sg76
(lp3299
S':'
asbag69
(g90
g71
NtRp3300
(dp3301
g74
(dp3302
sg83
g3287
sg76
(lp3303
g69
(g70
g71
NtRp3304
(dp3305
g74
(dp3306
g82
I3
ssg83
g3300
sg76
(lp3307
g236
asbasbasbag69
(g85
g71
NtRp3308
(dp3309
g74
(dp3310
sg83
g3073
sg76
(lp3311
g69
(g90
g71
NtRp3312
(dp3313
g74
(dp3314
g94
g95
ssg83
g3308
sg76
(lp3315
S'REMOTE_PORT'
p3316
asbag69
(g90
g71
NtRp3317
(dp3318
g74
(dp3319
g101
g102
ssg83
g3308
sg76
(lp3320
S':'
asbag69
(g90
g71
NtRp3321
(dp3322
g74
(dp3323
sg83
g3308
sg76
(lp3324
g69
(g70
g71
NtRp3325
(dp3326
g74
(dp3327
g82
I3
ssg83
g3321
sg76
(lp3328
g1892
asbasbasbag69
(g85
g71
NtRp3329
(dp3330
g74
(dp3331
sg83
g3073
sg76
(lp3332
g69
(g90
g71
NtRp3333
(dp3334
g74
(dp3335
g94
g95
ssg83
g3329
sg76
(lp3336
S'REQUEST_METHOD'
p3337
asbag69
(g90
g71
NtRp3338
(dp3339
g74
(dp3340
g101
g102
ssg83
g3329
sg76
(lp3341
S':'
asbag69
(g90
g71
NtRp3342
(dp3343
g74
(dp3344
sg83
g3329
sg76
(lp3345
g69
(g70
g71
NtRp3346
(dp3347
g74
(dp3348
g82
I3
ssg83
g3342
sg76
(lp3349
g1914
asbasbasbag69
(g85
g71
NtRp3350
(dp3351
g74
(dp3352
sg83
g3073
sg76
(lp3353
g69
(g90
g71
NtRp3354
(dp3355
g74
(dp3356
g94
g95
ssg83
g3350
sg76
(lp3357
S'REQUEST_URI'
p3358
asbag69
(g90
g71
NtRp3359
(dp3360
g74
(dp3361
g101
g102
ssg83
g3350
sg76
(lp3362
S':'
asbag69
(g90
g71
NtRp3363
(dp3364
g74
(dp3365
sg83
g3350
sg76
(lp3366
g69
(g70
g71
NtRp3367
(dp3368
g74
(dp3369
g82
I3
ssg83
g3363
sg76
(lp3370
g1828
asbasbasbag69
(g85
g71
NtRp3371
(dp3372
g74
(dp3373
sg83
g3073
sg76
(lp3374
g69
(g90
g71
NtRp3375
(dp3376
g74
(dp3377
g94
g95
ssg83
g3371
sg76
(lp3378
S'SCRIPT_NAME'
p3379
asbag69
(g90
g71
NtRp3380
(dp3381
g74
(dp3382
g101
g102
ssg83
g3371
sg76
(lp3383
S':'
asbag69
(g90
g71
NtRp3384
(dp3385
g74
(dp3386
sg83
g3371
sg76
(lp3387
g69
(g70
g71
NtRp3388
(dp3389
g74
(dp3390
g82
I3
ssg83
g3384
sg76
(lp3391
S''
asbasbasbag69
(g85
g71
NtRp3392
(dp3393
g74
(dp3394
sg83
g3073
sg76
(lp3395
g69
(g90
g71
NtRp3396
(dp3397
g74
(dp3398
g94
g95
ssg83
g3392
sg76
(lp3399
S'SERVER_NAME'
p3400
asbag69
(g90
g71
NtRp3401
(dp3402
g74
(dp3403
g101
g102
ssg83
g3392
sg76
(lp3404
S':'
asbag69
(g90
g71
NtRp3405
(dp3406
g74
(dp3407
sg83
g3392
sg76
(lp3408
g69
(g70
g71
NtRp3409
(dp3410
g74
(dp3411
g82
I3
ssg83
g3405
sg76
(lp3412
g1978
asbasbasbag69
(g85
g71
NtRp3413
(dp3414
g74
(dp3415
sg83
g3073
sg76
(lp3416
g69
(g90
g71
NtRp3417
(dp3418
g74
(dp3419
g94
g95
ssg83
g3413
sg76
(lp3420
S'SERVER_PORT'
p3421
asbag69
(g90
g71
NtRp3422
(dp3423
g74
(dp3424
g101
g102
ssg83
g3413
sg76
(lp3425
S':'
asbag69
(g90
g71
NtRp3426
(dp3427
g74
(dp3428
sg83
g3413
sg76
(lp3429
g69
(g70
g71
NtRp3430
(dp3431
g74
(dp3432
g82
I3
ssg83
g3426
sg76
(lp3433
g2000
asbasbasbag69
(g85
g71
NtRp3434
(dp3435
g74
(dp3436
sg83
g3073
sg76
(lp3437
g69
(g90
g71
NtRp3438
(dp3439
g74
(dp3440
g94
g95
ssg83
g3434
sg76
(lp3441
S'SERVER_PROTOCOL'
p3442
asbag69
(g90
g71
NtRp3443
(dp3444
g74
(dp3445
g101
g102
ssg83
g3434
sg76
(lp3446
S':'
asbag69
(g90
g71
NtRp3447
(dp3448
g74
(dp3449
sg83
g3434
sg76
(lp3450
g69
(g70
g71
NtRp3451
(dp3452
g74
(dp3453
g82
I3
ssg83
g3447
sg76
(lp3454
g2022
asbasbasbag69
(g85
g71
NtRp3455
(dp3456
g74
(dp3457
sg83
g3073
sg76
(lp3458
g69
(g90
g71
NtRp3459
(dp3460
g74
(dp3461
g94
g95
ssg83
g3455
sg76
(lp3462
S'SERVER_SOFTWARE'
p3463
asbag69
(g90
g71
NtRp3464
(dp3465
g74
(dp3466
g101
g102
ssg83
g3455
sg76
(lp3467
S':'
asbag69
(g90
g71
NtRp3468
(dp3469
g74
(dp3470
sg83
g3455
sg76
(lp3471
g69
(g70
g71
NtRp3472
(dp3473
g74
(dp3474
g82
I3
ssg83
g3468
sg76
(lp3475
g2044
asbasbasbag69
(g85
g71
NtRp3476
(dp3477
g74
(dp3478
sg83
g3073
sg76
(lp3479
g69
(g90
g71
NtRp3480
(dp3481
g74
(dp3482
g94
g95
ssg83
g3476
sg76
(lp3483
S'wsgi.errors'
p3484
asbag69
(g90
g71
NtRp3485
(dp3486
g74
(dp3487
g101
g102
ssg83
g3476
sg76
(lp3488
S':'
asbag69
(g90
g71
NtRp3489
(dp3490
g74
(dp3491
sg83
g3476
sg76
(lp3492
g69
(g70
g71
NtRp3493
(dp3494
g74
(dp3495
g82
I3
ssg83
g3489
sg76
(lp3496
S"<open file '<stderr>', mode 'w' at 0x01DA50D0>"
p3497
asbasbasbag69
(g85
g71
NtRp3498
(dp3499
g74
(dp3500
sg83
g3073
sg76
(lp3501
g69
(g90
g71
NtRp3502
(dp3503
g74
(dp3504
g94
g95
ssg83
g3498
sg76
(lp3505
S'wsgi.file_wrapper'
p3506
asbag69
(g90
g71
NtRp3507
(dp3508
g74
(dp3509
g101
g102
ssg83
g3498
sg76
(lp3510
S':'
asbag69
(g90
g71
NtRp3511
(dp3512
g74
(dp3513
sg83
g3498
sg76
(lp3514
g69
(g70
g71
NtRp3515
(dp3516
g74
(dp3517
g82
I3
ssg83
g3511
sg76
(lp3518
S'<class wsgiref.util.FileWrapper at 0x02B58688>'
p3519
asbasbasbag69
(g85
g71
NtRp3520
(dp3521
g74
(dp3522
sg83
g3073
sg76
(lp3523
g69
(g90
g71
NtRp3524
(dp3525
g74
(dp3526
g94
g95
ssg83
g3520
sg76
(lp3527
S'wsgi.input'
p3528
asbag69
(g90
g71
NtRp3529
(dp3530
g74
(dp3531
g101
g102
ssg83
g3520
sg76
(lp3532
S':'
asbag69
(g90
g71
NtRp3533
(dp3534
g74
(dp3535
sg83
g3520
sg76
(lp3536
g69
(g70
g71
NtRp3537
(dp3538
g74
(dp3539
g82
I3
ssg83
g3533
sg76
(lp3540
S'<cStringIO.StringO object at 0x07235660>'
p3541
asbasbasbag69
(g85
g71
NtRp3542
(dp3543
g74
(dp3544
sg83
g3073
sg76
(lp3545
g69
(g90
g71
NtRp3546
(dp3547
g74
(dp3548
g94
g95
ssg83
g3542
sg76
(lp3549
S'wsgi.multiprocess'
p3550
asbag69
(g90
g71
NtRp3551
(dp3552
g74
(dp3553
g101
g102
ssg83
g3542
sg76
(lp3554
S':'
asbag69
(g90
g71
NtRp3555
(dp3556
g74
(dp3557
sg83
g3542
sg76
(lp3558
g69
(g70
g71
NtRp3559
(dp3560
g74
(dp3561
g82
I3
ssg83
g3555
sg76
(lp3562
g112
asbasbasbag69
(g85
g71
NtRp3563
(dp3564
g74
(dp3565
sg83
g3073
sg76
(lp3566
g69
(g90
g71
NtRp3567
(dp3568
g74
(dp3569
g94
g95
ssg83
g3563
sg76
(lp3570
S'wsgi.multithread'
p3571
asbag69
(g90
g71
NtRp3572
(dp3573
g74
(dp3574
g101
g102
ssg83
g3563
sg76
(lp3575
S':'
asbag69
(g90
g71
NtRp3576
(dp3577
g74
(dp3578
sg83
g3563
sg76
(lp3579
g69
(g70
g71
NtRp3580
(dp3581
g74
(dp3582
g82
I3
ssg83
g3576
sg76
(lp3583
g2283
asbasbasbag69
(g85
g71
NtRp3584
(dp3585
g74
(dp3586
sg83
g3073
sg76
(lp3587
g69
(g90
g71
NtRp3588
(dp3589
g74
(dp3590
g94
g95
ssg83
g3584
sg76
(lp3591
S'wsgi.run_once'
p3592
asbag69
(g90
g71
NtRp3593
(dp3594
g74
(dp3595
g101
g102
ssg83
g3584
sg76
(lp3596
S':'
asbag69
(g90
g71
NtRp3597
(dp3598
g74
(dp3599
sg83
g3584
sg76
(lp3600
g69
(g70
g71
NtRp3601
(dp3602
g74
(dp3603
g82
I3
ssg83
g3597
sg76
(lp3604
g112
asbasbasbag69
(g85
g71
NtRp3605
(dp3606
g74
(dp3607
sg83
g3073
sg76
(lp3608
g69
(g90
g71
NtRp3609
(dp3610
g74
(dp3611
g94
g95
ssg83
g3605
sg76
(lp3612
S'wsgi.url_scheme'
p3613
asbag69
(g90
g71
NtRp3614
(dp3615
g74
(dp3616
g101
g102
ssg83
g3605
sg76
(lp3617
S':'
asbag69
(g90
g71
NtRp3618
(dp3619
g74
(dp3620
sg83
g3605
sg76
(lp3621
g69
(g70
g71
NtRp3622
(dp3623
g74
(dp3624
g82
I3
ssg83
g3618
sg76
(lp3625
g2326
asbasbasbag69
(g85
g71
NtRp3626
(dp3627
g74
(dp3628
sg83
g3073
sg76
(lp3629
g69
(g90
g71
NtRp3630
(dp3631
g74
(dp3632
g94
g95
ssg83
g3626
sg76
(lp3633
S'wsgi.version'
p3634
asbag69
(g90
g71
NtRp3635
(dp3636
g74
(dp3637
g101
g102
ssg83
g3626
sg76
(lp3638
S':'
asbag69
(g90
g71
NtRp3639
(dp3640
g74
(dp3641
sg83
g3626
sg76
(lp3642
g69
(g70
g71
NtRp3643
(dp3644
g74
(dp3645
g82
I3
ssg83
g3639
sg76
(lp3646
S'1'
asbasbasbasbasbasbasbasbasbasbasbasbasbsS'frames'
p3647
(lp3648
(dp3649
S'file'
p3650
S'C:\\Users\\Owner\\Desktop\\web2py\\gluon\\restricted.py'
p3651
sS'dump'
p3652
(dp3653
sS'lnum'
p3654
I208
sS'lines'
p3655
(dp3656
sS'call'
p3657
S'(code=\'response.write(\\\'<!DOCTYPE html PUBLIC "-//W3C//D... #footer -->\\\\n </body>\\\\n</html>\\\\n\\\', escape=False)\', environment={\'A\': <class \'gluon.html.A\'>, \'Auth\': <class \'gluon.tools.Auth\'>, \'B\': <class \'gluon.html.B\'>, \'BEAUTIFY\': <class \'gluon.html.BEAUTIFY\'>, \'BODY\': <class \'gluon.html.BODY\'>, \'BR\': <class \'gluon.html.BR\'>, \'BUTTON\': <class \'gluon.html.BUTTON\'>, \'CAT\': <class \'gluon.html.CAT\'>, \'CENTER\': <class \'gluon.html.CENTER\'>, \'CLEANUP\': <class \'gluon.validators.CLEANUP\'>, ...}, layer=r\'C:\\Users\\Owner\\Desktop\\web2py\\applications\\rideshare\\views\\default/view.html\')'
p3658
sS'func'
p3659
S'restricted'
p3660
sa(dp3661
g3650
S'C:\\Users\\Owner\\Desktop\\web2py\\gluon\\restricted.py'
p3662
sg3652
(dp3663
sg3654
I193
sg3655
(dp3664
sg3657
S'(code=\'response.write(\\\'<!DOCTYPE html PUBLIC "-//W3C//D... #footer -->\\\\n </body>\\\\n</html>\\\\n\\\', escape=False)\', layer=r\'C:\\Users\\Owner\\Desktop\\web2py\\applications\\rideshare\\views\\default/view.html\')'
p3665
sg3659
S'compile2'
p3666
sasS'pyver'
p3667
S'Python 2.7: C:\\Users\\Owner\\Desktop\\web2py\\web2py.exe'
p3668
sS'session'
p3669
g69
(g70
g71
NtRp3670
(dp3671
g74
(dp3672
sg76
(lp3673
g69
(g78
g71
NtRp3674
(dp3675
g74
(dp3676
g82
I5
ssg83
Nsg76
(lp3677
g69
(g85
g71
NtRp3678
(dp3679
g74
(dp3680
sg83
g3674
sg76
(lp3681
g69
(g90
g71
NtRp3682
(dp3683
g74
(dp3684
g94
g95
ssg83
g3678
sg76
(lp3685
S'auth'
p3686
asbag69
(g90
g71
NtRp3687
(dp3688
g74
(dp3689
g101
g102
ssg83
g3678
sg76
(lp3690
S':'
asbag69
(g90
g71
NtRp3691
(dp3692
g74
(dp3693
sg83
g3678
sg76
(lp3694
g69
(g70
g71
NtRp3695
(dp3696
g74
(dp3697
g82
I5
ssg83
g3691
sg76
(lp3698
g69
(g78
g71
NtRp3699
(dp3700
g74
(dp3701
g82
I4
ssg83
Nsg76
(lp3702
g69
(g85
g71
NtRp3703
(dp3704
g74
(dp3705
sg83
g3699
sg76
(lp3706
g69
(g90
g71
NtRp3707
(dp3708
g74
(dp3709
g94
g95
ssg83
g3703
sg76
(lp3710
S'expiration'
p3711
asbag69
(g90
g71
NtRp3712
(dp3713
g74
(dp3714
g101
g102
ssg83
g3703
sg76
(lp3715
S':'
asbag69
(g90
g71
NtRp3716
(dp3717
g74
(dp3718
sg83
g3703
sg76
(lp3719
g69
(g70
g71
NtRp3720
(dp3721
g74
(dp3722
g82
I4
ssg83
g3716
sg76
(lp3723
S'3600'
p3724
asbasbasbag69
(g85
g71
NtRp3725
(dp3726
g74
(dp3727
sg83
g3699
sg76
(lp3728
g69
(g90
g71
NtRp3729
(dp3730
g74
(dp3731
g94
g95
ssg83
g3725
sg76
(lp3732
S'hmac_key'
p3733
asbag69
(g90
g71
NtRp3734
(dp3735
g74
(dp3736
g101
g102
ssg83
g3725
sg76
(lp3737
S':'
asbag69
(g90
g71
NtRp3738
(dp3739
g74
(dp3740
sg83
g3725
sg76
(lp3741
g69
(g70
g71
NtRp3742
(dp3743
g74
(dp3744
g82
I4
ssg83
g3738
sg76
(lp3745
S'472464cd-9395-4439-900a-4759706a6793'
p3746
asbasbasbag69
(g85
g71
NtRp3747
(dp3748
g74
(dp3749
sg83
g3699
sg76
(lp3750
g69
(g90
g71
NtRp3751
(dp3752
g74
(dp3753
g94
g95
ssg83
g3747
sg76
(lp3754
S'last_visit'
p3755
asbag69
(g90
g71
NtRp3756
(dp3757
g74
(dp3758
g101
g102
ssg83
g3747
sg76
(lp3759
S':'
asbag69
(g90
g71
NtRp3760
(dp3761
g74
(dp3762
sg83
g3747
sg76
(lp3763
g69
(g70
g71
NtRp3764
(dp3765
g74
(dp3766
g82
I4
ssg83
g3760
sg76
(lp3767
S'datetime.datetime(2012, 12, 8, 13, 49, 42, 513000)'
p3768
asbasbasbag69
(g85
g71
NtRp3769
(dp3770
g74
(dp3771
sg83
g3699
sg76
(lp3772
g69
(g90
g71
NtRp3773
(dp3774
g74
(dp3775
g94
g95
ssg83
g3769
sg76
(lp3776
S'remember'
p3777
asbag69
(g90
g71
NtRp3778
(dp3779
g74
(dp3780
g101
g102
ssg83
g3769
sg76
(lp3781
S':'
asbag69
(g90
g71
NtRp3782
(dp3783
g74
(dp3784
sg83
g3769
sg76
(lp3785
g69
(g70
g71
NtRp3786
(dp3787
g74
(dp3788
g82
I4
ssg83
g3782
sg76
(lp3789
g112
asbasbasbag69
(g85
g71
NtRp3790
(dp3791
g74
(dp3792
sg83
g3699
sg76
(lp3793
g69
(g90
g71
NtRp3794
(dp3795
g74
(dp3796
g94
g95
ssg83
g3790
sg76
(lp3797
S'user'
p3798
asbag69
(g90
g71
NtRp3799
(dp3800
g74
(dp3801
g101
g102
ssg83
g3790
sg76
(lp3802
S':'
asbag69
(g90
g71
NtRp3803
(dp3804
g74
(dp3805
sg83
g3790
sg76
(lp3806
g69
(g70
g71
NtRp3807
(dp3808
g74
(dp3809
g82
I4
ssg83
g3803
sg76
(lp3810
g69
(g78
g71
NtRp3811
(dp3812
g74
(dp3813
g82
I3
ssg83
Nsg76
(lp3814
g69
(g85
g71
NtRp3815
(dp3816
g74
(dp3817
sg83
g3811
sg76
(lp3818
g69
(g90
g71
NtRp3819
(dp3820
g74
(dp3821
g94
g95
ssg83
g3815
sg76
(lp3822
S'about_me'
p3823
asbag69
(g90
g71
NtRp3824
(dp3825
g74
(dp3826
g101
g102
ssg83
g3815
sg76
(lp3827
S':'
asbag69
(g90
g71
NtRp3828
(dp3829
g74
(dp3830
sg83
g3815
sg76
(lp3831
g69
(g70
g71
NtRp3832
(dp3833
g74
(dp3834
g82
I3
ssg83
g3828
sg76
(lp3835
S''
asbasbasbag69
(g85
g71
NtRp3836
(dp3837
g74
(dp3838
sg83
g3811
sg76
(lp3839
g69
(g90
g71
NtRp3840
(dp3841
g74
(dp3842
g94
g95
ssg83
g3836
sg76
(lp3843
S'email'
p3844
asbag69
(g90
g71
NtRp3845
(dp3846
g74
(dp3847
g101
g102
ssg83
g3836
sg76
(lp3848
S':'
asbag69
(g90
g71
NtRp3849
(dp3850
g74
(dp3851
sg83
g3836
sg76
(lp3852
g69
(g70
g71
NtRp3853
(dp3854
g74
(dp3855
g82
I3
ssg83
g3849
sg76
(lp3856
S'eboning@ucsc.edu'
p3857
asbasbasbag69
(g85
g71
NtRp3858
(dp3859
g74
(dp3860
sg83
g3811
sg76
(lp3861
g69
(g90
g71
NtRp3862
(dp3863
g74
(dp3864
g94
g95
ssg83
g3858
sg76
(lp3865
S'first_name'
p3866
asbag69
(g90
g71
NtRp3867
(dp3868
g74
(dp3869
g101
g102
ssg83
g3858
sg76
(lp3870
S':'
asbag69
(g90
g71
NtRp3871
(dp3872
g74
(dp3873
sg83
g3858
sg76
(lp3874
g69
(g70
g71
NtRp3875
(dp3876
g74
(dp3877
g82
I3
ssg83
g3871
sg76
(lp3878
S'Edward'
p3879
asbasbasbag69
(g85
g71
NtRp3880
(dp3881
g74
(dp3882
sg83
g3811
sg76
(lp3883
g69
(g90
g71
NtRp3884
(dp3885
g74
(dp3886
g94
g95
ssg83
g3880
sg76
(lp3887
S'id'
p3888
asbag69
(g90
g71
NtRp3889
(dp3890
g74
(dp3891
g101
g102
ssg83
g3880
sg76
(lp3892
S':'
asbag69
(g90
g71
NtRp3893
(dp3894
g74
(dp3895
sg83
g3880
sg76
(lp3896
g69
(g70
g71
NtRp3897
(dp3898
g74
(dp3899
g82
I3
ssg83
g3893
sg76
(lp3900
S'1'
asbasbasbag69
(g85
g71
NtRp3901
(dp3902
g74
(dp3903
sg83
g3811
sg76
(lp3904
g69
(g90
g71
NtRp3905
(dp3906
g74
(dp3907
g94
g95
ssg83
g3901
sg76
(lp3908
S'last_name'
p3909
asbag69
(g90
g71
NtRp3910
(dp3911
g74
(dp3912
g101
g102
ssg83
g3901
sg76
(lp3913
S':'
asbag69
(g90
g71
NtRp3914
(dp3915
g74
(dp3916
sg83
g3901
sg76
(lp3917
g69
(g70
g71
NtRp3918
(dp3919
g74
(dp3920
g82
I3
ssg83
g3914
sg76
(lp3921
S'Boning'
p3922
asbasbasbag69
(g85
g71
NtRp3923
(dp3924
g74
(dp3925
sg83
g3811
sg76
(lp3926
g69
(g90
g71
NtRp3927
(dp3928
g74
(dp3929
g94
g95
ssg83
g3923
sg76
(lp3930
S'password'
p3931
asbag69
(g90
g71
NtRp3932
(dp3933
g74
(dp3934
g101
g102
ssg83
g3923
sg76
(lp3935
S':'
asbag69
(g90
g71
NtRp3936
(dp3937
g74
(dp3938
sg83
g3923
sg76
(lp3939
g69
(g70
g71
NtRp3940
(dp3941
g74
(dp3942
g82
I3
ssg83
g3936
sg76
(lp3943
S'pbkdf2(1000,20,sha512)$b367d07c7776fb45$c6edd021b60c614339a13d17b76daaf37c67e949'
p3944
asbasbasbag69
(g85
g71
NtRp3945
(dp3946
g74
(dp3947
sg83
g3811
sg76
(lp3948
g69
(g90
g71
NtRp3949
(dp3950
g74
(dp3951
g94
g95
ssg83
g3945
sg76
(lp3952
S'profile_picture'
p3953
asbag69
(g90
g71
NtRp3954
(dp3955
g74
(dp3956
g101
g102
ssg83
g3945
sg76
(lp3957
S':'
asbag69
(g90
g71
NtRp3958
(dp3959
g74
(dp3960
sg83
g3945
sg76
(lp3961
g69
(g70
g71
NtRp3962
(dp3963
g74
(dp3964
g82
I3
ssg83
g3958
sg76
(lp3965
S''
asbasbasbag69
(g85
g71
NtRp3966
(dp3967
g74
(dp3968
sg83
g3811
sg76
(lp3969
g69
(g90
g71
NtRp3970
(dp3971
g74
(dp3972
g94
g95
ssg83
g3966
sg76
(lp3973
S'registration_id'
p3974
asbag69
(g90
g71
NtRp3975
(dp3976
g74
(dp3977
g101
g102
ssg83
g3966
sg76
(lp3978
S':'
asbag69
(g90
g71
NtRp3979
(dp3980
g74
(dp3981
sg83
g3966
sg76
(lp3982
g69
(g70
g71
NtRp3983
(dp3984
g74
(dp3985
g82
I3
ssg83
g3979
sg76
(lp3986
S''
asbasbasbag69
(g85
g71
NtRp3987
(dp3988
g74
(dp3989
sg83
g3811
sg76
(lp3990
g69
(g90
g71
NtRp3991
(dp3992
g74
(dp3993
g94
g95
ssg83
g3987
sg76
(lp3994
S'registration_key'
p3995
asbag69
(g90
g71
NtRp3996
(dp3997
g74
(dp3998
g101
g102
ssg83
g3987
sg76
(lp3999
S':'
asbag69
(g90
g71
NtRp4000
(dp4001
g74
(dp4002
sg83
g3987
sg76
(lp4003
g69
(g70
g71
NtRp4004
(dp4005
g74
(dp4006
g82
I3
ssg83
g4000
sg76
(lp4007
S''
asbasbasbag69
(g85
g71
NtRp4008
(dp4009
g74
(dp4010
sg83
g3811
sg76
(lp4011
g69
(g90
g71
NtRp4012
(dp4013
g74
(dp4014
g94
g95
ssg83
g4008
sg76
(lp4015
S'reset_password_key'
p4016
asbag69
(g90
g71
NtRp4017
(dp4018
g74
(dp4019
g101
g102
ssg83
g4008
sg76
(lp4020
S':'
asbag69
(g90
g71
NtRp4021
(dp4022
g74
(dp4023
sg83
g4008
sg76
(lp4024
g69
(g70
g71
NtRp4025
(dp4026
g74
(dp4027
g82
I3
ssg83
g4021
sg76
(lp4028
S''
asbasbasbag69
(g85
g71
NtRp4029
(dp4030
g74
(dp4031
sg83
g3811
sg76
(lp4032
g69
(g90
g71
NtRp4033
(dp4034
g74
(dp4035
g94
g95
ssg83
g4029
sg76
(lp4036
S'sex'
p4037
asbag69
(g90
g71
NtRp4038
(dp4039
g74
(dp4040
g101
g102
ssg83
g4029
sg76
(lp4041
S':'
asbag69
(g90
g71
NtRp4042
(dp4043
g74
(dp4044
sg83
g4029
sg76
(lp4045
g69
(g70
g71
NtRp4046
(dp4047
g74
(dp4048
g82
I3
ssg83
g4042
sg76
(lp4049
S'Male'
p4050
asbasbasbasbasbasbasbag69
(g85
g71
NtRp4051
(dp4052
g74
(dp4053
sg83
g3699
sg76
(lp4054
g69
(g90
g71
NtRp4055
(dp4056
g74
(dp4057
g94
g95
ssg83
g4051
sg76
(lp4058
S'user_groups'
p4059
asbag69
(g90
g71
NtRp4060
(dp4061
g74
(dp4062
g101
g102
ssg83
g4051
sg76
(lp4063
S':'
asbag69
(g90
g71
NtRp4064
(dp4065
g74
(dp4066
sg83
g4051
sg76
(lp4067
g69
(g70
g71
NtRp4068
(dp4069
g74
(dp4070
g82
I4
ssg83
g4064
sg76
(lp4071
g69
(g78
g71
NtRp4072
(dp4073
g74
(dp4074
g82
I3
ssg83
Nsg76
(lp4075
g69
(g85
g71
NtRp4076
(dp4077
g74
(dp4078
sg83
g4072
sg76
(lp4079
g69
(g90
g71
NtRp4080
(dp4081
g74
(dp4082
g94
g95
ssg83
g4076
sg76
(lp4083
S'1'
asbag69
(g90
g71
NtRp4084
(dp4085
g74
(dp4086
g101
g102
ssg83
g4076
sg76
(lp4087
S':'
asbag69
(g90
g71
NtRp4088
(dp4089
g74
(dp4090
sg83
g4076
sg76
(lp4091
g69
(g70
g71
NtRp4092
(dp4093
g74
(dp4094
g82
I3
ssg83
g4088
sg76
(lp4095
S'user_1'
p4096
asbasbasbasbasbasbasbasbasbasbasbag69
(g85
g71
NtRp4097
(dp4098
g74
(dp4099
sg83
g3674
sg76
(lp4100
g69
(g90
g71
NtRp4101
(dp4102
g74
(dp4103
g94
g95
ssg83
g4097
sg76
(lp4104
S'flash'
p4105
asbag69
(g90
g71
NtRp4106
(dp4107
g74
(dp4108
g101
g102
ssg83
g4097
sg76
(lp4109
S':'
asbag69
(g90
g71
NtRp4110
(dp4111
g74
(dp4112
sg83
g4097
sg76
(lp4113
g69
(g70
g71
NtRp4114
(dp4115
g74
(dp4116
g82
I5
ssg83
g4110
sg76
(lp4117
S'None'
p4118
asbasbasbasbasbsS'etype'
p4119
S"<type 'exceptions.SyntaxError'>"
p4120
sS'date'
p4121
S'Sat Dec 08 13:49:48 2012'
p4122
sS'response'
p4123
g69
(g70
g71
NtRp4124
(dp4125
g74
(dp4126
sg76
(lp4127
g69
(g78
g71
NtRp4128
(dp4129
g74
(dp4130
g82
I5
ssg83
Nsg76
(lp4131
g69
(g85
g71
NtRp4132
(dp4133
g74
(dp4134
sg83
g4128
sg76
(lp4135
g69
(g90
g71
NtRp4136
(dp4137
g74
(dp4138
g94
g95
ssg83
g4132
sg76
(lp4139
g179
asbag69
(g90
g71
NtRp4140
(dp4141
g74
(dp4142
g101
g102
ssg83
g4132
sg76
(lp4143
S':'
asbag69
(g90
g71
NtRp4144
(dp4145
g74
(dp4146
sg83
g4132
sg76
(lp4147
g69
(g70
g71
NtRp4148
(dp4149
g74
(dp4150
g82
I5
ssg83
g4144
sg76
(lp4151
S'<cStringIO.StringO object at 0x07918F80>'
p4152
asbasbasbag69
(g85
g71
NtRp4153
(dp4154
g74
(dp4155
sg83
g4128
sg76
(lp4156
g69
(g90
g71
NtRp4157
(dp4158
g74
(dp4159
g94
g95
ssg83
g4153
sg76
(lp4160
g267
asbag69
(g90
g71
NtRp4161
(dp4162
g74
(dp4163
g101
g102
ssg83
g4153
sg76
(lp4164
S':'
asbag69
(g90
g71
NtRp4165
(dp4166
g74
(dp4167
sg83
g4153
sg76
(lp4168
g69
(g70
g71
NtRp4169
(dp4170
g74
(dp4171
g82
I5
ssg83
g4165
sg76
(lp4172
g69
(g78
g71
NtRp4173
(dp4174
g74
(dp4175
g82
I4
ssg83
Nsg76
(lp4176
g69
(g85
g71
NtRp4177
(dp4178
g74
(dp4179
sg83
g4173
sg76
(lp4180
g69
(g90
g71
NtRp4181
(dp4182
g74
(dp4183
g94
g95
ssg83
g4177
sg76
(lp4184
S'session_id_rideshare'
p4185
asbag69
(g90
g71
NtRp4186
(dp4187
g74
(dp4188
g101
g102
ssg83
g4177
sg76
(lp4189
S':'
asbag69
(g90
g71
NtRp4190
(dp4191
g74
(dp4192
sg83
g4177
sg76
(lp4193
g69
(g70
g71
NtRp4194
(dp4195
g74
(dp4196
g82
I4
ssg83
g4190
sg76
(lp4197
g685
ag69
(g78
g71
NtRp4198
(dp4199
g74
(dp4200
g82
I3
ssg83
Nsg76
(lp4201
g69
(g85
g71
NtRp4202
(dp4203
g74
(dp4204
sg83
g4198
sg76
(lp4205
g69
(g90
g71
NtRp4206
(dp4207
g74
(dp4208
g94
g95
ssg83
g4202
sg76
(lp4209
g318
asbag69
(g90
g71
NtRp4210
(dp4211
g74
(dp4212
g101
g102
ssg83
g4202
sg76
(lp4213
S':'
asbag69
(g90
g71
NtRp4214
(dp4215
g74
(dp4216
sg83
g4202
sg76
(lp4217
g69
(g70
g71
NtRp4218
(dp4219
g74
(dp4220
g82
I3
ssg83
g4214
sg76
(lp4221
S''
asbasbasbag69
(g85
g71
NtRp4222
(dp4223
g74
(dp4224
sg83
g4198
sg76
(lp4225
g69
(g90
g71
NtRp4226
(dp4227
g74
(dp4228
g94
g95
ssg83
g4222
sg76
(lp4229
g339
asbag69
(g90
g71
NtRp4230
(dp4231
g74
(dp4232
g101
g102
ssg83
g4222
sg76
(lp4233
S':'
asbag69
(g90
g71
NtRp4234
(dp4235
g74
(dp4236
sg83
g4222
sg76
(lp4237
g69
(g70
g71
NtRp4238
(dp4239
g74
(dp4240
g82
I3
ssg83
g4234
sg76
(lp4241
S''
asbasbasbag69
(g85
g71
NtRp4242
(dp4243
g74
(dp4244
sg83
g4198
sg76
(lp4245
g69
(g90
g71
NtRp4246
(dp4247
g74
(dp4248
g94
g95
ssg83
g4242
sg76
(lp4249
g360
asbag69
(g90
g71
NtRp4250
(dp4251
g74
(dp4252
g101
g102
ssg83
g4242
sg76
(lp4253
S':'
asbag69
(g90
g71
NtRp4254
(dp4255
g74
(dp4256
sg83
g4242
sg76
(lp4257
g69
(g70
g71
NtRp4258
(dp4259
g74
(dp4260
g82
I3
ssg83
g4254
sg76
(lp4261
S''
asbasbasbag69
(g85
g71
NtRp4262
(dp4263
g74
(dp4264
sg83
g4198
sg76
(lp4265
g69
(g90
g71
NtRp4266
(dp4267
g74
(dp4268
g94
g95
ssg83
g4262
sg76
(lp4269
g381
asbag69
(g90
g71
NtRp4270
(dp4271
g74
(dp4272
g101
g102
ssg83
g4262
sg76
(lp4273
S':'
asbag69
(g90
g71
NtRp4274
(dp4275
g74
(dp4276
sg83
g4262
sg76
(lp4277
g69
(g70
g71
NtRp4278
(dp4279
g74
(dp4280
g82
I3
ssg83
g4274
sg76
(lp4281
S''
asbasbasbag69
(g85
g71
NtRp4282
(dp4283
g74
(dp4284
sg83
g4198
sg76
(lp4285
g69
(g90
g71
NtRp4286
(dp4287
g74
(dp4288
g94
g95
ssg83
g4282
sg76
(lp4289
g402
asbag69
(g90
g71
NtRp4290
(dp4291
g74
(dp4292
g101
g102
ssg83
g4282
sg76
(lp4293
S':'
asbag69
(g90
g71
NtRp4294
(dp4295
g74
(dp4296
sg83
g4282
sg76
(lp4297
g69
(g70
g71
NtRp4298
(dp4299
g74
(dp4300
g82
I3
ssg83
g4294
sg76
(lp4301
S''
asbasbasbag69
(g85
g71
NtRp4302
(dp4303
g74
(dp4304
sg83
g4198
sg76
(lp4305
g69
(g90
g71
NtRp4306
(dp4307
g74
(dp4308
g94
g95
ssg83
g4302
sg76
(lp4309
g423
asbag69
(g90
g71
NtRp4310
(dp4311
g74
(dp4312
g101
g102
ssg83
g4302
sg76
(lp4313
S':'
asbag69
(g90
g71
NtRp4314
(dp4315
g74
(dp4316
sg83
g4302
sg76
(lp4317
g69
(g70
g71
NtRp4318
(dp4319
g74
(dp4320
g82
I3
ssg83
g4314
sg76
(lp4321
S'/'
asbasbasbag69
(g85
g71
NtRp4322
(dp4323
g74
(dp4324
sg83
g4198
sg76
(lp4325
g69
(g90
g71
NtRp4326
(dp4327
g74
(dp4328
g94
g95
ssg83
g4322
sg76
(lp4329
g444
asbag69
(g90
g71
NtRp4330
(dp4331
g74
(dp4332
g101
g102
ssg83
g4322
sg76
(lp4333
S':'
asbag69
(g90
g71
NtRp4334
(dp4335
g74
(dp4336
sg83
g4322
sg76
(lp4337
g69
(g70
g71
NtRp4338
(dp4339
g74
(dp4340
g82
I3
ssg83
g4334
sg76
(lp4341
S''
asbasbasbag69
(g85
g71
NtRp4342
(dp4343
g74
(dp4344
sg83
g4198
sg76
(lp4345
g69
(g90
g71
NtRp4346
(dp4347
g74
(dp4348
g94
g95
ssg83
g4342
sg76
(lp4349
g465
asbag69
(g90
g71
NtRp4350
(dp4351
g74
(dp4352
g101
g102
ssg83
g4342
sg76
(lp4353
S':'
asbag69
(g90
g71
NtRp4354
(dp4355
g74
(dp4356
sg83
g4342
sg76
(lp4357
g69
(g70
g71
NtRp4358
(dp4359
g74
(dp4360
g82
I3
ssg83
g4354
sg76
(lp4361
S''
asbasbasbasbasbasbasbasbasbasbasbag69
(g85
g71
NtRp4362
(dp4363
g74
(dp4364
sg83
g4128
sg76
(lp4365
g69
(g90
g71
NtRp4366
(dp4367
g74
(dp4368
g94
g95
ssg83
g4362
sg76
(lp4369
S'delimiters'
p4370
asbag69
(g90
g71
NtRp4371
(dp4372
g74
(dp4373
g101
g102
ssg83
g4362
sg76
(lp4374
S':'
asbag69
(g90
g71
NtRp4375
(dp4376
g74
(dp4377
sg83
g4362
sg76
(lp4378
g69
(g70
g71
NtRp4379
(dp4380
g74
(dp4381
g82
I5
ssg83
g4375
sg76
(lp4382
g69
(g78
g71
NtRp4383
(dp4384
g74
(dp4385
g82
I4
ssg83
Nsg76
(lp4386
g69
(g85
g71
NtRp4387
(dp4388
g74
(dp4389
sg83
g4383
sg76
(lp4390
g69
(g90
g71
NtRp4391
(dp4392
g74
(dp4393
sg83
g4387
sg76
(lp4394
g69
(g70
g71
NtRp4395
(dp4396
g74
(dp4397
g82
I4
ssg83
g4391
sg76
(lp4398
S'{{'
p4399
asbasbasbag69
(g85
g71
NtRp4400
(dp4401
g74
(dp4402
sg83
g4383
sg76
(lp4403
g69
(g90
g71
NtRp4404
(dp4405
g74
(dp4406
sg83
g4400
sg76
(lp4407
g69
(g70
g71
NtRp4408
(dp4409
g74
(dp4410
g82
I4
ssg83
g4404
sg76
(lp4411
S'}}'
p4412
asbasbasbasbasbasbasbag69
(g85
g71
NtRp4413
(dp4414
g74
(dp4415
sg83
g4128
sg76
(lp4416
g69
(g90
g71
NtRp4417
(dp4418
g74
(dp4419
g94
g95
ssg83
g4413
sg76
(lp4420
S'files'
p4421
asbag69
(g90
g71
NtRp4422
(dp4423
g74
(dp4424
g101
g102
ssg83
g4413
sg76
(lp4425
S':'
asbag69
(g90
g71
NtRp4426
(dp4427
g74
(dp4428
sg83
g4413
sg76
(lp4429
g69
(g70
g71
NtRp4430
(dp4431
g74
(dp4432
g82
I5
ssg83
g4426
sg76
(lp4433
g69
(g78
g71
NtRp4434
(dp4435
g74
(dp4436
g82
I4
ssg83
Nsg76
(lp4437
sbasbasbasbag69
(g85
g71
NtRp4438
(dp4439
g74
(dp4440
sg83
g4128
sg76
(lp4441
g69
(g90
g71
NtRp4442
(dp4443
g74
(dp4444
g94
g95
ssg83
g4438
sg76
(lp4445
S'flash'
p4446
asbag69
(g90
g71
NtRp4447
(dp4448
g74
(dp4449
g101
g102
ssg83
g4438
sg76
(lp4450
S':'
asbag69
(g90
g71
NtRp4451
(dp4452
g74
(dp4453
sg83
g4438
sg76
(lp4454
g69
(g70
g71
NtRp4455
(dp4456
g74
(dp4457
g82
I5
ssg83
g4451
sg76
(lp4458
S''
asbasbasbag69
(g85
g71
NtRp4459
(dp4460
g74
(dp4461
sg83
g4128
sg76
(lp4462
g69
(g90
g71
NtRp4463
(dp4464
g74
(dp4465
g94
g95
ssg83
g4459
sg76
(lp4466
S'generic_patterns'
p4467
asbag69
(g90
g71
NtRp4468
(dp4469
g74
(dp4470
g101
g102
ssg83
g4459
sg76
(lp4471
S':'
asbag69
(g90
g71
NtRp4472
(dp4473
g74
(dp4474
sg83
g4459
sg76
(lp4475
g69
(g70
g71
NtRp4476
(dp4477
g74
(dp4478
g82
I5
ssg83
g4472
sg76
(lp4479
g69
(g78
g71
NtRp4480
(dp4481
g74
(dp4482
g82
I4
ssg83
Nsg76
(lp4483
g69
(g85
g71
NtRp4484
(dp4485
g74
(dp4486
sg83
g4480
sg76
(lp4487
g69
(g90
g71
NtRp4488
(dp4489
g74
(dp4490
sg83
g4484
sg76
(lp4491
g69
(g70
g71
NtRp4492
(dp4493
g74
(dp4494
g82
I4
ssg83
g4488
sg76
(lp4495
S'*'
asbasbasbasbasbasbasbag69
(g85
g71
NtRp4496
(dp4497
g74
(dp4498
sg83
g4128
sg76
(lp4499
g69
(g90
g71
NtRp4500
(dp4501
g74
(dp4502
g94
g95
ssg83
g4496
sg76
(lp4503
S'google_analytics_id'
p4504
asbag69
(g90
g71
NtRp4505
(dp4506
g74
(dp4507
g101
g102
ssg83
g4496
sg76
(lp4508
S':'
asbag69
(g90
g71
NtRp4509
(dp4510
g74
(dp4511
sg83
g4496
sg76
(lp4512
g69
(g70
g71
NtRp4513
(dp4514
g74
(dp4515
g82
I5
ssg83
g4509
sg76
(lp4516
S'None'
p4517
asbasbasbag69
(g85
g71
NtRp4518
(dp4519
g74
(dp4520
sg83
g4128
sg76
(lp4521
g69
(g90
g71
NtRp4522
(dp4523
g74
(dp4524
g94
g95
ssg83
g4518
sg76
(lp4525
S'headers'
p4526
asbag69
(g90
g71
NtRp4527
(dp4528
g74
(dp4529
g101
g102
ssg83
g4518
sg76
(lp4530
S':'
asbag69
(g90
g71
NtRp4531
(dp4532
g74
(dp4533
sg83
g4518
sg76
(lp4534
g69
(g70
g71
NtRp4535
(dp4536
g74
(dp4537
g82
I5
ssg83
g4531
sg76
(lp4538
g69
(g78
g71
NtRp4539
(dp4540
g74
(dp4541
g82
I4
ssg83
Nsg76
(lp4542
g69
(g85
g71
NtRp4543
(dp4544
g74
(dp4545
sg83
g4539
sg76
(lp4546
g69
(g90
g71
NtRp4547
(dp4548
g74
(dp4549
g94
g95
ssg83
g4543
sg76
(lp4550
S'X-Powered-By'
p4551
asbag69
(g90
g71
NtRp4552
(dp4553
g74
(dp4554
g101
g102
ssg83
g4543
sg76
(lp4555
S':'
asbag69
(g90
g71
NtRp4556
(dp4557
g74
(dp4558
sg83
g4543
sg76
(lp4559
g69
(g70
g71
NtRp4560
(dp4561
g74
(dp4562
g82
I4
ssg83
g4556
sg76
(lp4563
S'web2py'
p4564
asbasbasbasbasbasbasbag69
(g85
g71
NtRp4565
(dp4566
g74
(dp4567
sg83
g4128
sg76
(lp4568
g69
(g90
g71
NtRp4569
(dp4570
g74
(dp4571
g94
g95
ssg83
g4565
sg76
(lp4572
S'menu'
p4573
asbag69
(g90
g71
NtRp4574
(dp4575
g74
(dp4576
g101
g102
ssg83
g4565
sg76
(lp4577
S':'
asbag69
(g90
g71
NtRp4578
(dp4579
g74
(dp4580
sg83
g4565
sg76
(lp4581
g69
(g70
g71
NtRp4582
(dp4583
g74
(dp4584
g82
I5
ssg83
g4578
sg76
(lp4585
g69
(g78
g71
NtRp4586
(dp4587
g74
(dp4588
g82
I4
ssg83
Nsg76
(lp4589
g69
(g85
g71
NtRp4590
(dp4591
g74
(dp4592
sg83
g4586
sg76
(lp4593
g69
(g90
g71
NtRp4594
(dp4595
g74
(dp4596
sg83
g4590
sg76
(lp4597
g69
(g70
g71
NtRp4598
(dp4599
g74
(dp4600
g82
I4
ssg83
g4594
sg76
(lp4601
g69
(g78
g71
NtRp4602
(dp4603
g74
(dp4604
g82
I3
ssg83
Nsg76
(lp4605
g69
(g85
g71
NtRp4606
(dp4607
g74
(dp4608
sg83
g4602
sg76
(lp4609
g69
(g90
g71
NtRp4610
(dp4611
g74
(dp4612
sg83
g4606
sg76
(lp4613
g69
(g70
g71
NtRp4614
(dp4615
g74
(dp4616
g82
I3
ssg83
g4610
sg76
(lp4617
cgluon.languages
lazyT_unpickle
p4618
(S't\x08\x00\x00\x00Overview'
tRp4619
asbasbasbag69
(g85
g71
NtRp4620
(dp4621
g74
(dp4622
sg83
g4602
sg76
(lp4623
g69
(g90
g71
NtRp4624
(dp4625
g74
(dp4626
sg83
g4620
sg76
(lp4627
g69
(g70
g71
NtRp4628
(dp4629
g74
(dp4630
g82
I3
ssg83
g4624
sg76
(lp4631
g112
asbasbasbag69
(g85
g71
NtRp4632
(dp4633
g74
(dp4634
sg83
g4602
sg76
(lp4635
g69
(g90
g71
NtRp4636
(dp4637
g74
(dp4638
sg83
g4632
sg76
(lp4639
g69
(g70
g71
NtRp4640
(dp4641
g74
(dp4642
g82
I3
ssg83
g4636
sg76
(lp4643
S'/rideshare/default/index'
p4644
asbasbasbag69
(g85
g71
NtRp4645
(dp4646
g74
(dp4647
sg83
g4602
sg76
(lp4648
g69
(g90
g71
NtRp4649
(dp4650
g74
(dp4651
sg83
g4645
sg76
(lp4652
g69
(g70
g71
NtRp4653
(dp4654
g74
(dp4655
g82
I3
ssg83
g4649
sg76
(lp4656
g69
(g78
g71
NtRp4657
(dp4658
g74
(dp4659
g82
I2
ssg83
Nsg76
(lp4660
sbasbasbasbasbasbasbasbag69
(g85
g71
NtRp4661
(dp4662
g74
(dp4663
sg83
g4586
sg76
(lp4664
g69
(g90
g71
NtRp4665
(dp4666
g74
(dp4667
sg83
g4661
sg76
(lp4668
g69
(g70
g71
NtRp4669
(dp4670
g74
(dp4671
g82
I4
ssg83
g4665
sg76
(lp4672
g69
(g78
g71
NtRp4673
(dp4674
g74
(dp4675
g82
I3
ssg83
Nsg76
(lp4676
g69
(g85
g71
NtRp4677
(dp4678
g74
(dp4679
sg83
g4673
sg76
(lp4680
g69
(g90
g71
NtRp4681
(dp4682
g74
(dp4683
sg83
g4677
sg76
(lp4684
g69
(g70
g71
NtRp4685
(dp4686
g74
(dp4687
g82
I3
ssg83
g4681
sg76
(lp4688
g69
(cgluon.html
SPAN
p4689
g71
NtRp4690
(dp4691
g74
(dp4692
S'_class'
p4693
S'highlighted'
p4694
ssg83
Nsg76
(lp4695
g4564
asbasbasbasbag69
(g85
g71
NtRp4696
(dp4697
g74
(dp4698
sg83
g4673
sg76
(lp4699
g69
(g90
g71
NtRp4700
(dp4701
g74
(dp4702
sg83
g4696
sg76
(lp4703
g69
(g70
g71
NtRp4704
(dp4705
g74
(dp4706
g82
I3
ssg83
g4700
sg76
(lp4707
g112
asbasbasbag69
(g85
g71
NtRp4708
(dp4709
g74
(dp4710
sg83
g4673
sg76
(lp4711
g69
(g90
g71
NtRp4712
(dp4713
g74
(dp4714
sg83
g4708
sg76
(lp4715
g69
(g70
g71
NtRp4716
(dp4717
g74
(dp4718
g82
I3
ssg83
g4712
sg76
(lp4719
S'http://web2py.com'
p4720
asbasbasbag69
(g85
g71
NtRp4721
(dp4722
g74
(dp4723
sg83
g4673
sg76
(lp4724
g69
(g90
g71
NtRp4725
(dp4726
g74
(dp4727
sg83
g4721
sg76
(lp4728
g69
(g70
g71
NtRp4729
(dp4730
g74
(dp4731
g82
I3
ssg83
g4725
sg76
(lp4732
g69
(g78
g71
NtRp4733
(dp4734
g74
(dp4735
g82
I2
ssg83
Nsg76
(lp4736
g69
(g85
g71
NtRp4737
(dp4738
g74
(dp4739
sg83
g4733
sg76
(lp4740
g69
(g90
g71
NtRp4741
(dp4742
g74
(dp4743
sg83
g4737
sg76
(lp4744
g69
(g70
g71
NtRp4745
(dp4746
g74
(dp4747
g82
I2
ssg83
g4741
sg76
(lp4748
g69
(g78
g71
NtRp4749
(dp4750
g74
(dp4751
g82
I1
ssg83
Nsg76
(lp4752
g69
(g85
g71
NtRp4753
(dp4754
g74
(dp4755
sg83
g4749
sg76
(lp4756
g69
(g90
g71
NtRp4757
(dp4758
g74
(dp4759
sg83
g4753
sg76
(lp4760
g69
(g70
g71
NtRp4761
(dp4762
g74
(dp4763
g82
I1
ssg83
g4757
sg76
(lp4764
g4618
(S's\x08\x00\x00\x00My Sites'
tRp4765
asbasbasbag69
(g85
g71
NtRp4766
(dp4767
g74
(dp4768
sg83
g4749
sg76
(lp4769
g69
(g90
g71
NtRp4770
(dp4771
g74
(dp4772
sg83
g4766
sg76
(lp4773
g69
(g70
g71
NtRp4774
(dp4775
g74
(dp4776
g82
I1
ssg83
g4770
sg76
(lp4777
I00
asbasbasbag69
(g85
g71
NtRp4778
(dp4779
g74
(dp4780
sg83
g4749
sg76
(lp4781
g69
(g90
g71
NtRp4782
(dp4783
g74
(dp4784
sg83
g4778
sg76
(lp4785
g69
(g70
g71
NtRp4786
(dp4787
g74
(dp4788
g82
I1
ssg83
g4782
sg76
(lp4789
S'/admin/default/site'
p4790
asbasbasbasbasbasbasbag69
(g85
g71
NtRp4791
(dp4792
g74
(dp4793
sg83
g4733
sg76
(lp4794
g69
(g90
g71
NtRp4795
(dp4796
g74
(dp4797
sg83
g4791
sg76
(lp4798
g69
(g70
g71
NtRp4799
(dp4800
g74
(dp4801
g82
I2
ssg83
g4795
sg76
(lp4802
g69
(g78
g71
NtRp4803
(dp4804
g74
(dp4805
g82
I1
ssg83
Nsg76
(lp4806
g69
(g85
g71
NtRp4807
(dp4808
g74
(dp4809
sg83
g4803
sg76
(lp4810
g69
(g90
g71
NtRp4811
(dp4812
g74
(dp4813
sg83
g4807
sg76
(lp4814
g69
(g70
g71
NtRp4815
(dp4816
g74
(dp4817
g82
I1
ssg83
g4811
sg76
(lp4818
g4618
(S's\x08\x00\x00\x00This App'
tRp4819
asbasbasbag69
(g85
g71
NtRp4820
(dp4821
g74
(dp4822
sg83
g4803
sg76
(lp4823
g69
(g90
g71
NtRp4824
(dp4825
g74
(dp4826
sg83
g4820
sg76
(lp4827
g69
(g70
g71
NtRp4828
(dp4829
g74
(dp4830
g82
I1
ssg83
g4824
sg76
(lp4831
I00
asbasbasbag69
(g85
g71
NtRp4832
(dp4833
g74
(dp4834
sg83
g4803
sg76
(lp4835
g69
(g90
g71
NtRp4836
(dp4837
g74
(dp4838
sg83
g4832
sg76
(lp4839
g69
(g70
g71
NtRp4840
(dp4841
g74
(dp4842
g82
I1
ssg83
g4836
sg76
(lp4843
S'/admin/default/design/rideshare'
p4844
asbasbasbag69
(g85
g71
NtRp4845
(dp4846
g74
(dp4847
sg83
g4803
sg76
(lp4848
g69
(g90
g71
NtRp4849
(dp4850
g74
(dp4851
sg83
g4845
sg76
(lp4852
g69
(g70
g71
NtRp4853
(dp4854
g74
(dp4855
g82
I1
ssg83
g4849
sg76
(lp4856
(lp4857
(g4618
(S't\n\x00\x00\x00Controller'
tRp4858
I00
S'/admin/default/edit/rideshare/controllers/default.py'
tp4859
a(g4618
(S't\x04\x00\x00\x00View'
tRp4860
I00
S'/admin/default/edit/rideshare/views/default/view.html'
tp4861
a(g4618
(S't\x06\x00\x00\x00Layout'
tRp4862
I00
S'/admin/default/edit/rideshare/views/layout.html'
tp4863
a(g4618
(S't\n\x00\x00\x00Stylesheet'
tRp4864
I00
S'/admin/default/edit/rideshare/static/css/web2py.css'
tp4865
a(g4618
(S's\x08\x00\x00\x00DB Model'
tRp4866
I00
S'/admin/default/edit/rideshare/models/db.py'
tp4867
a(g4618
(S's\n\x00\x00\x00Menu Model'
tRp4868
I00
S'/admin/default/edit/rideshare/models/menu.py'
tp4869
a(g4618
(S't\x08\x00\x00\x00Database'
tRp4870
I00
S'/rideshare/appadmin/index'
tp4871
a(g4618
(S't\x06\x00\x00\x00Errors'
tRp4872
I00
S'/admin/default/errors/rideshare'
tp4873
a(g4618
(S't\x05\x00\x00\x00About'
tRp4874
I00
S'/admin/default/about/rideshare'
tp4875
aasbasbasbasbasbasbasbag69
(g85
g71
NtRp4876
(dp4877
g74
(dp4878
sg83
g4733
sg76
(lp4879
g69
(g90
g71
NtRp4880
(dp4881
g74
(dp4882
sg83
g4876
sg76
(lp4883
g69
(g70
g71
NtRp4884
(dp4885
g74
(dp4886
g82
I2
ssg83
g4880
sg76
(lp4887
g69
(g78
g71
NtRp4888
(dp4889
g74
(dp4890
g82
I1
ssg83
Nsg76
(lp4891
g69
(g85
g71
NtRp4892
(dp4893
g74
(dp4894
sg83
g4888
sg76
(lp4895
g69
(g90
g71
NtRp4896
(dp4897
g74
(dp4898
sg83
g4892
sg76
(lp4899
g69
(g70
g71
NtRp4900
(dp4901
g74
(dp4902
g82
I1
ssg83
g4896
sg76
(lp4903
S'web2py.com'
p4904
asbasbasbag69
(g85
g71
NtRp4905
(dp4906
g74
(dp4907
sg83
g4888
sg76
(lp4908
g69
(g90
g71
NtRp4909
(dp4910
g74
(dp4911
sg83
g4905
sg76
(lp4912
g69
(g70
g71
NtRp4913
(dp4914
g74
(dp4915
g82
I1
ssg83
g4909
sg76
(lp4916
I00
asbasbasbag69
(g85
g71
NtRp4917
(dp4918
g74
(dp4919
sg83
g4888
sg76
(lp4920
g69
(g90
g71
NtRp4921
(dp4922
g74
(dp4923
sg83
g4917
sg76
(lp4924
g69
(g70
g71
NtRp4925
(dp4926
g74
(dp4927
g82
I1
ssg83
g4921
sg76
(lp4928
S'http://www.web2py.com'
p4929
asbasbasbag69
(g85
g71
NtRp4930
(dp4931
g74
(dp4932
sg83
g4888
sg76
(lp4933
g69
(g90
g71
NtRp4934
(dp4935
g74
(dp4936
sg83
g4930
sg76
(lp4937
g69
(g70
g71
NtRp4938
(dp4939
g74
(dp4940
g82
I1
ssg83
g4934
sg76
(lp4941
(lp4942
(g4618
(S't\x08\x00\x00\x00Download'
tRp4943
I00
S'http://www.web2py.com/examples/default/download'
p4944
tp4945
a(g4618
(S't\x07\x00\x00\x00Support'
tRp4946
I00
S'http://www.web2py.com/examples/default/support'
p4947
tp4948
a(g4618
(S't\x04\x00\x00\x00Demo'
tRp4949
I00
S'http://web2py.com/demo_admin'
p4950
tp4951
a(g4618
(S's\x0e\x00\x00\x00Quick Examples'
tRp4952
I00
S'http://web2py.com/examples/default/examples'
p4953
tp4954
a(g4618
(S't\x03\x00\x00\x00FAQ'
tRp4955
I00
S'http://web2py.com/AlterEgo'
p4956
tp4957
a(g4618
(S't\x06\x00\x00\x00Videos'
tRp4958
I00
S'http://www.web2py.com/examples/default/videos/'
p4959
tp4960
a(g4618
(S's\x11\x00\x00\x00Free Applications'
tRp4961
I00
S'http://web2py.com/appliances'
p4962
tp4963
a(g4618
(S't\x07\x00\x00\x00Plugins'
tRp4964
I00
S'http://web2py.com/plugins'
p4965
tp4966
a(g4618
(S't\x07\x00\x00\x00Layouts'
tRp4967
I00
S'http://web2py.com/layouts'
p4968
tp4969
a(g4618
(S't\x07\x00\x00\x00Recipes'
tRp4970
I00
S'http://web2pyslices.com/'
p4971
tp4972
a(g4618
(S't\x08\x00\x00\x00Semantic'
tRp4973
I00
S'http://web2py.com/semantic'
p4974
tp4975
aasbasbasbasbasbasbasbag69
(g85
g71
NtRp4976
(dp4977
g74
(dp4978
sg83
g4733
sg76
(lp4979
g69
(g90
g71
NtRp4980
(dp4981
g74
(dp4982
sg83
g4976
sg76
(lp4983
g69
(g70
g71
NtRp4984
(dp4985
g74
(dp4986
g82
I2
ssg83
g4980
sg76
(lp4987
g69
(g78
g71
NtRp4988
(dp4989
g74
(dp4990
g82
I1
ssg83
Nsg76
(lp4991
g69
(g85
g71
NtRp4992
(dp4993
g74
(dp4994
sg83
g4988
sg76
(lp4995
g69
(g90
g71
NtRp4996
(dp4997
g74
(dp4998
sg83
g4992
sg76
(lp4999
g69
(g70
g71
NtRp5000
(dp5001
g74
(dp5002
g82
I1
ssg83
g4996
sg76
(lp5003
g4618
(S't\r\x00\x00\x00Documentation'
tRp5004
asbasbasbag69
(g85
g71
NtRp5005
(dp5006
g74
(dp5007
sg83
g4988
sg76
(lp5008
g69
(g90
g71
NtRp5009
(dp5010
g74
(dp5011
sg83
g5005
sg76
(lp5012
g69
(g70
g71
NtRp5013
(dp5014
g74
(dp5015
g82
I1
ssg83
g5009
sg76
(lp5016
I00
asbasbasbag69
(g85
g71
NtRp5017
(dp5018
g74
(dp5019
sg83
g4988
sg76
(lp5020
g69
(g90
g71
NtRp5021
(dp5022
g74
(dp5023
sg83
g5017
sg76
(lp5024
g69
(g70
g71
NtRp5025
(dp5026
g74
(dp5027
g82
I1
ssg83
g5021
sg76
(lp5028
S'http://www.web2py.com/book'
p5029
asbasbasbag69
(g85
g71
NtRp5030
(dp5031
g74
(dp5032
sg83
g4988
sg76
(lp5033
g69
(g90
g71
NtRp5034
(dp5035
g74
(dp5036
sg83
g5030
sg76
(lp5037
g69
(g70
g71
NtRp5038
(dp5039
g74
(dp5040
g82
I1
ssg83
g5034
sg76
(lp5041
(lp5042
(g4618
(S't\x07\x00\x00\x00Preface'
tRp5043
I00
S'http://www.web2py.com/book/default/chapter/00'
p5044
tp5045
a(g4618
(S't\x0c\x00\x00\x00Introduction'
tRp5046
I00
S'http://www.web2py.com/book/default/chapter/01'
p5047
tp5048
a(g4618
(S't\x06\x00\x00\x00Python'
tRp5049
I00
S'http://www.web2py.com/book/default/chapter/02'
p5050
tp5051
a(g4618
(S't\x08\x00\x00\x00Overview'
tRp5052
I00
S'http://www.web2py.com/book/default/chapter/03'
p5053
tp5054
a(g4618
(S's\x08\x00\x00\x00The Core'
tRp5055
I00
S'http://www.web2py.com/book/default/chapter/04'
p5056
tp5057
a(g4618
(S's\t\x00\x00\x00The Views'
tRp5058
I00
S'http://www.web2py.com/book/default/chapter/05'
p5059
tp5060
a(g4618
(S't\x08\x00\x00\x00Database'
tRp5061
I00
S'http://www.web2py.com/book/default/chapter/06'
p5062
tp5063
a(g4618
(S's\x14\x00\x00\x00Forms and Validators'
tRp5064
I00
S'http://www.web2py.com/book/default/chapter/07'
p5065
tp5066
a(g4618
(S's\r\x00\x00\x00Email and SMS'
tRp5067
I00
S'http://www.web2py.com/book/default/chapter/08'
p5068
tp5069
a(g4618
(S's\x0e\x00\x00\x00Access Control'
tRp5070
I00
S'http://www.web2py.com/book/default/chapter/09'
p5071
tp5072
a(g4618
(S't\x08\x00\x00\x00Services'
tRp5073
I00
S'http://www.web2py.com/book/default/chapter/10'
p5074
tp5075
a(g4618
(S's\x0c\x00\x00\x00Ajax Recipes'
tRp5076
I00
S'http://www.web2py.com/book/default/chapter/11'
p5077
tp5078
a(g4618
(S's\x16\x00\x00\x00Components and Plugins'
tRp5079
I00
S'http://www.web2py.com/book/default/chapter/12'
p5080
tp5081
a(g4618
(S's\x12\x00\x00\x00Deployment Recipes'
tRp5082
I00
S'http://www.web2py.com/book/default/chapter/13'
p5083
tp5084
a(g4618
(S's\r\x00\x00\x00Other Recipes'
tRp5085
I00
S'http://www.web2py.com/book/default/chapter/14'
p5086
tp5087
a(g4618
(S's\r\x00\x00\x00Buy this book'
tRp5088
I00
S'http://stores.lulu.com/web2py'
p5089
tp5090
aasbasbasbasbasbasbasbag69
(g85
g71
NtRp5091
(dp5092
g74
(dp5093
sg83
g4733
sg76
(lp5094
g69
(g90
g71
NtRp5095
(dp5096
g74
(dp5097
sg83
g5091
sg76
(lp5098
g69
(g70
g71
NtRp5099
(dp5100
g74
(dp5101
g82
I2
ssg83
g5095
sg76
(lp5102
g69
(g78
g71
NtRp5103
(dp5104
g74
(dp5105
g82
I1
ssg83
Nsg76
(lp5106
g69
(g85
g71
NtRp5107
(dp5108
g74
(dp5109
sg83
g5103
sg76
(lp5110
g69
(g90
g71
NtRp5111
(dp5112
g74
(dp5113
sg83
g5107
sg76
(lp5114
g69
(g70
g71
NtRp5115
(dp5116
g74
(dp5117
g82
I1
ssg83
g5111
sg76
(lp5118
g4618
(S't\t\x00\x00\x00Community'
tRp5119
asbasbasbag69
(g85
g71
NtRp5120
(dp5121
g74
(dp5122
sg83
g5103
sg76
(lp5123
g69
(g90
g71
NtRp5124
(dp5125
g74
(dp5126
sg83
g5120
sg76
(lp5127
g69
(g70
g71
NtRp5128
(dp5129
g74
(dp5130
g82
I1
ssg83
g5124
sg76
(lp5131
I00
asbasbasbag69
(g85
g71
NtRp5132
(dp5133
g74
(dp5134
sg83
g5103
sg76
(lp5135
g69
(g90
g71
NtRp5136
(dp5137
g74
(dp5138
sg83
g5132
sg76
(lp5139
g69
(g70
g71
NtRp5140
(dp5141
g74
(dp5142
g82
I1
ssg83
g5136
sg76
(lp5143
Nasbasbasbag69
(g85
g71
NtRp5144
(dp5145
g74
(dp5146
sg83
g5103
sg76
(lp5147
g69
(g90
g71
NtRp5148
(dp5149
g74
(dp5150
sg83
g5144
sg76
(lp5151
g69
(g70
g71
NtRp5152
(dp5153
g74
(dp5154
g82
I1
ssg83
g5148
sg76
(lp5155
(lp5156
(g4618
(S't\x06\x00\x00\x00Groups'
tRp5157
I00
S'http://www.web2py.com/examples/default/usergroups'
p5158
tp5159
a(g4618
(S't\x07\x00\x00\x00Twitter'
tRp5160
I00
S'http://twitter.com/web2py'
p5161
tp5162
a(g4618
(S's\t\x00\x00\x00Live Chat'
tRp5163
I00
S'http://webchat.freenode.net/?channels=web2py'
p5164
tp5165
aasbasbasbasbasbasbasbag69
(g85
g71
NtRp5166
(dp5167
g74
(dp5168
sg83
g4733
sg76
(lp5169
g69
(g90
g71
NtRp5170
(dp5171
g74
(dp5172
sg83
g5166
sg76
(lp5173
g69
(g70
g71
NtRp5174
(dp5175
g74
(dp5176
g82
I2
ssg83
g5170
sg76
(lp5177
g69
(g78
g71
NtRp5178
(dp5179
g74
(dp5180
g82
I1
ssg83
Nsg76
(lp5181
g69
(g85
g71
NtRp5182
(dp5183
g74
(dp5184
sg83
g5178
sg76
(lp5185
g69
(g90
g71
NtRp5186
(dp5187
g74
(dp5188
sg83
g5182
sg76
(lp5189
g69
(g70
g71
NtRp5190
(dp5191
g74
(dp5192
g82
I1
ssg83
g5186
sg76
(lp5193
g4618
(S't\x07\x00\x00\x00Plugins'
tRp5194
asbasbasbag69
(g85
g71
NtRp5195
(dp5196
g74
(dp5197
sg83
g5178
sg76
(lp5198
g69
(g90
g71
NtRp5199
(dp5200
g74
(dp5201
sg83
g5195
sg76
(lp5202
g69
(g70
g71
NtRp5203
(dp5204
g74
(dp5205
g82
I1
ssg83
g5199
sg76
(lp5206
I00
asbasbasbag69
(g85
g71
NtRp5207
(dp5208
g74
(dp5209
sg83
g5178
sg76
(lp5210
g69
(g90
g71
NtRp5211
(dp5212
g74
(dp5213
sg83
g5207
sg76
(lp5214
g69
(g70
g71
NtRp5215
(dp5216
g74
(dp5217
g82
I1
ssg83
g5211
sg76
(lp5218
Nasbasbasbag69
(g85
g71
NtRp5219
(dp5220
g74
(dp5221
sg83
g5178
sg76
(lp5222
g69
(g90
g71
NtRp5223
(dp5224
g74
(dp5225
sg83
g5219
sg76
(lp5226
g69
(g70
g71
NtRp5227
(dp5228
g74
(dp5229
g82
I1
ssg83
g5223
sg76
(lp5230
(lp5231
(S'plugin_wiki'
p5232
I00
S'http://web2py.com/examples/default/download'
p5233
tp5234
a(g4618
(S's\r\x00\x00\x00Other Plugins'
tRp5235
I00
g4965
tp5236
a(g4618
(S's\x0e\x00\x00\x00Layout Plugins'
tRp5237
I00
g4968
tp5238
aasbasbasbasbasbasbasbasbasbasbasbasbasbasbasbasbasbasbasbag69
(g85
g71
NtRp5239
(dp5240
g74
(dp5241
sg83
g4128
sg76
(lp5242
g69
(g90
g71
NtRp5243
(dp5244
g74
(dp5245
g94
g95
ssg83
g5239
sg76
(lp5246
S'meta'
p5247
asbag69
(g90
g71
NtRp5248
(dp5249
g74
(dp5250
g101
g102
ssg83
g5239
sg76
(lp5251
S':'
asbag69
(g90
g71
NtRp5252
(dp5253
g74
(dp5254
sg83
g5239
sg76
(lp5255
g69
(g70
g71
NtRp5256
(dp5257
g74
(dp5258
g82
I5
ssg83
g5252
sg76
(lp5259
g69
(g78
g71
NtRp5260
(dp5261
g74
(dp5262
g82
I4
ssg83
Nsg76
(lp5263
g69
(g85
g71
NtRp5264
(dp5265
g74
(dp5266
sg83
g5260
sg76
(lp5267
g69
(g90
g71
NtRp5268
(dp5269
g74
(dp5270
g94
g95
ssg83
g5264
sg76
(lp5271
S'author'
p5272
asbag69
(g90
g71
NtRp5273
(dp5274
g74
(dp5275
g101
g102
ssg83
g5264
sg76
(lp5276
S':'
asbag69
(g90
g71
NtRp5277
(dp5278
g74
(dp5279
sg83
g5264
sg76
(lp5280
g69
(g70
g71
NtRp5281
(dp5282
g74
(dp5283
g82
I4
ssg83
g5277
sg76
(lp5284
S'Your Name <you@example.com>'
p5285
asbasbasbag69
(g85
g71
NtRp5286
(dp5287
g74
(dp5288
sg83
g5260
sg76
(lp5289
g69
(g90
g71
NtRp5290
(dp5291
g74
(dp5292
g94
g95
ssg83
g5286
sg76
(lp5293
S'description'
p5294
asbag69
(g90
g71
NtRp5295
(dp5296
g74
(dp5297
g101
g102
ssg83
g5286
sg76
(lp5298
S':'
asbag69
(g90
g71
NtRp5299
(dp5300
g74
(dp5301
sg83
g5286
sg76
(lp5302
g69
(g70
g71
NtRp5303
(dp5304
g74
(dp5305
g82
I4
ssg83
g5299
sg76
(lp5306
S'a cool new app'
p5307
asbasbasbag69
(g85
g71
NtRp5308
(dp5309
g74
(dp5310
sg83
g5260
sg76
(lp5311
g69
(g90
g71
NtRp5312
(dp5313
g74
(dp5314
g94
g95
ssg83
g5308
sg76
(lp5315
S'generator'
p5316
asbag69
(g90
g71
NtRp5317
(dp5318
g74
(dp5319
g101
g102
ssg83
g5308
sg76
(lp5320
S':'
asbag69
(g90
g71
NtRp5321
(dp5322
g74
(dp5323
sg83
g5308
sg76
(lp5324
g69
(g70
g71
NtRp5325
(dp5326
g74
(dp5327
g82
I4
ssg83
g5321
sg76
(lp5328
S'Web2py Web Framework'
p5329
asbasbasbag69
(g85
g71
NtRp5330
(dp5331
g74
(dp5332
sg83
g5260
sg76
(lp5333
g69
(g90
g71
NtRp5334
(dp5335
g74
(dp5336
g94
g95
ssg83
g5330
sg76
(lp5337
S'keywords'
p5338
asbag69
(g90
g71
NtRp5339
(dp5340
g74
(dp5341
g101
g102
ssg83
g5330
sg76
(lp5342
S':'
asbag69
(g90
g71
NtRp5343
(dp5344
g74
(dp5345
sg83
g5330
sg76
(lp5346
g69
(g70
g71
NtRp5347
(dp5348
g74
(dp5349
g82
I4
ssg83
g5343
sg76
(lp5350
S'web2py, python, framework'
p5351
asbasbasbasbasbasbasbag69
(g85
g71
NtRp5352
(dp5353
g74
(dp5354
sg83
g4128
sg76
(lp5355
g69
(g90
g71
NtRp5356
(dp5357
g74
(dp5358
g94
g95
ssg83
g5352
sg76
(lp5359
S'models_to_run'
p5360
asbag69
(g90
g71
NtRp5361
(dp5362
g74
(dp5363
g101
g102
ssg83
g5352
sg76
(lp5364
S':'
asbag69
(g90
g71
NtRp5365
(dp5366
g74
(dp5367
sg83
g5352
sg76
(lp5368
g69
(g70
g71
NtRp5369
(dp5370
g74
(dp5371
g82
I5
ssg83
g5365
sg76
(lp5372
g69
(g78
g71
NtRp5373
(dp5374
g74
(dp5375
g82
I4
ssg83
Nsg76
(lp5376
g69
(g85
g71
NtRp5377
(dp5378
g74
(dp5379
sg83
g5373
sg76
(lp5380
g69
(g90
g71
NtRp5381
(dp5382
g74
(dp5383
sg83
g5377
sg76
(lp5384
g69
(g70
g71
NtRp5385
(dp5386
g74
(dp5387
g82
I4
ssg83
g5381
sg76
(lp5388
S'^\\w+\\.py$'
p5389
asbasbasbag69
(g85
g71
NtRp5390
(dp5391
g74
(dp5392
sg83
g5373
sg76
(lp5393
g69
(g90
g71
NtRp5394
(dp5395
g74
(dp5396
sg83
g5390
sg76
(lp5397
g69
(g70
g71
NtRp5398
(dp5399
g74
(dp5400
g82
I4
ssg83
g5394
sg76
(lp5401
S'^default/\\w+\\.py$'
p5402
asbasbasbag69
(g85
g71
NtRp5403
(dp5404
g74
(dp5405
sg83
g5373
sg76
(lp5406
g69
(g90
g71
NtRp5407
(dp5408
g74
(dp5409
sg83
g5403
sg76
(lp5410
g69
(g70
g71
NtRp5411
(dp5412
g74
(dp5413
g82
I4
ssg83
g5407
sg76
(lp5414
S'^default/view/\\w+\\.py$'
p5415
asbasbasbasbasbasbasbag69
(g85
g71
NtRp5416
(dp5417
g74
(dp5418
sg83
g4128
sg76
(lp5419
g69
(g90
g71
NtRp5420
(dp5421
g74
(dp5422
g94
g95
ssg83
g5416
sg76
(lp5423
S'postprocessing'
p5424
asbag69
(g90
g71
NtRp5425
(dp5426
g74
(dp5427
g101
g102
ssg83
g5416
sg76
(lp5428
S':'
asbag69
(g90
g71
NtRp5429
(dp5430
g74
(dp5431
sg83
g5416
sg76
(lp5432
g69
(g70
g71
NtRp5433
(dp5434
g74
(dp5435
g82
I5
ssg83
g5429
sg76
(lp5436
g69
(g78
g71
NtRp5437
(dp5438
g74
(dp5439
g82
I4
ssg83
Nsg76
(lp5440
sbasbasbasbag69
(g85
g71
NtRp5441
(dp5442
g74
(dp5443
sg83
g4128
sg76
(lp5444
g69
(g90
g71
NtRp5445
(dp5446
g74
(dp5447
g94
g95
ssg83
g5441
sg76
(lp5448
S'session_file'
p5449
asbag69
(g90
g71
NtRp5450
(dp5451
g74
(dp5452
g101
g102
ssg83
g5441
sg76
(lp5453
S':'
asbag69
(g90
g71
NtRp5454
(dp5455
g74
(dp5456
sg83
g5441
sg76
(lp5457
g69
(g70
g71
NtRp5458
(dp5459
g74
(dp5460
g82
I5
ssg83
g5454
sg76
(lp5461
S"<open file 'C:\\Users\\Owner\\Desktop\\web2py\\applications\\rideshare\\sessions\\127.0.0.1-76981bb4-a11c-4445-975f-4668a2e996ed', mode 'rb+' at 0x069935A0>"
p5462
asbasbasbag69
(g85
g71
NtRp5463
(dp5464
g74
(dp5465
sg83
g4128
sg76
(lp5466
g69
(g90
g71
NtRp5467
(dp5468
g74
(dp5469
g94
g95
ssg83
g5463
sg76
(lp5470
S'session_filename'
p5471
asbag69
(g90
g71
NtRp5472
(dp5473
g74
(dp5474
g101
g102
ssg83
g5463
sg76
(lp5475
S':'
asbag69
(g90
g71
NtRp5476
(dp5477
g74
(dp5478
sg83
g5463
sg76
(lp5479
g69
(g70
g71
NtRp5480
(dp5481
g74
(dp5482
g82
I5
ssg83
g5476
sg76
(lp5483
S'C:\\Users\\Owner\\Desktop\\web2py\\applications\\rideshare\\sessions\\127.0.0.1-76981bb4-a11c-4445-975f-4668a2e996ed'
p5484
asbasbasbag69
(g85
g71
NtRp5485
(dp5486
g74
(dp5487
sg83
g4128
sg76
(lp5488
g69
(g90
g71
NtRp5489
(dp5490
g74
(dp5491
g94
g95
ssg83
g5485
sg76
(lp5492
S'session_id'
p5493
asbag69
(g90
g71
NtRp5494
(dp5495
g74
(dp5496
g101
g102
ssg83
g5485
sg76
(lp5497
S':'
asbag69
(g90
g71
NtRp5498
(dp5499
g74
(dp5500
sg83
g5485
sg76
(lp5501
g69
(g70
g71
NtRp5502
(dp5503
g74
(dp5504
g82
I5
ssg83
g5498
sg76
(lp5505
g685
asbasbasbag69
(g85
g71
NtRp5506
(dp5507
g74
(dp5508
sg83
g4128
sg76
(lp5509
g69
(g90
g71
NtRp5510
(dp5511
g74
(dp5512
g94
g95
ssg83
g5506
sg76
(lp5513
S'session_id_name'
p5514
asbag69
(g90
g71
NtRp5515
(dp5516
g74
(dp5517
g101
g102
ssg83
g5506
sg76
(lp5518
S':'
asbag69
(g90
g71
NtRp5519
(dp5520
g74
(dp5521
sg83
g5506
sg76
(lp5522
g69
(g70
g71
NtRp5523
(dp5524
g74
(dp5525
g82
I5
ssg83
g5519
sg76
(lp5526
g4185
asbasbasbag69
(g85
g71
NtRp5527
(dp5528
g74
(dp5529
sg83
g4128
sg76
(lp5530
g69
(g90
g71
NtRp5531
(dp5532
g74
(dp5533
g94
g95
ssg83
g5527
sg76
(lp5534
S'session_locked'
p5535
asbag69
(g90
g71
NtRp5536
(dp5537
g74
(dp5538
g101
g102
ssg83
g5527
sg76
(lp5539
S':'
asbag69
(g90
g71
NtRp5540
(dp5541
g74
(dp5542
sg83
g5527
sg76
(lp5543
g69
(g70
g71
NtRp5544
(dp5545
g74
(dp5546
g82
I5
ssg83
g5540
sg76
(lp5547
g2283
asbasbasbag69
(g85
g71
NtRp5548
(dp5549
g74
(dp5550
sg83
g4128
sg76
(lp5551
g69
(g90
g71
NtRp5552
(dp5553
g74
(dp5554
g94
g95
ssg83
g5548
sg76
(lp5555
S'session_new'
p5556
asbag69
(g90
g71
NtRp5557
(dp5558
g74
(dp5559
g101
g102
ssg83
g5548
sg76
(lp5560
S':'
asbag69
(g90
g71
NtRp5561
(dp5562
g74
(dp5563
sg83
g5548
sg76
(lp5564
g69
(g70
g71
NtRp5565
(dp5566
g74
(dp5567
g82
I5
ssg83
g5561
sg76
(lp5568
g112
asbasbasbag69
(g85
g71
NtRp5569
(dp5570
g74
(dp5571
sg83
g4128
sg76
(lp5572
g69
(g90
g71
NtRp5573
(dp5574
g74
(dp5575
g94
g95
ssg83
g5569
sg76
(lp5576
S'status'
p5577
asbag69
(g90
g71
NtRp5578
(dp5579
g74
(dp5580
g101
g102
ssg83
g5569
sg76
(lp5581
S':'
asbag69
(g90
g71
NtRp5582
(dp5583
g74
(dp5584
sg83
g5569
sg76
(lp5585
g69
(g70
g71
NtRp5586
(dp5587
g74
(dp5588
g82
I5
ssg83
g5582
sg76
(lp5589
S'200'
p5590
asbasbasbag69
(g85
g71
NtRp5591
(dp5592
g74
(dp5593
sg83
g4128
sg76
(lp5594
g69
(g90
g71
NtRp5595
(dp5596
g74
(dp5597
g94
g95
ssg83
g5591
sg76
(lp5598
S'subtitle'
p5599
asbag69
(g90
g71
NtRp5600
(dp5601
g74
(dp5602
g101
g102
ssg83
g5591
sg76
(lp5603
S':'
asbag69
(g90
g71
NtRp5604
(dp5605
g74
(dp5606
sg83
g5591
sg76
(lp5607
g69
(g70
g71
NtRp5608
(dp5609
g74
(dp5610
g82
I5
ssg83
g5604
sg76
(lp5611
g4618
(S's\x1f\x00\x00\x00Where all your rides come true!'
tRp5612
asbasbasbag69
(g85
g71
NtRp5613
(dp5614
g74
(dp5615
sg83
g4128
sg76
(lp5616
g69
(g90
g71
NtRp5617
(dp5618
g74
(dp5619
g94
g95
ssg83
g5613
sg76
(lp5620
S'title'
p5621
asbag69
(g90
g71
NtRp5622
(dp5623
g74
(dp5624
g101
g102
ssg83
g5613
sg76
(lp5625
S':'
asbag69
(g90
g71
NtRp5626
(dp5627
g74
(dp5628
sg83
g5613
sg76
(lp5629
g69
(g70
g71
NtRp5630
(dp5631
g74
(dp5632
g82
I5
ssg83
g5626
sg76
(lp5633
g4618
(S't\t\x00\x00\x00Rideshare'
tRp5634
asbasbasbag69
(g85
g71
NtRp5635
(dp5636
g74
(dp5637
sg83
g4128
sg76
(lp5638
g69
(g90
g71
NtRp5639
(dp5640
g74
(dp5641
g94
g95
ssg83
g5635
sg76
(lp5642
S'view'
p5643
asbag69
(g90
g71
NtRp5644
(dp5645
g74
(dp5646
g101
g102
ssg83
g5635
sg76
(lp5647
S':'
asbag69
(g90
g71
NtRp5648
(dp5649
g74
(dp5650
sg83
g5635
sg76
(lp5651
g69
(g70
g71
NtRp5652
(dp5653
g74
(dp5654
g82
I5
ssg83
g5648
sg76
(lp5655
S'default/view.html'
p5656
asbasbasbasbasbsS'locals'
p5657
(dp5658
g4
S"r'C:\\Users\\Owner\\Desktop\\web2py\\applications\\rideshare\\views\\default/view.html'"
p5659
sg6
S'\'response.write(\\\'<!DOCTYPE html PUBLIC "-//W3C//D... #footer -->\\\\n </body>\\\\n</html>\\\\n\\\', escape=False)\''
p5660
sssS'traceback'
p5661
S'Traceback (most recent call last):\n  File "gluon/restricted.py", line 208, in restricted\n  File "gluon/restricted.py", line 193, in compile2\n  File "C:\\Users\\Owner\\Desktop\\web2py\\applications\\rideshare\\views\\default/view.html", line 77\n    response.write((A"Add a comment", _href=URL(\'add_comment\', args=[ride.id])))\n                                   ^\nSyntaxError: invalid syntax\n'
p5662
s.